 webgl

 Timestamp is 5922c316 (Mon May 22 16:23:10 2017)

 Preferred load address is 0000000180000000

 Start         Length     Name                   Class
 0001:00000000 00000080H .text$di                CODE
 0001:00000080 0002bab0H .text$mn                CODE
 0001:0002bb30 00000020H .text$mn$00             CODE
 0001:0002bb50 000004d0H .text$x                 CODE
 0001:0002c020 000000bdH .text$yd                CODE
 0002:00000000 00000720H .idata$5                DATA
 0002:00000720 00000010H .00cfg                  DATA
 0002:00000730 00000008H .CRT$XCA                DATA
 0002:00000738 00000020H .CRT$XCU                DATA
 0002:00000758 00000008H .CRT$XCZ                DATA
 0002:00000760 00000008H .CRT$XIA                DATA
 0002:00000768 00000018H .CRT$XIC                DATA
 0002:00000780 00000008H .CRT$XIZ                DATA
 0002:00000788 00000008H .CRT$XPA                DATA
 0002:00000790 00000010H .CRT$XPX                DATA
 0002:000007a0 00000008H .CRT$XPXA               DATA
 0002:000007a8 00000008H .CRT$XPZ                DATA
 0002:000007b0 00000008H .CRT$XTA                DATA
 0002:000007b8 00000008H .CRT$XTZ                DATA
 0002:000007c0 0000c0a8H .rdata                  DATA
 0002:0000c868 0000037cH .rdata$r                DATA
 0002:0000cbe4 0000040cH .rdata$zzzdbg           DATA
 0002:0000cff0 00000008H .rtc$IAA                DATA
 0002:0000cff8 00000008H .rtc$IZZ                DATA
 0002:0000d000 00000008H .rtc$TAA                DATA
 0002:0000d008 00000008H .rtc$TZZ                DATA
 0002:0000d010 00003090H .xdata                  DATA
 0002:000100a0 000001dcH .xdata$x                DATA
 0002:0001027c 00000020H .didat$2                DATA
 0002:0001029c 00000024H .didat$3                DATA
 0002:000102c0 00000250H .didat$4                DATA
 0002:00010510 000012c0H .didat$6                DATA
 0002:000117d0 00000250H .didat$7                DATA
 0002:00011a20 00000050H .edata                  DATA
 0002:00011a70 00000050H .idata$2                DATA
 0002:00011ac0 00000018H .idata$3                DATA
 0002:00011ad8 00000720H .idata$4                DATA
 0002:000121f8 0000121aH .idata$6                DATA
 0003:00000000 00000970H .data                   DATA
 0003:00000970 00000118H .data$r                 DATA
 0003:00000a88 00000258H .didat$5                DATA
 0003:00000ce0 00001224H .bss                    DATA
 0004:00000000 00001e54H .pdata                  DATA
 0005:00000000 00000084H .gfids$x                DATA
 0005:00000084 00000050H .gfids$y                DATA
 0006:00000000 00000060H .rsrc$01                DATA
 0006:00000060 00000180H .rsrc$02                DATA

  Address         Publics by Value              Rva+Base               Lib:Object

 0000:00000000       __dynamic_value_reloc_table 0000000000000000     <absolute>
 0000:00000000       __guard_iat_count          0000000000000000     <absolute>
 0000:00000000       __guard_iat_table          0000000000000000     <absolute>
 0000:00000000       __guard_fids_count         0000000000000000     <absolute>
 0000:00000000       __guard_longjmp_table      0000000000000000     <absolute>
 0000:00000000       __guard_longjmp_count      0000000000000000     <absolute>
 0000:00000000       ___safe_se_handler_table   0000000000000000     <absolute>
 0000:00000000       ___safe_se_handler_count   0000000000000000     <absolute>
 0000:00000000       __guard_fids_table         0000000000000000     <absolute>
 0000:00000100       __guard_flags              0000000000000100     <absolute>
 0000:00000000       __ImageBase                0000000180000000     <linker-defined>
 0001:00000130       ?NewInstance@Nan@@YA?AV?$MaybeLocal@VObject@v8@@@v8@@V?$Local@VObjectTemplate@v8@@@3@@Z 0000000180001130 f i bindings.obj
 0001:000001b0       ?GetFunction@Nan@@YA?AV?$MaybeLocal@VFunction@v8@@@v8@@V?$Local@VFunctionTemplate@v8@@@3@@Z 00000001800011b0 f i bindings.obj
 0001:00000230       ?ForceSet@Nan@@YA?AV?$Maybe@_N@v8@@V?$Local@VObject@v8@@@3@V?$Local@VValue@v8@@@3@1W4PropertyAttribute@3@@Z 0000000180001230 f i bindings.obj
 0001:000002c0       ?convert@?$ToFactory@VInteger@v8@@@imp@Nan@@SA?AV?$MaybeLocal@VInteger@v8@@@v8@@V?$Local@VValue@v8@@@5@@Z 00000001800012c0 f i bindings.obj
 0001:00000350       ?New@?$Factory@VFunctionTemplate@v8@@@imp@Nan@@SA?AV?$Local@VFunctionTemplate@v8@@@v8@@P6AXAEBV?$FunctionCallbackInfo@VValue@v8@@@3@@ZV?$Local@VValue@v8@@@5@V?$Local@VSignature@v8@@@5@@Z 0000000180001350 f i bindings.obj
 0001:000004c0       ??1HandleScope@Nan@@QEAA@XZ 00000001800014c0 f i bindings.obj
 0001:000004d0       init                       00000001800014d0 f   bindings.obj
 0001:0000b8e0       ??$SetMethod@VObject@v8@@VLocal@2@@Nan@@YAXV?$Local@VObject@v8@@@v8@@PEBDP6AXAEBV?$FunctionCallbackInfo@VValue@v8@@@0@@Z@Z 000000018000c8e0 f i bindings.obj
 0001:0000b9a0       ??$New@VInteger@v8@@H@Nan@@YA?AV?$Local@VInteger@v8@@@v8@@H@Z 000000018000c9a0 f i bindings.obj
 0001:0000ba00       ??$SetMethodAux@V?$Local@VObject@v8@@@v8@@@imp@Nan@@YAXV?$Local@VObject@v8@@@v8@@V?$Local@VString@v8@@@3@V?$Local@VFunctionTemplate@v8@@@3@ZZ 000000018000ca00 f i bindings.obj
 0001:0000ba50       ??1ObjectWrap@node@@UEAA@XZ 000000018000ca50 f i image.obj
 0001:0000bad0       ?Wrap@ObjectWrap@node@@IEAAXV?$Local@VObject@v8@@@v8@@@Z 000000018000cad0 f i image.obj
 0001:0000bbb0       ?Ref@ObjectWrap@node@@MEAAXXZ 000000018000cbb0 f i image.obj
 0001:0000bbf0       ?Unref@ObjectWrap@node@@MEAAXXZ 000000018000cbf0 f i image.obj
 0001:0000bca0       ?WeakCallback@ObjectWrap@node@@CAXAEBV?$WeakCallbackInfo@VObjectWrap@node@@@v8@@@Z 000000018000cca0 f i image.obj
 0001:0000bd00       ??_EObjectWrap@node@@UEAAPEAXI@Z 000000018000cd00 f i * CIL library *:* CIL module *
 0001:0000bd00       ??_GObjectWrap@node@@UEAAPEAXI@Z 000000018000cd00 f i image.obj
 0001:0000beb0       ?Set@Nan@@YA?AV?$Maybe@_N@v8@@V?$Local@VObject@v8@@@3@V?$Local@VValue@v8@@@3@1@Z 000000018000ceb0 f i image.obj
 0001:0000bf40       ?Get@Nan@@YA?AV?$MaybeLocal@VValue@v8@@@v8@@V?$Local@VObject@v8@@@3@V?$Local@VValue@v8@@@3@@Z 000000018000cf40 f i image.obj
 0001:0000bfd0       ?SetPrototypeMethod@Nan@@YAXV?$Local@VFunctionTemplate@v8@@@v8@@PEBDP6AXAEBV?$FunctionCallbackInfo@VValue@v8@@@1@@Z@Z 000000018000cfd0 f i image.obj
 0001:0000c0d0       ?SetAccessor@Nan@@YAXV?$Local@VObjectTemplate@v8@@@v8@@V?$Local@VString@v8@@@3@P6AX1AEBV?$PropertyCallbackInfo@VValue@v8@@@1@@ZP6AX1V?$Local@VValue@v8@@@3@AEBV?$PropertyCallbackInfo@X@1@@Z4W4AccessControl@3@W4PropertyAttribute@3@V?$Local@VAccessorSignature@v8@@@3@@Z 000000018000d0d0 f i image.obj
 0001:0000c2e0       ?Initialize@Image@@SAXV?$Local@VObject@v8@@@v8@@@Z 000000018000d2e0 f   image.obj
 0001:0000c5c0       ?New@Image@@KAXAEBV?$FunctionCallbackInfo@VValue@v8@@@Nan@@@Z 000000018000d5c0 f   image.obj
 0001:0000c680       ??_EImage@@MEAAPEAXI@Z     000000018000d680 f i * CIL library *:* CIL module *
 0001:0000c680       ??_GImage@@MEAAPEAXI@Z     000000018000d680 f i image.obj
 0001:0000c6c0       ?WidthGetter@Image@@KAXV?$Local@VString@v8@@@v8@@AEBV?$PropertyCallbackInfo@VValue@v8@@@Nan@@@Z 000000018000d6c0 f   image.obj
 0001:0000c770       ?HeightGetter@Image@@KAXV?$Local@VString@v8@@@v8@@AEBV?$PropertyCallbackInfo@VValue@v8@@@Nan@@@Z 000000018000d770 f   image.obj
 0001:0000c820       ?PitchGetter@Image@@KAXV?$Local@VString@v8@@@v8@@AEBV?$PropertyCallbackInfo@VValue@v8@@@Nan@@@Z 000000018000d820 f   image.obj
 0001:0000c8d0       ?SrcGetter@Image@@KAXV?$Local@VString@v8@@@v8@@AEBV?$PropertyCallbackInfo@VValue@v8@@@Nan@@@Z 000000018000d8d0 f   image.obj
 0001:0000c980       ?SrcSetter@Image@@KAXV?$Local@VString@v8@@@v8@@V?$Local@VValue@v8@@@3@AEBV?$PropertyCallbackInfo@X@Nan@@@Z 000000018000d980 f   image.obj
 0001:0000cc80       ?save@Image@@KAXAEBV?$FunctionCallbackInfo@VValue@v8@@@Nan@@@Z 000000018000dc80 f   image.obj
 0001:0000cf70       ??1Image@@MEAA@XZ          000000018000df70 f   image.obj
 0001:0000cff0       ?AtExit@Image@@SAXXZ       000000018000dff0 f   image.obj
 0001:0000d060       ?_Reserve@?$vector@PEAVImage@@V?$allocator@PEAVImage@@@std@@@std@@IEAAX_K@Z 000000018000e060 f i image.obj
 0001:0000d0f0       ?_Orphan_all@?$_Vector_alloc@U?$_Vec_base_types@PEAUGLObj@webgl@@V?$allocator@PEAUGLObj@webgl@@@std@@@std@@@std@@QEAAXXZ 000000018000e0f0 f i webgl.obj
 0001:0000d0f0       _guard_check_icall_nop     000000018000e0f0 f i LIBCMT:guard_support.obj
 0001:0000d0f0       ?_Destroy@?$vector@PEAUGLObj@webgl@@V?$allocator@PEAUGLObj@webgl@@@std@@@std@@IEAAXPEAPEAUGLObj@webgl@@0@Z 000000018000e0f0 f i webgl.obj
 0001:0000d0f0       __except_validate_context_record 000000018000e0f0 f i libvcruntime:jbcxrval.obj
 0001:0000d0f0       ?_Orphan_all@?$_Vector_alloc@U?$_Vec_base_types@PEAVImage@@V?$allocator@PEAVImage@@@std@@@std@@@std@@QEAAXXZ 000000018000e0f0 f i image.obj
 0001:0000d0f0       ?_Destroy@?$vector@PEAVImage@@V?$allocator@PEAVImage@@@std@@@std@@IEAAXPEAPEAVImage@@0@Z 000000018000e0f0 f i image.obj
 0001:0000d100       ?deallocate@?$_Wrap_alloc@V?$allocator@PEAVImage@@@std@@@std@@QEAAXPEAPEAVImage@@_K@Z 000000018000e100 f i image.obj
 0001:0000d100       ?deallocate@?$_Wrap_alloc@V?$allocator@PEAUGLObj@webgl@@@std@@@std@@QEAAXPEAPEAUGLObj@webgl@@_K@Z 000000018000e100 f i webgl.obj
 0001:0000d170       ?_Reallocate@?$vector@PEAVImage@@V?$allocator@PEAVImage@@@std@@@std@@IEAAX_K@Z 000000018000e170 f i image.obj
 0001:0000d260       ??$Unwrap@VImage@@@ObjectWrap@node@@SAPEAVImage@@V?$Local@VObject@v8@@@v8@@@Z 000000018000e260 f i image.obj
 0001:0000d2e0       ??0?$_Wrap_alloc@V?$allocator@PEAVImage@@@std@@@std@@QEAA@XZ 000000018000e2e0 f i image.obj
 0001:0000d2f0       __local_stdio_printf_options 000000018000e2f0 f i webgl.obj
 0001:0000d300       fprintf                    000000018000e300 f i webgl.obj
 0001:0000d350       ?ThrowError@Nan@@YAXPEBD@Z 000000018000e350 f i webgl.obj
 0001:0000d3f0       ?ThrowTypeError@Nan@@YAXPEBD@Z 000000018000e3f0 f i webgl.obj
 0001:0000d490       ?getImageData@webgl@@YAPEAXV?$Local@VValue@v8@@@v8@@@Z 000000018000e490 f i webgl.obj
 0001:0000d570       ?Init@webgl@@YAXAEBV?$FunctionCallbackInfo@VValue@v8@@@Nan@@@Z 000000018000e570 f   webgl.obj
 0001:0000d640       ?Uniform1f@webgl@@YAXAEBV?$FunctionCallbackInfo@VValue@v8@@@Nan@@@Z 000000018000e640 f   webgl.obj
 0001:0000d700       ?Uniform2f@webgl@@YAXAEBV?$FunctionCallbackInfo@VValue@v8@@@Nan@@@Z 000000018000e700 f   webgl.obj
 0001:0000d800       ?Uniform3f@webgl@@YAXAEBV?$FunctionCallbackInfo@VValue@v8@@@Nan@@@Z 000000018000e800 f   webgl.obj
 0001:0000d930       ?Uniform4f@webgl@@YAXAEBV?$FunctionCallbackInfo@VValue@v8@@@Nan@@@Z 000000018000e930 f   webgl.obj
 0001:0000dab0       ?Uniform1i@webgl@@YAXAEBV?$FunctionCallbackInfo@VValue@v8@@@Nan@@@Z 000000018000eab0 f   webgl.obj
 0001:0000db70       ?Uniform2i@webgl@@YAXAEBV?$FunctionCallbackInfo@VValue@v8@@@Nan@@@Z 000000018000eb70 f   webgl.obj
 0001:0000dc60       ?Uniform3i@webgl@@YAXAEBV?$FunctionCallbackInfo@VValue@v8@@@Nan@@@Z 000000018000ec60 f   webgl.obj
 0001:0000dd90       ?Uniform4i@webgl@@YAXAEBV?$FunctionCallbackInfo@VValue@v8@@@Nan@@@Z 000000018000ed90 f   webgl.obj
 0001:0000def0       ?Uniform1fv@webgl@@YAXAEBV?$FunctionCallbackInfo@VValue@v8@@@Nan@@@Z 000000018000eef0 f   webgl.obj
 0001:0000dfc0       ?Uniform2fv@webgl@@YAXAEBV?$FunctionCallbackInfo@VValue@v8@@@Nan@@@Z 000000018000efc0 f   webgl.obj
 0001:0000e0a0       ?Uniform3fv@webgl@@YAXAEBV?$FunctionCallbackInfo@VValue@v8@@@Nan@@@Z 000000018000f0a0 f   webgl.obj
 0001:0000e180       ?Uniform4fv@webgl@@YAXAEBV?$FunctionCallbackInfo@VValue@v8@@@Nan@@@Z 000000018000f180 f   webgl.obj
 0001:0000e260       ?Uniform1iv@webgl@@YAXAEBV?$FunctionCallbackInfo@VValue@v8@@@Nan@@@Z 000000018000f260 f   webgl.obj
 0001:0000e330       ?Uniform2iv@webgl@@YAXAEBV?$FunctionCallbackInfo@VValue@v8@@@Nan@@@Z 000000018000f330 f   webgl.obj
 0001:0000e410       ?Uniform3iv@webgl@@YAXAEBV?$FunctionCallbackInfo@VValue@v8@@@Nan@@@Z 000000018000f410 f   webgl.obj
 0001:0000e4f0       ?Uniform4iv@webgl@@YAXAEBV?$FunctionCallbackInfo@VValue@v8@@@Nan@@@Z 000000018000f4f0 f   webgl.obj
 0001:0000e5d0       ?PixelStorei@webgl@@YAXAEBV?$FunctionCallbackInfo@VValue@v8@@@Nan@@@Z 000000018000f5d0 f   webgl.obj
 0001:0000e690       ?BindAttribLocation@webgl@@YAXAEBV?$FunctionCallbackInfo@VValue@v8@@@Nan@@@Z 000000018000f690 f   webgl.obj
 0001:0000e7a0       ?GetError@webgl@@YAXAEBV?$FunctionCallbackInfo@VValue@v8@@@Nan@@@Z 000000018000f7a0 f   webgl.obj
 0001:0000e840       ?DrawArrays@webgl@@YAXAEBV?$FunctionCallbackInfo@VValue@v8@@@Nan@@@Z 000000018000f840 f   webgl.obj
 0001:0000e930       ?UniformMatrix2fv@webgl@@YAXAEBV?$FunctionCallbackInfo@VValue@v8@@@Nan@@@Z 000000018000f930 f   webgl.obj
 0001:0000ea50       ?UniformMatrix3fv@webgl@@YAXAEBV?$FunctionCallbackInfo@VValue@v8@@@Nan@@@Z 000000018000fa50 f   webgl.obj
 0001:0000eb80       ?UniformMatrix4fv@webgl@@YAXAEBV?$FunctionCallbackInfo@VValue@v8@@@Nan@@@Z 000000018000fb80 f   webgl.obj
 0001:0000eca0       ?GenerateMipmap@webgl@@YAXAEBV?$FunctionCallbackInfo@VValue@v8@@@Nan@@@Z 000000018000fca0 f   webgl.obj
 0001:0000ed30       ?GetAttribLocation@webgl@@YAXAEBV?$FunctionCallbackInfo@VValue@v8@@@Nan@@@Z 000000018000fd30 f   webgl.obj
 0001:0000ee30       ?DepthFunc@webgl@@YAXAEBV?$FunctionCallbackInfo@VValue@v8@@@Nan@@@Z 000000018000fe30 f   webgl.obj
 0001:0000eec0       ?Viewport@webgl@@YAXAEBV?$FunctionCallbackInfo@VValue@v8@@@Nan@@@Z 000000018000fec0 f   webgl.obj
 0001:0000efe0       ?CreateShader@webgl@@YAXAEBV?$FunctionCallbackInfo@VValue@v8@@@Nan@@@Z 000000018000ffe0 f   webgl.obj
 0001:0000f0b0       ?ShaderSource@webgl@@YAXAEBV?$FunctionCallbackInfo@VValue@v8@@@Nan@@@Z 00000001800100b0 f   webgl.obj
 0001:0000f1a0       ?CompileShader@webgl@@YAXAEBV?$FunctionCallbackInfo@VValue@v8@@@Nan@@@Z 00000001800101a0 f   webgl.obj
 0001:0000f230       ?FrontFace@webgl@@YAXAEBV?$FunctionCallbackInfo@VValue@v8@@@Nan@@@Z 0000000180010230 f   webgl.obj
 0001:0000f2c0       ?GetShaderParameter@webgl@@YAXAEBV?$FunctionCallbackInfo@VValue@v8@@@Nan@@@Z 00000001800102c0 f   webgl.obj
 0001:0000f450       ?GetShaderInfoLog@webgl@@YAXAEBV?$FunctionCallbackInfo@VValue@v8@@@Nan@@@Z 0000000180010450 f   webgl.obj
 0001:0000f550       ?CreateProgram@webgl@@YAXAEBV?$FunctionCallbackInfo@VValue@v8@@@Nan@@@Z 0000000180010550 f   webgl.obj
 0001:0000f600       ?AttachShader@webgl@@YAXAEBV?$FunctionCallbackInfo@VValue@v8@@@Nan@@@Z 0000000180010600 f   webgl.obj
 0001:0000f6c0       ?LinkProgram@webgl@@YAXAEBV?$FunctionCallbackInfo@VValue@v8@@@Nan@@@Z 00000001800106c0 f   webgl.obj
 0001:0000f750       ?GetProgramParameter@webgl@@YAXAEBV?$FunctionCallbackInfo@VValue@v8@@@Nan@@@Z 0000000180010750 f   webgl.obj
 0001:0000f8e0       ?GetUniformLocation@webgl@@YAXAEBV?$FunctionCallbackInfo@VValue@v8@@@Nan@@@Z 00000001800108e0 f   webgl.obj
 0001:0000f9e0       ?ClearColor@webgl@@YAXAEBV?$FunctionCallbackInfo@VValue@v8@@@Nan@@@Z 00000001800109e0 f   webgl.obj
 0001:0000fb20       ?ClearDepth@webgl@@YAXAEBV?$FunctionCallbackInfo@VValue@v8@@@Nan@@@Z 0000000180010b20 f   webgl.obj
 0001:0000fbb0       ?Disable@webgl@@YAXAEBV?$FunctionCallbackInfo@VValue@v8@@@Nan@@@Z 0000000180010bb0 f   webgl.obj
 0001:0000fc40       ?Enable@webgl@@YAXAEBV?$FunctionCallbackInfo@VValue@v8@@@Nan@@@Z 0000000180010c40 f   webgl.obj
 0001:0000fcd0       ?CreateTexture@webgl@@YAXAEBV?$FunctionCallbackInfo@VValue@v8@@@Nan@@@Z 0000000180010cd0 f   webgl.obj
 0001:0000fd80       ?BindTexture@webgl@@YAXAEBV?$FunctionCallbackInfo@VValue@v8@@@Nan@@@Z 0000000180010d80 f   webgl.obj
 0001:0000fe80       ?TexImage2D@webgl@@YAXAEBV?$FunctionCallbackInfo@VValue@v8@@@Nan@@@Z 0000000180010e80 f   webgl.obj
 0001:00010090       ?TexParameteri@webgl@@YAXAEBV?$FunctionCallbackInfo@VValue@v8@@@Nan@@@Z 0000000180011090 f   webgl.obj
 0001:00010180       ?TexParameterf@webgl@@YAXAEBV?$FunctionCallbackInfo@VValue@v8@@@Nan@@@Z 0000000180011180 f   webgl.obj
 0001:00010270       ?Clear@webgl@@YAXAEBV?$FunctionCallbackInfo@VValue@v8@@@Nan@@@Z 0000000180011270 f   webgl.obj
 0001:00010300       ?UseProgram@webgl@@YAXAEBV?$FunctionCallbackInfo@VValue@v8@@@Nan@@@Z 0000000180011300 f   webgl.obj
 0001:00010390       ?CreateBuffer@webgl@@YAXAEBV?$FunctionCallbackInfo@VValue@v8@@@Nan@@@Z 0000000180011390 f   webgl.obj
 0001:00010440       ?BindBuffer@webgl@@YAXAEBV?$FunctionCallbackInfo@VValue@v8@@@Nan@@@Z 0000000180011440 f   webgl.obj
 0001:00010500       ?CreateFramebuffer@webgl@@YAXAEBV?$FunctionCallbackInfo@VValue@v8@@@Nan@@@Z 0000000180011500 f   webgl.obj
 0001:000105b0       ?BindFramebuffer@webgl@@YAXAEBV?$FunctionCallbackInfo@VValue@v8@@@Nan@@@Z 00000001800115b0 f   webgl.obj
 0001:000106b0       ?FramebufferTexture2D@webgl@@YAXAEBV?$FunctionCallbackInfo@VValue@v8@@@Nan@@@Z 00000001800116b0 f   webgl.obj
 0001:00010810       ?BufferData@webgl@@YAXAEBV?$FunctionCallbackInfo@VValue@v8@@@Nan@@@Z 0000000180011810 f   webgl.obj
 0001:00010a00       ?BufferSubData@webgl@@YAXAEBV?$FunctionCallbackInfo@VValue@v8@@@Nan@@@Z 0000000180011a00 f   webgl.obj
 0001:00010b30       ?BlendEquation@webgl@@YAXAEBV?$FunctionCallbackInfo@VValue@v8@@@Nan@@@Z 0000000180011b30 f   webgl.obj
 0001:00010bc0       ?BlendFunc@webgl@@YAXAEBV?$FunctionCallbackInfo@VValue@v8@@@Nan@@@Z 0000000180011bc0 f   webgl.obj
 0001:00010c80       ?EnableVertexAttribArray@webgl@@YAXAEBV?$FunctionCallbackInfo@VValue@v8@@@Nan@@@Z 0000000180011c80 f   webgl.obj
 0001:00010d10       ?VertexAttribPointer@webgl@@YAXAEBV?$FunctionCallbackInfo@VValue@v8@@@Nan@@@Z 0000000180011d10 f   webgl.obj
 0001:00010ea0       ?ActiveTexture@webgl@@YAXAEBV?$FunctionCallbackInfo@VValue@v8@@@Nan@@@Z 0000000180011ea0 f   webgl.obj
 0001:00010f30       ?DrawElements@webgl@@YAXAEBV?$FunctionCallbackInfo@VValue@v8@@@Nan@@@Z 0000000180011f30 f   webgl.obj
 0001:00011050       ?Flush@webgl@@YAXAEBV?$FunctionCallbackInfo@VValue@v8@@@Nan@@@Z 0000000180012050 f   webgl.obj
 0001:000110b0       ?Finish@webgl@@YAXAEBV?$FunctionCallbackInfo@VValue@v8@@@Nan@@@Z 00000001800120b0 f   webgl.obj
 0001:00011110       ?VertexAttrib1f@webgl@@YAXAEBV?$FunctionCallbackInfo@VValue@v8@@@Nan@@@Z 0000000180012110 f   webgl.obj
 0001:000111d0       ?VertexAttrib2f@webgl@@YAXAEBV?$FunctionCallbackInfo@VValue@v8@@@Nan@@@Z 00000001800121d0 f   webgl.obj
 0001:000112d0       ?VertexAttrib3f@webgl@@YAXAEBV?$FunctionCallbackInfo@VValue@v8@@@Nan@@@Z 00000001800122d0 f   webgl.obj
 0001:00011400       ?VertexAttrib4f@webgl@@YAXAEBV?$FunctionCallbackInfo@VValue@v8@@@Nan@@@Z 0000000180012400 f   webgl.obj
 0001:00011580       ?VertexAttrib1fv@webgl@@YAXAEBV?$FunctionCallbackInfo@VValue@v8@@@Nan@@@Z 0000000180012580 f   webgl.obj
 0001:000116c0       ?VertexAttrib2fv@webgl@@YAXAEBV?$FunctionCallbackInfo@VValue@v8@@@Nan@@@Z 00000001800126c0 f   webgl.obj
 0001:00011800       ?VertexAttrib3fv@webgl@@YAXAEBV?$FunctionCallbackInfo@VValue@v8@@@Nan@@@Z 0000000180012800 f   webgl.obj
 0001:00011940       ?VertexAttrib4fv@webgl@@YAXAEBV?$FunctionCallbackInfo@VValue@v8@@@Nan@@@Z 0000000180012940 f   webgl.obj
 0001:00011a80       ?BlendColor@webgl@@YAXAEBV?$FunctionCallbackInfo@VValue@v8@@@Nan@@@Z 0000000180012a80 f   webgl.obj
 0001:00011bc0       ?BlendEquationSeparate@webgl@@YAXAEBV?$FunctionCallbackInfo@VValue@v8@@@Nan@@@Z 0000000180012bc0 f   webgl.obj
 0001:00011c80       ?BlendFuncSeparate@webgl@@YAXAEBV?$FunctionCallbackInfo@VValue@v8@@@Nan@@@Z 0000000180012c80 f   webgl.obj
 0001:00011db0       ?ClearStencil@webgl@@YAXAEBV?$FunctionCallbackInfo@VValue@v8@@@Nan@@@Z 0000000180012db0 f   webgl.obj
 0001:00011e40       ?ColorMask@webgl@@YAXAEBV?$FunctionCallbackInfo@VValue@v8@@@Nan@@@Z 0000000180012e40 f   webgl.obj
 0001:00011f70       ?CopyTexImage2D@webgl@@YAXAEBV?$FunctionCallbackInfo@VValue@v8@@@Nan@@@Z 0000000180012f70 f   webgl.obj
 0001:00012150       ?CopyTexSubImage2D@webgl@@YAXAEBV?$FunctionCallbackInfo@VValue@v8@@@Nan@@@Z 0000000180013150 f   webgl.obj
 0001:00012330       ?CullFace@webgl@@YAXAEBV?$FunctionCallbackInfo@VValue@v8@@@Nan@@@Z 0000000180013330 f   webgl.obj
 0001:000123c0       ?DepthMask@webgl@@YAXAEBV?$FunctionCallbackInfo@VValue@v8@@@Nan@@@Z 00000001800133c0 f   webgl.obj
 0001:00012450       ?DepthRange@webgl@@YAXAEBV?$FunctionCallbackInfo@VValue@v8@@@Nan@@@Z 0000000180013450 f   webgl.obj
 0001:00012520       ?DisableVertexAttribArray@webgl@@YAXAEBV?$FunctionCallbackInfo@VValue@v8@@@Nan@@@Z 0000000180013520 f   webgl.obj
 0001:000125b0       ?Hint@webgl@@YAXAEBV?$FunctionCallbackInfo@VValue@v8@@@Nan@@@Z 00000001800135b0 f   webgl.obj
 0001:00012670       ?IsEnabled@webgl@@YAXAEBV?$FunctionCallbackInfo@VValue@v8@@@Nan@@@Z 0000000180013670 f   webgl.obj
 0001:00012710       ?LineWidth@webgl@@YAXAEBV?$FunctionCallbackInfo@VValue@v8@@@Nan@@@Z 0000000180013710 f   webgl.obj
 0001:000127a0       ?PolygonOffset@webgl@@YAXAEBV?$FunctionCallbackInfo@VValue@v8@@@Nan@@@Z 00000001800137a0 f   webgl.obj
 0001:00012870       ?Scissor@webgl@@YAXAEBV?$FunctionCallbackInfo@VValue@v8@@@Nan@@@Z 0000000180013870 f   webgl.obj
 0001:00012990       ?StencilFunc@webgl@@YAXAEBV?$FunctionCallbackInfo@VValue@v8@@@Nan@@@Z 0000000180013990 f   webgl.obj
 0001:00012a80       ?StencilFuncSeparate@webgl@@YAXAEBV?$FunctionCallbackInfo@VValue@v8@@@Nan@@@Z 0000000180013a80 f   webgl.obj
 0001:00012bb0       ?StencilMask@webgl@@YAXAEBV?$FunctionCallbackInfo@VValue@v8@@@Nan@@@Z 0000000180013bb0 f   webgl.obj
 0001:00012c40       ?StencilMaskSeparate@webgl@@YAXAEBV?$FunctionCallbackInfo@VValue@v8@@@Nan@@@Z 0000000180013c40 f   webgl.obj
 0001:00012d00       ?StencilOp@webgl@@YAXAEBV?$FunctionCallbackInfo@VValue@v8@@@Nan@@@Z 0000000180013d00 f   webgl.obj
 0001:00012df0       ?StencilOpSeparate@webgl@@YAXAEBV?$FunctionCallbackInfo@VValue@v8@@@Nan@@@Z 0000000180013df0 f   webgl.obj
 0001:00012f20       ?BindRenderbuffer@webgl@@YAXAEBV?$FunctionCallbackInfo@VValue@v8@@@Nan@@@Z 0000000180013f20 f   webgl.obj
 0001:00013020       ?CreateRenderbuffer@webgl@@YAXAEBV?$FunctionCallbackInfo@VValue@v8@@@Nan@@@Z 0000000180014020 f   webgl.obj
 0001:000130d0       ?DeleteBuffer@webgl@@YAXAEBV?$FunctionCallbackInfo@VValue@v8@@@Nan@@@Z 00000001800140d0 f   webgl.obj
 0001:00013170       ?DeleteFramebuffer@webgl@@YAXAEBV?$FunctionCallbackInfo@VValue@v8@@@Nan@@@Z 0000000180014170 f   webgl.obj
 0001:00013210       ?DeleteProgram@webgl@@YAXAEBV?$FunctionCallbackInfo@VValue@v8@@@Nan@@@Z 0000000180014210 f   webgl.obj
 0001:000132a0       ?DeleteRenderbuffer@webgl@@YAXAEBV?$FunctionCallbackInfo@VValue@v8@@@Nan@@@Z 00000001800142a0 f   webgl.obj
 0001:00013340       ?DeleteShader@webgl@@YAXAEBV?$FunctionCallbackInfo@VValue@v8@@@Nan@@@Z 0000000180014340 f   webgl.obj
 0001:000133d0       ?DeleteTexture@webgl@@YAXAEBV?$FunctionCallbackInfo@VValue@v8@@@Nan@@@Z 00000001800143d0 f   webgl.obj
 0001:00013470       ?DetachShader@webgl@@YAXAEBV?$FunctionCallbackInfo@VValue@v8@@@Nan@@@Z 0000000180014470 f   webgl.obj
 0001:00013530       ?FramebufferRenderbuffer@webgl@@YAXAEBV?$FunctionCallbackInfo@VValue@v8@@@Nan@@@Z 0000000180014530 f   webgl.obj
 0001:00013660       ?GetVertexAttribOffset@webgl@@YAXAEBV?$FunctionCallbackInfo@VValue@v8@@@Nan@@@Z 0000000180014660 f   webgl.obj
 0001:00013760       ?IsBuffer@webgl@@YAXAEBV?$FunctionCallbackInfo@VValue@v8@@@Nan@@@Z 0000000180014760 f   webgl.obj
 0001:00013800       ?IsFramebuffer@webgl@@YAXAEBV?$FunctionCallbackInfo@VValue@v8@@@Nan@@@Z 0000000180014800 f   webgl.obj
 0001:000138a0       ?IsProgram@webgl@@YAXAEBV?$FunctionCallbackInfo@VValue@v8@@@Nan@@@Z 00000001800148a0 f   webgl.obj
 0001:00013940       ?IsRenderbuffer@webgl@@YAXAEBV?$FunctionCallbackInfo@VValue@v8@@@Nan@@@Z 0000000180014940 f   webgl.obj
 0001:000139e0       ?IsShader@webgl@@YAXAEBV?$FunctionCallbackInfo@VValue@v8@@@Nan@@@Z 00000001800149e0 f   webgl.obj
 0001:00013a80       ?IsTexture@webgl@@YAXAEBV?$FunctionCallbackInfo@VValue@v8@@@Nan@@@Z 0000000180014a80 f   webgl.obj
 0001:00013b20       ?RenderbufferStorage@webgl@@YAXAEBV?$FunctionCallbackInfo@VValue@v8@@@Nan@@@Z 0000000180014b20 f   webgl.obj
 0001:00013c50       ?GetShaderSource@webgl@@YAXAEBV?$FunctionCallbackInfo@VValue@v8@@@Nan@@@Z 0000000180014c50 f   webgl.obj
 0001:00013d60       ?ValidateProgram@webgl@@YAXAEBV?$FunctionCallbackInfo@VValue@v8@@@Nan@@@Z 0000000180014d60 f   webgl.obj
 0001:00013df0       ?TexSubImage2D@webgl@@YAXAEBV?$FunctionCallbackInfo@VValue@v8@@@Nan@@@Z 0000000180014df0 f   webgl.obj
 0001:00014000       ?ReadPixels@webgl@@YAXAEBV?$FunctionCallbackInfo@VValue@v8@@@Nan@@@Z 0000000180015000 f   webgl.obj
 0001:000141c0       ?GetTexParameter@webgl@@YAXAEBV?$FunctionCallbackInfo@VValue@v8@@@Nan@@@Z 00000001800151c0 f   webgl.obj
 0001:000142b0       ?GetActiveAttrib@webgl@@YAXAEBV?$FunctionCallbackInfo@VValue@v8@@@Nan@@@Z 00000001800152b0 f   webgl.obj
 0001:00014570       ?GetActiveUniform@webgl@@YAXAEBV?$FunctionCallbackInfo@VValue@v8@@@Nan@@@Z 0000000180015570 f   webgl.obj
 0001:00014830       ?GetAttachedShaders@webgl@@YAXAEBV?$FunctionCallbackInfo@VValue@v8@@@Nan@@@Z 0000000180015830 f   webgl.obj
 0001:000149a0       ?GetParameter@webgl@@YAXAEBV?$FunctionCallbackInfo@VValue@v8@@@Nan@@@Z 00000001800159a0 f   webgl.obj
 0001:00015200       ?GetBufferParameter@webgl@@YAXAEBV?$FunctionCallbackInfo@VValue@v8@@@Nan@@@Z 0000000180016200 f   webgl.obj
 0001:000152f0       ?GetFramebufferAttachmentParameter@webgl@@YAXAEBV?$FunctionCallbackInfo@VValue@v8@@@Nan@@@Z 00000001800162f0 f   webgl.obj
 0001:00015400       ?GetProgramInfoLog@webgl@@YAXAEBV?$FunctionCallbackInfo@VValue@v8@@@Nan@@@Z 0000000180016400 f   webgl.obj
 0001:00015500       ?GetRenderbufferParameter@webgl@@YAXAEBV?$FunctionCallbackInfo@VValue@v8@@@Nan@@@Z 0000000180016500 f   webgl.obj
 0001:00015600       ?GetVertexAttrib@webgl@@YAXAEBV?$FunctionCallbackInfo@VValue@v8@@@Nan@@@Z 0000000180016600 f   webgl.obj
 0001:00015900       ?GetSupportedExtensions@webgl@@YAXAEBV?$FunctionCallbackInfo@VValue@v8@@@Nan@@@Z 0000000180016900 f   webgl.obj
 0001:000159b0       ?GetExtension@webgl@@YAXAEBV?$FunctionCallbackInfo@VValue@v8@@@Nan@@@Z 00000001800169b0 f   webgl.obj
 0001:00015ae0       ?CheckFramebufferStatus@webgl@@YAXAEBV?$FunctionCallbackInfo@VValue@v8@@@Nan@@@Z 0000000180016ae0 f   webgl.obj
 0001:00015ba0       ?registerGLObj@webgl@@YAXW4GLObjectType@1@I@Z 0000000180016ba0 f   webgl.obj
 0001:00015c70       ?AtExit@webgl@@YAXXZ       0000000180016c70 f   webgl.obj
 0001:00015db0       ?_Reserve@?$vector@PEAUGLObj@webgl@@V?$allocator@PEAUGLObj@webgl@@@std@@@std@@IEAAX_K@Z 0000000180016db0 f i webgl.obj
 0001:00015e40       ?_Reallocate@?$vector@PEAUGLObj@webgl@@V?$allocator@PEAUGLObj@webgl@@@std@@@std@@IEAAX_K@Z 0000000180016e40 f i webgl.obj
 0001:00015f30       ??$getArrayData@E@webgl@@YAPEAEV?$Local@VValue@v8@@@v8@@PEAH@Z 0000000180016f30 f i webgl.obj
 0001:00016000       ??$getArrayData@M@webgl@@YAPEAMV?$Local@VValue@v8@@@v8@@PEAH@Z 0000000180017000 f i webgl.obj
 0001:00016000       ??$getArrayData@H@webgl@@YAPEAHV?$Local@VValue@v8@@@v8@@PEAH@Z 0000000180017000 f i webgl.obj
 0001:000160d0       ??0?$_Wrap_alloc@V?$allocator@PEAUGLObj@webgl@@@std@@@std@@QEAA@XZ 00000001800170d0 f i webgl.obj
 0001:0001612c       __imp_load_?Value@External@v8@@QEBAPEAXXZ 000000018001712c f   node:node.exe
 0001:00016138       __tailMerge_node_exe       0000000180017138 f i node:node.exe
 0001:000161b1       __imp_load_?New@External@v8@@SA?AV?$Local@VExternal@v8@@@2@PEAVIsolate@2@PEAX@Z 00000001800171b1 f   node:node.exe
 0001:000161bd       __imp_load_?New@Integer@v8@@SA?AV?$Local@VInteger@v8@@@2@PEAVIsolate@2@H@Z 00000001800171bd f   node:node.exe
 0001:000161c9       __imp_load_?GetCurrentContext@Isolate@v8@@QEAA?AV?$Local@VContext@v8@@@2@XZ 00000001800171c9 f   node:node.exe
 0001:000161d5       __imp_load_?GetCurrent@Isolate@v8@@SAPEAV12@XZ 00000001800171d5 f   node:node.exe
 0001:000161e1       __imp_load_?CreateHandle@HandleScope@v8@@KAPEAPEAVObject@internal@2@PEAVIsolate@42@PEAV342@@Z 00000001800171e1 f   node:node.exe
 0001:000161ed       __imp_load_?CreateHandle@HandleScope@v8@@CAPEAPEAVObject@internal@2@PEAVHeapObject@42@PEAV342@@Z 00000001800171ed f   node:node.exe
 0001:000161f9       __imp_load_??1HandleScope@v8@@QEAA@XZ 00000001800171f9 f   node:node.exe
 0001:00016205       __imp_load_??0HandleScope@v8@@QEAA@PEAVIsolate@1@@Z 0000000180017205 f   node:node.exe
 0001:00016211       __imp_load_?SetClassName@FunctionTemplate@v8@@QEAAXV?$Local@VString@v8@@@2@@Z 0000000180017211 f   node:node.exe
 0001:0001621d       __imp_load_?GetFunction@FunctionTemplate@v8@@QEAA?AV?$MaybeLocal@VFunction@v8@@@2@V?$Local@VContext@v8@@@2@@Z 000000018001721d f   node:node.exe
 0001:00016229       __imp_load_?New@FunctionTemplate@v8@@SA?AV?$Local@VFunctionTemplate@v8@@@2@PEAVIsolate@2@P6AXAEBV?$FunctionCallbackInfo@VValue@v8@@@2@@ZV?$Local@VValue@v8@@@2@V?$Local@VSignature@v8@@@2@H@Z 0000000180017229 f   node:node.exe
 0001:00016235       __imp_load_?ToLocalEmpty@V8@v8@@CAXXZ 0000000180017235 f   node:node.exe
 0001:00016241       __imp_load_?ToInteger@Value@v8@@QEBA?AV?$MaybeLocal@VInteger@v8@@@2@V?$Local@VContext@v8@@@2@@Z 0000000180017241 f   node:node.exe
 0001:0001624d       __imp_load_?Escape@EscapableHandleScope@v8@@AEAAPEAPEAVObject@internal@2@PEAPEAV342@@Z 000000018001724d f   node:node.exe
 0001:00016259       __imp_load_??0EscapableHandleScope@v8@@QEAA@PEAVIsolate@1@@Z 0000000180017259 f   node:node.exe
 0001:00016265       __imp_load_?NewFromUtf8@String@v8@@SA?AV?$MaybeLocal@VString@v8@@@2@PEAVIsolate@2@PEBDW4NewStringType@2@H@Z 0000000180017265 f   node:node.exe
 0001:00016271       __imp_load_?SlowGetInternalField@Object@v8@@AEAA?AV?$Local@VValue@v8@@@2@H@Z 0000000180017271 f   node:node.exe
 0001:0001627d       __imp_load_?SetInternalField@Object@v8@@QEAAXHV?$Local@VValue@v8@@@2@@Z 000000018001727d f   node:node.exe
 0001:00016289       __imp_load_?ForceSet@Object@v8@@QEAA?AV?$Maybe@_N@2@V?$Local@VContext@v8@@@2@V?$Local@VValue@v8@@@2@1W4PropertyAttribute@2@@Z 0000000180017289 f   node:node.exe
 0001:00016295       __imp_load_?Set@Object@v8@@QEAA_NV?$Local@VValue@v8@@@2@0@Z 0000000180017295 f   node:node.exe
 0001:000162a1       __imp_load_?SetInternalFieldCount@ObjectTemplate@v8@@QEAAXH@Z 00000001800172a1 f   node:node.exe
 0001:000162ad       __imp_load_?NewInstance@ObjectTemplate@v8@@QEAA?AV?$MaybeLocal@VObject@v8@@@2@V?$Local@VContext@v8@@@2@@Z 00000001800172ad f   node:node.exe
 0001:000162b9       __imp_load_?New@ObjectTemplate@v8@@SA?AV?$Local@VObjectTemplate@v8@@@2@PEAVIsolate@2@V?$Local@VFunctionTemplate@v8@@@2@@Z 00000001800172b9 f   node:node.exe
 0001:000162c5       __imp_load_node_module_register 00000001800172c5 f   node:node.exe
 0001:000162d1       __imp_load_??1EscapableHandleScope@v8@@QEAA@XZ 00000001800172d1 f   node:node.exe
 0001:000162dd       __imp_load_?New@Signature@v8@@SA?AV?$Local@VSignature@v8@@@2@PEAVIsolate@2@V?$Local@VFunctionTemplate@v8@@@2@@Z 00000001800172dd f   node:node.exe
 0001:000162e9       __imp_load_?Set@Template@v8@@QEAAXV?$Local@VName@v8@@@2@V?$Local@VData@v8@@@2@W4PropertyAttribute@2@@Z 00000001800172e9 f   node:node.exe
 0001:000162f5       __imp_load_?PrototypeTemplate@FunctionTemplate@v8@@QEAA?AV?$Local@VObjectTemplate@v8@@@2@XZ 00000001800172f5 f   node:node.exe
 0001:00016301       __imp_load_?InstanceTemplate@FunctionTemplate@v8@@QEAA?AV?$Local@VObjectTemplate@v8@@@2@XZ 0000000180017301 f   node:node.exe
 0001:0001630d       __imp_load_?GetFunction@FunctionTemplate@v8@@QEAA?AV?$Local@VFunction@v8@@@2@XZ 000000018001730d f   node:node.exe
 0001:00016319       __imp_load_?ClearWeak@V8@v8@@CAPEAXPEAPEAVObject@internal@2@@Z 0000000180017319 f   node:node.exe
 0001:00016325       __imp_load_?MakeWeak@V8@v8@@CAXPEAPEAVObject@internal@2@PEAXP6AXAEBV?$WeakCallbackInfo@X@2@@ZW4WeakCallbackType@2@@Z 0000000180017325 f   node:node.exe
 0001:00016331       __imp_load_?DisposeGlobal@V8@v8@@CAXPEAPEAVObject@internal@2@@Z 0000000180017331 f   node:node.exe
 0001:0001633d       __imp_load_?GlobalizeReference@V8@v8@@CAPEAPEAVObject@internal@2@PEAVIsolate@42@PEAPEAV342@@Z 000000018001733d f   node:node.exe
 0001:00016349       __imp_load_?IsFunction@Value@v8@@QEBA_NXZ 0000000180017349 f   node:node.exe
 0001:00016355       __imp_load_?Value@Uint32@v8@@QEBAIXZ 0000000180017355 f   node:node.exe
 0001:00016361       __imp_load_?HasCaught@TryCatch@v8@@QEBA_NXZ 0000000180017361 f   node:node.exe
 0001:0001636d       __imp_load_??1TryCatch@v8@@QEAA@XZ 000000018001736d f   node:node.exe
 0001:00016379       __imp_load_??0TryCatch@v8@@QEAA@XZ 0000000180017379 f   node:node.exe
 0001:00016385       __imp_load_??1Utf8Value@String@v8@@QEAA@XZ 0000000180017385 f   node:node.exe
 0001:00016391       __imp_load_??0Utf8Value@String@v8@@QEAA@V?$Local@VValue@v8@@@2@@Z 0000000180017391 f   node:node.exe
 0001:0001639d       __imp_load_?SlowGetAlignedPointerFromInternalField@Object@v8@@AEAAPEAXH@Z 000000018001739d f   node:node.exe
 0001:000163a9       __imp_load_?SetAlignedPointerInInternalField@Object@v8@@QEAAXHPEAX@Z 00000001800173a9 f   node:node.exe
 0001:000163b5       __imp_load_?InternalFieldCount@Object@v8@@QEAAHXZ 00000001800173b5 f   node:node.exe
 0001:000163c1       __imp_load_?Get@Object@v8@@QEAA?AV?$MaybeLocal@VValue@v8@@@2@V?$Local@VContext@v8@@@2@V?$Local@VValue@v8@@@2@@Z 00000001800173c1 f   node:node.exe
 0001:000163cd       __imp_load_?Set@Object@v8@@QEAA?AV?$Maybe@_N@2@V?$Local@VContext@v8@@@2@V?$Local@VValue@v8@@@2@1@Z 00000001800173cd f   node:node.exe
 0001:000163d9       __imp_load_?Call@Function@v8@@QEAA?AV?$Local@VValue@v8@@@2@V32@HQEAV32@@Z 00000001800173d9 f   node:node.exe
 0001:000163e5       __imp_load_?SetAccessor@ObjectTemplate@v8@@QEAAXV?$Local@VName@v8@@@2@P6AX0AEBV?$PropertyCallbackInfo@VValue@v8@@@2@@ZP6AX0V?$Local@VValue@v8@@@2@AEBV?$PropertyCallbackInfo@X@2@@Z3W4AccessControl@2@W4PropertyAttribute@2@V?$Local@VAccessorSignature@v8@@@2@@Z 00000001800173e5 f   node:node.exe
 0001:000163f1       __imp_load_?FatalException@node@@YAXPEAVIsolate@v8@@AEBVTryCatch@3@@Z 00000001800173f1 f   node:node.exe
 0001:000163fd       __imp_load_?New@Buffer@node@@YA?AV?$MaybeLocal@VObject@v8@@@v8@@PEAVIsolate@4@_K@Z 00000001800173fd f   node:node.exe
 0001:00016409       __imp_load_?Data@Buffer@node@@YAPEADV?$Local@VValue@v8@@@v8@@@Z 0000000180017409 f   node:node.exe
 0001:00016415       __imp_load_?Data@Buffer@node@@YAPEADV?$Local@VObject@v8@@@v8@@@Z 0000000180017415 f   node:node.exe
 0001:00016421       __imp_load_?ToUint32@Value@v8@@QEBA?AV?$Local@VUint32@v8@@@2@XZ 0000000180017421 f   node:node.exe
 0001:0001642d       __imp_load_?ToString@Value@v8@@QEBA?AV?$Local@VString@v8@@@2@XZ 000000018001742d f   node:node.exe
 0001:00016439       __imp_load_?NewFromUnsigned@Integer@v8@@SA?AV?$Local@VInteger@v8@@@2@PEAVIsolate@2@I@Z 0000000180017439 f   node:node.exe
 0001:00016445       __imp_load_?ThrowException@Isolate@v8@@QEAA?AV?$Local@VValue@v8@@@2@V32@@Z 0000000180017445 f   node:node.exe
 0001:00016451       __imp_load_?ByteLength@ArrayBufferView@v8@@QEAA_KXZ 0000000180017451 f   node:node.exe
 0001:0001645d       __imp_load_?Buffer@ArrayBufferView@v8@@QEAA?AV?$Local@VArrayBuffer@v8@@@2@XZ 000000018001745d f   node:node.exe
 0001:00016469       __imp_load_?Error@Exception@v8@@SA?AV?$Local@VValue@v8@@@2@V?$Local@VString@v8@@@2@@Z 0000000180017469 f   node:node.exe
 0001:00016475       __imp_load_?TypeError@Exception@v8@@SA?AV?$Local@VValue@v8@@@2@V?$Local@VString@v8@@@2@@Z 0000000180017475 f   node:node.exe
 0001:00016481       __imp_load_?New@Array@v8@@SA?AV?$Local@VArray@v8@@@2@PEAVIsolate@2@H@Z 0000000180017481 f   node:node.exe
 0001:0001648d       __imp_load_?GetContents@ArrayBuffer@v8@@QEAA?AVContents@12@XZ 000000018001748d f   node:node.exe
 0001:00016499       __imp_load_?Int32Value@Value@v8@@QEBAHXZ 0000000180017499 f   node:node.exe
 0001:000164a5       __imp_load_?Uint32Value@Value@v8@@QEBAIXZ 00000001800174a5 f   node:node.exe
 0001:000164b1       __imp_load_?NumberValue@Value@v8@@QEBANXZ 00000001800174b1 f   node:node.exe
 0001:000164bd       __imp_load_?BooleanValue@Value@v8@@QEBA_NXZ 00000001800174bd f   node:node.exe
 0001:000164c9       __imp_load_?IsArrayBufferView@Value@v8@@QEBA_NXZ 00000001800174c9 f   node:node.exe
 0001:000164d5       __imp_load_?IsNumber@Value@v8@@QEBA_NXZ 00000001800174d5 f   node:node.exe
 0001:000164e1       __imp_load_?IsObject@Value@v8@@QEBA_NXZ 00000001800174e1 f   node:node.exe
 0001:000164ed       __imp_load_?IsArray@Value@v8@@QEBA_NXZ 00000001800174ed f   node:node.exe
 0001:000164f9       __imp_load_?New@Number@v8@@SA?AV?$Local@VNumber@v8@@@2@PEAVIsolate@2@N@Z 00000001800174f9 f   node:node.exe
 0001:00016505       __imp_load_?Set@Object@v8@@QEAA_NIV?$Local@VValue@v8@@@2@@Z 0000000180017505 f   node:node.exe
 0001:00016514       ??0bad_alloc@std@@QEAA@AEBV01@@Z 0000000180017514 f i libcpmt:xthrow.obj
 0001:00016554       ??0bad_alloc@std@@QEAA@XZ  0000000180017554 f i libcpmt:xthrow.obj
 0001:00016574       ??0exception@std@@QEAA@AEBV01@@Z 0000000180017574 f i libcpmt:xthrow.obj
 0001:000165ac       ??0length_error@std@@QEAA@AEBV01@@Z 00000001800175ac f i libcpmt:xthrow.obj
 0001:000165ec       ??0length_error@std@@QEAA@PEBD@Z 00000001800175ec f i libcpmt:xthrow.obj
 0001:00016638       ??0logic_error@std@@QEAA@AEBV01@@Z 0000000180017638 f i libcpmt:xthrow.obj
 0001:00016678       ??_Ebad_alloc@std@@UEAAPEAXI@Z 0000000180017678 f i libcpmt:xthrow.obj
 0001:00016678       ??_Glogic_error@std@@UEAAPEAXI@Z 0000000180017678 f i libcpmt:xthrow.obj
 0001:00016678       ??_Gbad_exception@std@@UEAAPEAXI@Z 0000000180017678 f i libvcruntime:frame.obj
 0001:00016678       ??_Elogic_error@std@@UEAAPEAXI@Z 0000000180017678 f i libcpmt:xthrow.obj
 0001:00016678       ??_Gbad_array_new_length@std@@UEAAPEAXI@Z 0000000180017678 f i LIBCMT:throw_bad_alloc.obj
 0001:00016678       ??_Ebad_array_new_length@std@@UEAAPEAXI@Z 0000000180017678 f i LIBCMT:throw_bad_alloc.obj
 0001:00016678       ??_Ebad_exception@std@@UEAAPEAXI@Z 0000000180017678 f i libvcruntime:frame.obj
 0001:00016678       ??_Eexception@std@@UEAAPEAXI@Z 0000000180017678 f i libcpmt:xthrow.obj
 0001:00016678       ??_Gbad_alloc@std@@UEAAPEAXI@Z 0000000180017678 f i libcpmt:xthrow.obj
 0001:00016678       ??_Elength_error@std@@UEAAPEAXI@Z 0000000180017678 f i libcpmt:xthrow.obj
 0001:00016678       ??_Gexception@std@@UEAAPEAXI@Z 0000000180017678 f i libcpmt:xthrow.obj
 0001:00016678       ??_Glength_error@std@@UEAAPEAXI@Z 0000000180017678 f i libcpmt:xthrow.obj
 0001:000166bc       ?_Xbad_alloc@std@@YAXXZ    00000001800176bc f   libcpmt:xthrow.obj
 0001:000166bc       ?__scrt_throw_std_bad_alloc@@YAXXZ 00000001800176bc f   LIBCMT:throw_bad_alloc.obj
 0001:000166dc       ?_Xlength_error@std@@YAXPEBD@Z 00000001800176dc f   libcpmt:xthrow.obj
 0001:00016700       ?what@exception@std@@UEBAPEBDXZ 0000000180017700 f i libcpmt:xthrow.obj
 0001:00016730       __security_check_cookie    0000000180017730 f   LIBCMT:_amdsecgs_.obj
 0001:00016754       __scrt_acquire_startup_lock 0000000180017754 f   LIBCMT:utility.obj
 0001:00016790       __scrt_dllmain_after_initialize_c 0000000180017790 f   LIBCMT:utility.obj
 0001:000167c4       __scrt_dllmain_before_initialize_c 00000001800177c4 f   LIBCMT:utility.obj
 0001:000167dc       __scrt_dllmain_crt_thread_attach 00000001800177dc f   LIBCMT:utility.obj
 0001:00016804       __scrt_dllmain_crt_thread_detach 0000000180017804 f   LIBCMT:utility.obj
 0001:0001681c       __scrt_dllmain_exception_filter 000000018001781c f   LIBCMT:utility.obj
 0001:00016880       __scrt_dllmain_uninitialize_c 0000000180017880 f   LIBCMT:utility.obj
 0001:000168b0       __scrt_dllmain_uninitialize_critical 00000001800178b0 f   LIBCMT:utility.obj
 0001:000168c4       __scrt_initialize_crt      00000001800178c4 f   LIBCMT:utility.obj
 0001:00016910       __scrt_initialize_onexit_tables 0000000180017910 f   LIBCMT:utility.obj
 0001:000169dc       __scrt_is_nonwritable_in_current_image 00000001800179dc f   LIBCMT:utility.obj
 0001:00016a78       __scrt_release_startup_lock 0000000180017a78 f   LIBCMT:utility.obj
 0001:00016a9c       __scrt_uninitialize_crt    0000000180017a9c f   LIBCMT:utility.obj
 0001:00016ac8       _onexit                    0000000180017ac8 f   LIBCMT:utility.obj
 0001:00016b18       atexit                     0000000180017b18 f   LIBCMT:utility.obj
 0001:00016b30       ??2@YAPEAX_K@Z             0000000180017b30 f   LIBCMT:new_scalar.obj
 0001:00016b6c       ??3@YAXPEAX@Z              0000000180017b6c f   LIBCMT:delete_scalar.obj
 0001:00016b74       ??3@YAXPEAX_K@Z            0000000180017b74 f   LIBCMT:delete_scalar_size.obj
 0001:00016b7c       ??_U@YAPEAX_K@Z            0000000180017b7c f   LIBCMT:new_array.obj
 0001:00016ed0       _DllMainCRTStartup         0000000180017ed0 f   LIBCMT:dll_dllmain.obj
 0001:00016f10       ??_Gtype_info@@UEAAPEAXI@Z 0000000180017f10 f i LIBCMT:std_type_info_static.obj
 0001:00016f10       ??_Etype_info@@UEAAPEAXI@Z 0000000180017f10 f i LIBCMT:std_type_info_static.obj
 0001:00016f3c       __raise_securityfailure    0000000180017f3c f   LIBCMT:gs_report.obj
 0001:00016f70       __report_gsfailure         0000000180017f70 f   LIBCMT:gs_report.obj
 0001:00017044       __report_rangecheckfailure 0000000180018044 f   LIBCMT:gs_report.obj
 0001:00017058       __report_securityfailure   0000000180018058 f   LIBCMT:gs_report.obj
 0001:000171d8       __isa_available_init       00000001800181d8 f   LIBCMT:_cpu_disp_.obj
 0001:000173a0       __scrt_is_ucrt_dll_in_use  00000001800183a0 f   LIBCMT:ucrt_detection.obj
 0001:000173ac       __crt_debugger_hook        00000001800183ac f   LIBCMT:utility_desktop.obj
 0001:000173b4       __scrt_fastfail            00000001800183b4 f   LIBCMT:utility_desktop.obj
 0001:000174fc       _guard_check_icall         00000001800184fc f i LIBCMT:checkcfg.obj
 0001:00017504       ??0bad_array_new_length@std@@QEAA@AEBV01@@Z 0000000180018504 f i LIBCMT:throw_bad_alloc.obj
 0001:00017544       ??0bad_array_new_length@std@@QEAA@XZ 0000000180018544 f i LIBCMT:throw_bad_alloc.obj
 0001:00017564       ?__scrt_throw_std_bad_array_new_length@@YAXXZ 0000000180018564 f   LIBCMT:throw_bad_alloc.obj
 0001:00017584       __security_init_cookie     0000000180018584 f   LIBCMT:gs_support.obj
 0001:00017630       DllMain                    0000000180018630 f   LIBCMT:dll_dllmain_stub.obj
 0001:00017630       _get_startup_argv_mode     0000000180018630 f   LIBCMT:argv_mode.obj
 0001:00017638       ?__scrt_initialize_type_info@@YAXXZ 0000000180018638 f   LIBCMT:tncleanup.obj
 0001:00017648       ?__scrt_uninitialize_type_info@@YAXXZ 0000000180018648 f   LIBCMT:tncleanup.obj
 0001:00017654       __local_stdio_scanf_options 0000000180018654 f i LIBCMT:default_local_stdio_options.obj
 0001:0001765c       __scrt_initialize_default_local_stdio_options 000000018001865c f   LIBCMT:default_local_stdio_options.obj
 0001:00017678       __scrt_get_dyn_tls_init_callback 0000000180018678 f   LIBCMT:dyn_tls_init.obj
 0001:00017680       _RTC_Initialize            0000000180018680 f   LIBCMT:_initsect_.obj
 0001:000176cc       _RTC_Terminate             00000001800186cc f   LIBCMT:_initsect_.obj
 0001:00017720       __DestructExceptionObject  0000000180018720 f   libvcruntime:frame.obj
 0001:000177a8       ??0bad_exception@std@@QEAA@AEBV01@@Z 00000001800187a8 f i libvcruntime:frame.obj
 0001:000177e8       ??0bad_exception@std@@QEAA@XZ 00000001800187e8 f i libvcruntime:frame.obj
 0001:00017808       ??1bad_array_new_length@std@@UEAA@XZ 0000000180018808 f i LIBCMT:throw_bad_alloc.obj
 0001:00017808       ??1bad_exception@std@@UEAA@XZ 0000000180018808 f i libvcruntime:frame.obj
 0001:00017808       ??1length_error@std@@UEAA@XZ 0000000180018808 f i libcpmt:xthrow.obj
 0001:00017808       ??1bad_alloc@std@@UEAA@XZ  0000000180018808 f i libcpmt:xthrow.obj
 0001:00018178       ?_CallMemberFunction0@@YAXPEAXP6AX0@Z@Z 0000000180019178 f i libvcruntime:frame.obj
 0001:0001817c       ?_CallMemberFunction1@@YAXPEAXP6AX0@Z0@Z 000000018001917c f i libvcruntime:frame.obj
 0001:00018188       ?_CallMemberFunction2@@YAXPEAXP6AX0@Z0H@Z 0000000180019188 f i libvcruntime:frame.obj
 0001:00018198       __AdjustPointer            0000000180019198 f   libvcruntime:frame.obj
 0001:000181bc       __BuildCatchObject         00000001800191bc f   libvcruntime:frame.obj
 0001:00018280       __BuildCatchObjectHelper   0000000180019280 f   libvcruntime:frame.obj
 0001:00018460       __CxxCallCatchBlock        0000000180019460 f   libvcruntime:frame.obj
 0001:0001864c       __FrameUnwindFilter        000000018001964c f   libvcruntime:frame.obj
 0001:00018698       __FrameUnwindToState       0000000180019698 f   libvcruntime:frame.obj
 0001:0001882c       __InternalCxxFrameHandler  000000018001982c f   libvcruntime:frame.obj
 0001:00018a84       __TypeMatch                0000000180019a84 f   libvcruntime:frame.obj
 0001:00018bc4       __std_terminate            0000000180019bc4 f   libvcruntime:frame.obj
 0001:00018be0       memmove                    0000000180019be0 f   libvcruntime:memcpy.obj
 0001:00018be0       memcpy                     0000000180019be0 f   libvcruntime:memcpy.obj
 0001:00019018       strstr                     000000018001a018 f   libvcruntime:strstr.obj
 0001:0001920c       __std_exception_copy       000000018001a20c f   libvcruntime:std_exception.obj
 0001:0001929c       __std_exception_destroy    000000018001a29c f   libvcruntime:std_exception.obj
 0001:000192c4       _CxxThrowException         000000018001a2c4 f   libvcruntime:throw.obj
 0001:0001939c       __vcrt_initialize          000000018001a39c f   libvcruntime:initialization.obj
 0001:000193d0       __vcrt_thread_attach       000000018001a3d0 f   libvcruntime:initialization.obj
 0001:000193e4       __vcrt_thread_detach       000000018001a3e4 f   libvcruntime:initialization.obj
 0001:000193f8       __vcrt_uninitialize        000000018001a3f8 f   libvcruntime:initialization.obj
 0001:00019418       __vcrt_uninitialize_critical 000000018001a418 f   libvcruntime:initialization.obj
 0001:00019428       __C_specific_handler       000000018001a428 f   libvcruntime:_chandler_.obj
 0001:00019640       memset                     000000018001a640 f   libvcruntime:memset.obj
 0001:000197e0       __std_type_info_compare    000000018001a7e0 f   libvcruntime:std_type_info.obj
 0001:00019808       __std_type_info_destroy_list 000000018001a808 f   libvcruntime:std_type_info.obj
 0001:00019834       __vcrt_freefls             000000018001a834 f   libvcruntime:per_thread_data.obj
 0001:00019854       __vcrt_freeptd             000000018001a854 f   libvcruntime:per_thread_data.obj
 0001:000198a4       __vcrt_getptd              000000018001a8a4 f   libvcruntime:per_thread_data.obj
 0001:000198c0       __vcrt_getptd_noexit       000000018001a8c0 f   libvcruntime:per_thread_data.obj
 0001:00019978       __vcrt_initialize_ptd      000000018001a978 f   libvcruntime:per_thread_data.obj
 0001:000199b8       __vcrt_uninitialize_ptd    000000018001a9b8 f   libvcruntime:per_thread_data.obj
 0001:000199dc       ?__GetCurrentState@@YAHPEA_KPEAU_xDISPATCHER_CONTEXT@@PEBU_s_FuncInfo@@@Z 000000018001a9dc f   libvcruntime:ehstate.obj
 0001:00019a04       ?__GetUnwindTryBlock@@YAHPEA_KPEAU_xDISPATCHER_CONTEXT@@PEBU_s_FuncInfo@@@Z 000000018001aa04 f   libvcruntime:ehstate.obj
 0001:00019a30       ?__SetState@@YAXPEA_KPEAU_xDISPATCHER_CONTEXT@@PEBU_s_FuncInfo@@H@Z 000000018001aa30 f   libvcruntime:ehstate.obj
 0001:00019a3c       ?__SetUnwindTryBlock@@YAXPEA_KPEAU_xDISPATCHER_CONTEXT@@PEBU_s_FuncInfo@@H@Z 000000018001aa3c f   libvcruntime:ehstate.obj
 0001:00019a78       ?__StateFromControlPc@@YAHPEBU_s_FuncInfo@@PEAU_xDISPATCHER_CONTEXT@@@Z 000000018001aa78 f   libvcruntime:ehstate.obj
 0001:00019a80       ?__StateFromIp@@YAHPEBU_s_FuncInfo@@PEAU_xDISPATCHER_CONTEXT@@_J@Z 000000018001aa80 f   libvcruntime:ehstate.obj
 0001:00019b00       _CallSettingFrame          000000018001ab00 f   libvcruntime:handlers.obj
 0001:00019b40       ?_ExecutionInCatch@@YAHPEAU_xDISPATCHER_CONTEXT@@PEBU_s_FuncInfo@@@Z 000000018001ab40 f   libvcruntime:trnsctrl.obj
 0001:00019bb4       ?_GetEstablisherFrame@@YAPEA_KPEA_KPEAU_xDISPATCHER_CONTEXT@@PEBU_s_FuncInfo@@0@Z 000000018001abb4 f   libvcruntime:trnsctrl.obj
 0001:00019c80       ?_GetRangeOfTrysToCheck@@YAPEBU_s_TryBlockMapEntry@@PEA_KPEBU_s_FuncInfo@@HHPEAI2PEAU_xDISPATCHER_CONTEXT@@@Z 000000018001ac80 f   libvcruntime:trnsctrl.obj
 0001:00019dac       ?__FrameUnwindToEmptyState@@YAXPEA_KPEAU_xDISPATCHER_CONTEXT@@PEBU_s_FuncInfo@@@Z 000000018001adac f   libvcruntime:trnsctrl.obj
 0001:00019e40       ?__SehTransFilter@@YAHPEAU_EXCEPTION_POINTERS@@PEAUEHExceptionRecord@@PEA_KPEAU_CONTEXT@@PEAU_xDISPATCHER_CONTEXT@@PEBU_s_FuncInfo@@PEAH@Z 000000018001ae40 f   libvcruntime:trnsctrl.obj
 0001:00019ed8       _CallSETranslator          000000018001aed8 f   libvcruntime:trnsctrl.obj
 0001:00019f30       _CreateFrameInfo           000000018001af30 f   libvcruntime:trnsctrl.obj
 0001:00019f6c       _FindAndUnlinkFrame        000000018001af6c f   libvcruntime:trnsctrl.obj
 0001:00019fc4       _GetImageBase              000000018001afc4 f   libvcruntime:trnsctrl.obj
 0001:00019fd8       _GetThrowImageBase         000000018001afd8 f   libvcruntime:trnsctrl.obj
 0001:00019fec       _IsExceptionObjectToBeDestroyed 000000018001afec f   libvcruntime:trnsctrl.obj
 0001:0001a01c       _SetImageBase              000000018001b01c f   libvcruntime:trnsctrl.obj
 0001:0001a034       _SetThrowImageBase         000000018001b034 f   libvcruntime:trnsctrl.obj
 0001:0001a04c       _UnwindNestedFrames        000000018001b04c f   libvcruntime:trnsctrl.obj
 0001:0001a170       __CxxFrameHandler3         000000018001b170 f   libvcruntime:trnsctrl.obj
 0001:0001a200       _local_unwind              000000018001b200 f   libvcruntime:_jmpuwind_.obj
 0001:0001a230       _NLG_Notify                000000018001b230 f   libvcruntime:_jmpuwind_.obj
 0001:0001a250       __NLG_Dispatch2            000000018001b250 f   libvcruntime:_jmpuwind_.obj
 0001:0001a260       __NLG_Return2              000000018001b260 f   libvcruntime:_jmpuwind_.obj
 0001:0001a264       __vcrt_initialize_locks    000000018001b264 f   libvcruntime:locks.obj
 0001:0001a2ac       __vcrt_uninitialize_locks  000000018001b2ac f   libvcruntime:locks.obj
 0001:0001a4ac       __vcrt_FlsAlloc            000000018001b4ac f   libvcruntime:winapi_downlevel.obj
 0001:0001a500       __vcrt_FlsFree             000000018001b500 f   libvcruntime:winapi_downlevel.obj
 0001:0001a554       __vcrt_FlsGetValue         000000018001b554 f   libvcruntime:winapi_downlevel.obj
 0001:0001a5a8       __vcrt_FlsSetValue         000000018001b5a8 f   libvcruntime:winapi_downlevel.obj
 0001:0001a610       __vcrt_InitializeCriticalSectionEx 000000018001b610 f   libvcruntime:winapi_downlevel.obj
 0001:0001a688       __vcrt_initialize_winapi_thunks 000000018001b688 f   libvcruntime:winapi_downlevel.obj
 0001:0001a6d4       __vcrt_uninitialize_winapi_thunks 000000018001b6d4 f   libvcruntime:winapi_downlevel.obj
 0001:0001a714       __vcrt_initialize_pure_virtual_call_handler 000000018001b714 f   libvcruntime:purevirt_data.obj
 0001:0001b120       ??$ftprintf@PEAU_iobuf@@PEB_WAEBQEB_WAEBQEB_WAEBI@?$__crt_char_traits@_W@@SAH$$QEAPEAU_iobuf@@$$QEAPEB_WAEBQEB_W2AEBI@Z 000000018001c120 f i libucrt:assert.obj
 0001:0001b148       _wassert                   000000018001c148 f   libucrt:assert.obj
 0001:0001b1cc       fwprintf                   000000018001c1cc f i libucrt:assert.obj
 0001:0001b210       swprintf                   000000018001c210 f i libucrt:assert.obj
 0001:0001b264       __acrt_call_reportfault    000000018001c264 f   libucrt:invalid_parameter.obj
 0001:0001b3c0       __acrt_initialize_invalid_parameter_handler 000000018001c3c0 f   libucrt:invalid_parameter.obj
 0001:0001b3c8       _invalid_parameter         000000018001c3c8 f   libucrt:invalid_parameter.obj
 0001:0001b470       _invalid_parameter_noinfo  000000018001c470 f   libucrt:invalid_parameter.obj
 0001:0001b490       _invalid_parameter_noinfo_noreturn 000000018001c490 f   libucrt:invalid_parameter.obj
 0001:0001b4c0       _invoke_watson             000000018001c4c0 f   libucrt:invalid_parameter.obj
 0001:0001b508       __acrt_initialize_stdio    000000018001c508 f   libucrt:_file.obj
 0001:0001b628       __acrt_iob_func            000000018001c628 f   libucrt:_file.obj
 0001:0001b63c       __acrt_uninitialize_stdio  000000018001c63c f   libucrt:_file.obj
 0001:0001b698       _lock_file                 000000018001c698 f   libucrt:_file.obj
 0001:0001b6a4       _unlock_file               000000018001c6a4 f   libucrt:_file.obj
 0001:0001b6b0       ??$?RV<lambda_7b91131dde12e1c3dfc74ff76b3f2eac>@@AEAV<lambda_dd75445284c072d0bd3768540cc698fa>@@V<lambda_16bc4ecb55b4718497c16bceaea2ceaf>@@@?$__crt_seh_guarded_call@H@@QEAAH$$QEAV<lambda_7b91131dde12e1c3dfc74ff76b3f2eac>@@AEAV<lambda_dd75445284c072d0bd3768540cc698fa>@@$$QEAV<lambda_16bc4ecb55b4718497c16bceaea2ceaf>@@@Z 000000018001c6b0 f i libucrt:output.obj
 0001:0001b6f0       ??$?RV<lambda_aa279a7bcb127014629d5b1d62c7325d>@@AEAV<lambda_0a64b6a4deda75c01876f29c44fc5eb3>@@V<lambda_3323e69fbefe9d1a11713e670d47cdfa>@@@?$__crt_seh_guarded_call@H@@QEAAH$$QEAV<lambda_aa279a7bcb127014629d5b1d62c7325d>@@AEAV<lambda_0a64b6a4deda75c01876f29c44fc5eb3>@@$$QEAV<lambda_3323e69fbefe9d1a11713e670d47cdfa>@@@Z 000000018001c6f0 f i libucrt:output.obj
 0001:0001b730       ??$ensure_buffer_is_big_enough@D@formatting_buffer@__crt_stdio_output@@QEAA_N_K@Z 000000018001c730 f i libucrt:output.obj
 0001:0001b7dc       ??$is_wide_character_specifier@D@__crt_stdio_output@@YA_N_KDW4length_modifier@0@@Z 000000018001c7dc f i libucrt:output.obj
 0001:0001b80c       ??$is_wide_character_specifier@_W@__crt_stdio_output@@YA_N_K_WW4length_modifier@0@@Z 000000018001c80c f i libucrt:output.obj
 0001:0001b850       ??$type_case_integer_parse_into_buffer@I@?$output_processor@DV?$stream_output_adapter@D@__crt_stdio_output@@V?$standard_base@DV?$stream_output_adapter@D@__crt_stdio_output@@@2@@__crt_stdio_output@@AEAAXII_N@Z 000000018001c850 f i libucrt:output.obj
 0001:0001b850       ??$type_case_integer_parse_into_buffer@I@?$output_processor@_WV?$string_output_adapter@_W@__crt_stdio_output@@V?$standard_base@_WV?$string_output_adapter@_W@__crt_stdio_output@@@2@@__crt_stdio_output@@AEAAXII_N@Z 000000018001c850 f i libucrt:output.obj
 0001:0001b850       ??$type_case_integer_parse_into_buffer@I@?$output_processor@_WV?$stream_output_adapter@_W@__crt_stdio_output@@V?$standard_base@_WV?$stream_output_adapter@_W@__crt_stdio_output@@@2@@__crt_stdio_output@@AEAAXII_N@Z 000000018001c850 f i libucrt:output.obj
 0001:0001b8ec       ??$type_case_integer_parse_into_buffer@_K@?$output_processor@_WV?$stream_output_adapter@_W@__crt_stdio_output@@V?$standard_base@_WV?$stream_output_adapter@_W@__crt_stdio_output@@@2@@__crt_stdio_output@@AEAAX_KI_N@Z 000000018001c8ec f i libucrt:output.obj
 0001:0001b8ec       ??$type_case_integer_parse_into_buffer@_K@?$output_processor@DV?$stream_output_adapter@D@__crt_stdio_output@@V?$standard_base@DV?$stream_output_adapter@D@__crt_stdio_output@@@2@@__crt_stdio_output@@AEAAX_KI_N@Z 000000018001c8ec f i libucrt:output.obj
 0001:0001b8ec       ??$type_case_integer_parse_into_buffer@_K@?$output_processor@_WV?$string_output_adapter@_W@__crt_stdio_output@@V?$standard_base@_WV?$string_output_adapter@_W@__crt_stdio_output@@@2@@__crt_stdio_output@@AEAAX_KI_N@Z 000000018001c8ec f i libucrt:output.obj
 0001:0001b988       ??$write_multiple_characters@V?$stream_output_adapter@D@__crt_stdio_output@@D@__crt_stdio_output@@YAXAEBV?$stream_output_adapter@D@0@DHQEAH@Z 000000018001c988 f i libucrt:output.obj
 0001:0001ba0c       ??$write_multiple_characters@V?$stream_output_adapter@_W@__crt_stdio_output@@D@__crt_stdio_output@@YAXAEBV?$stream_output_adapter@_W@0@DHQEAH@Z 000000018001ca0c f i libucrt:output.obj
 0001:0001ba9c       ??$write_multiple_characters@V?$string_output_adapter@_W@__crt_stdio_output@@D@__crt_stdio_output@@YAXAEBV?$string_output_adapter@_W@0@DHQEAH@Z 000000018001ca9c f i libucrt:output.obj
 0001:0001bb0c       ??0?$output_processor@DV?$stream_output_adapter@D@__crt_stdio_output@@V?$standard_base@DV?$stream_output_adapter@D@__crt_stdio_output@@@2@@__crt_stdio_output@@QEAA@AEBV?$stream_output_adapter@D@1@_KQEBDQEAU__crt_locale_pointers@@QEAD@Z 000000018001cb0c f i libucrt:output.obj
 0001:0001bb88       ??0?$output_processor@_WV?$stream_output_adapter@_W@__crt_stdio_output@@V?$standard_base@_WV?$stream_output_adapter@_W@__crt_stdio_output@@@2@@__crt_stdio_output@@QEAA@AEBV?$stream_output_adapter@_W@1@_KQEB_WQEAU__crt_locale_pointers@@QEAD@Z 000000018001cb88 f i libucrt:output.obj
 0001:0001bb88       ??0?$output_processor@_WV?$string_output_adapter@_W@__crt_stdio_output@@V?$standard_base@_WV?$string_output_adapter@_W@__crt_stdio_output@@@2@@__crt_stdio_output@@QEAA@AEBV?$string_output_adapter@_W@1@_KQEB_WQEAU__crt_locale_pointers@@QEAD@Z 000000018001cb88 f i libucrt:output.obj
 0001:0001bc08       ??0_LocaleUpdate@@QEAA@QEAU__crt_locale_pointers@@@Z 000000018001cc08 f i libucrt:output.obj
 0001:0001be78       ?force_decimal_point@__crt_stdio_output@@YAXPEADQEAU__crt_locale_pointers@@@Z 000000018001ce78 f i libucrt:output.obj
 0001:0001bee8       ?parse_int_from_format_string@?$output_processor@DV?$stream_output_adapter@D@__crt_stdio_output@@V?$standard_base@DV?$stream_output_adapter@D@__crt_stdio_output@@@2@@__crt_stdio_output@@AEAA_NQEAH@Z 000000018001cee8 f i libucrt:output.obj
 0001:0001bf6c       ?parse_int_from_format_string@?$output_processor@_WV?$stream_output_adapter@_W@__crt_stdio_output@@V?$standard_base@_WV?$stream_output_adapter@_W@__crt_stdio_output@@@2@@__crt_stdio_output@@AEAA_NQEAH@Z 000000018001cf6c f i libucrt:output.obj
 0001:0001bf6c       ?parse_int_from_format_string@?$output_processor@_WV?$string_output_adapter@_W@__crt_stdio_output@@V?$standard_base@_WV?$string_output_adapter@_W@__crt_stdio_output@@@2@@__crt_stdio_output@@AEAA_NQEAH@Z 000000018001cf6c f i libucrt:output.obj
 0001:0001bfec       ?process@?$output_processor@DV?$stream_output_adapter@D@__crt_stdio_output@@V?$standard_base@DV?$stream_output_adapter@D@__crt_stdio_output@@@2@@__crt_stdio_output@@QEAAHXZ 000000018001cfec f i libucrt:output.obj
 0001:0001c1fc       ?process@?$output_processor@_WV?$stream_output_adapter@_W@__crt_stdio_output@@V?$standard_base@_WV?$stream_output_adapter@_W@__crt_stdio_output@@@2@@__crt_stdio_output@@QEAAHXZ 000000018001d1fc f i libucrt:output.obj
 0001:0001c474       ?process@?$output_processor@_WV?$string_output_adapter@_W@__crt_stdio_output@@V?$standard_base@_WV?$string_output_adapter@_W@__crt_stdio_output@@@2@@__crt_stdio_output@@QEAAHXZ 000000018001d474 f i libucrt:output.obj
 0001:0001c6f0       ?state_case_normal@?$output_processor@DV?$stream_output_adapter@D@__crt_stdio_output@@V?$standard_base@DV?$stream_output_adapter@D@__crt_stdio_output@@@2@@__crt_stdio_output@@AEAA_NXZ 000000018001d6f0 f i libucrt:output.obj
 0001:0001c760       ?state_case_normal_tchar@?$output_processor@DV?$stream_output_adapter@D@__crt_stdio_output@@V?$standard_base@DV?$stream_output_adapter@D@__crt_stdio_output@@@2@@__crt_stdio_output@@AEAA_ND@Z 000000018001d760 f i libucrt:output.obj
 0001:0001c7f4       ?state_case_size@?$output_processor@DV?$stream_output_adapter@D@__crt_stdio_output@@V?$standard_base@DV?$stream_output_adapter@D@__crt_stdio_output@@@2@@__crt_stdio_output@@AEAA_NXZ 000000018001d7f4 f i libucrt:output.obj
 0001:0001c970       ?state_case_size@?$output_processor@_WV?$stream_output_adapter@_W@__crt_stdio_output@@V?$standard_base@_WV?$stream_output_adapter@_W@__crt_stdio_output@@@2@@__crt_stdio_output@@AEAA_NXZ 000000018001d970 f i libucrt:output.obj
 0001:0001cb14       ?state_case_size@?$output_processor@_WV?$string_output_adapter@_W@__crt_stdio_output@@V?$standard_base@_WV?$string_output_adapter@_W@__crt_stdio_output@@@2@@__crt_stdio_output@@AEAA_NXZ 000000018001db14 f i libucrt:output.obj
 0001:0001ccb8       ?state_case_type@?$output_processor@DV?$stream_output_adapter@D@__crt_stdio_output@@V?$standard_base@DV?$stream_output_adapter@D@__crt_stdio_output@@@2@@__crt_stdio_output@@AEAA_NXZ 000000018001dcb8 f i libucrt:output.obj
 0001:0001cf34       ?state_case_type@?$output_processor@_WV?$stream_output_adapter@_W@__crt_stdio_output@@V?$standard_base@_WV?$stream_output_adapter@_W@__crt_stdio_output@@@2@@__crt_stdio_output@@AEAA_NXZ 000000018001df34 f i libucrt:output.obj
 0001:0001d200       ?state_case_type@?$output_processor@_WV?$string_output_adapter@_W@__crt_stdio_output@@V?$standard_base@_WV?$string_output_adapter@_W@__crt_stdio_output@@@2@@__crt_stdio_output@@AEAA_NXZ 000000018001e200 f i libucrt:output.obj
 0001:0001d4cc       ?type_case_Z@?$output_processor@DV?$stream_output_adapter@D@__crt_stdio_output@@V?$standard_base@DV?$stream_output_adapter@D@__crt_stdio_output@@@2@@__crt_stdio_output@@AEAA_NXZ 000000018001e4cc f i libucrt:output.obj
 0001:0001d54c       ?type_case_Z@?$output_processor@_WV?$stream_output_adapter@_W@__crt_stdio_output@@V?$standard_base@_WV?$stream_output_adapter@_W@__crt_stdio_output@@@2@@__crt_stdio_output@@AEAA_NXZ 000000018001e54c f i libucrt:output.obj
 0001:0001d54c       ?type_case_Z@?$output_processor@_WV?$string_output_adapter@_W@__crt_stdio_output@@V?$standard_base@_WV?$string_output_adapter@_W@__crt_stdio_output@@@2@@__crt_stdio_output@@AEAA_NXZ 000000018001e54c f i libucrt:output.obj
 0001:0001d5cc       ?type_case_a@?$output_processor@DV?$stream_output_adapter@D@__crt_stdio_output@@V?$standard_base@DV?$stream_output_adapter@D@__crt_stdio_output@@@2@@__crt_stdio_output@@AEAA_NXZ 000000018001e5cc f i libucrt:output.obj
 0001:0001d7e8       ?type_case_a@?$output_processor@_WV?$string_output_adapter@_W@__crt_stdio_output@@V?$standard_base@_WV?$string_output_adapter@_W@__crt_stdio_output@@@2@@__crt_stdio_output@@AEAA_NXZ 000000018001e7e8 f i libucrt:output.obj
 0001:0001d7e8       ?type_case_a@?$output_processor@_WV?$stream_output_adapter@_W@__crt_stdio_output@@V?$standard_base@_WV?$stream_output_adapter@_W@__crt_stdio_output@@@2@@__crt_stdio_output@@AEAA_NXZ 000000018001e7e8 f i libucrt:output.obj
 0001:0001da2c       ?type_case_c_tchar@?$output_processor@DV?$stream_output_adapter@D@__crt_stdio_output@@V?$standard_base@DV?$stream_output_adapter@D@__crt_stdio_output@@@2@@__crt_stdio_output@@AEAA_ND@Z 000000018001ea2c f i libucrt:output.obj
 0001:0001dae0       ?type_case_c_tchar@?$output_processor@_WV?$string_output_adapter@_W@__crt_stdio_output@@V?$standard_base@_WV?$string_output_adapter@_W@__crt_stdio_output@@@2@@__crt_stdio_output@@AEAA_N_W@Z 000000018001eae0 f i libucrt:output.obj
 0001:0001dae0       ?type_case_c_tchar@?$output_processor@_WV?$stream_output_adapter@_W@__crt_stdio_output@@V?$standard_base@_WV?$stream_output_adapter@_W@__crt_stdio_output@@@2@@__crt_stdio_output@@AEAA_N_W@Z 000000018001eae0 f i libucrt:output.obj
 0001:0001db88       ?type_case_integer@?$output_processor@DV?$stream_output_adapter@D@__crt_stdio_output@@V?$standard_base@DV?$stream_output_adapter@D@__crt_stdio_output@@@2@@__crt_stdio_output@@AEAA_NI_N@Z 000000018001eb88 f i libucrt:output.obj
 0001:0001db88       ?type_case_integer@?$output_processor@_WV?$stream_output_adapter@_W@__crt_stdio_output@@V?$standard_base@_WV?$stream_output_adapter@_W@__crt_stdio_output@@@2@@__crt_stdio_output@@AEAA_NI_N@Z 000000018001eb88 f i libucrt:output.obj
 0001:0001db88       ?type_case_integer@?$output_processor@_WV?$string_output_adapter@_W@__crt_stdio_output@@V?$standard_base@_WV?$string_output_adapter@_W@__crt_stdio_output@@@2@@__crt_stdio_output@@AEAA_NI_N@Z 000000018001eb88 f i libucrt:output.obj
 0001:0001dd28       ?type_case_n@?$output_processor@_WV?$stream_output_adapter@_W@__crt_stdio_output@@V?$standard_base@_WV?$stream_output_adapter@_W@__crt_stdio_output@@@2@@__crt_stdio_output@@AEAA_NXZ 000000018001ed28 f i libucrt:output.obj
 0001:0001dd28       ?type_case_n@?$output_processor@DV?$stream_output_adapter@D@__crt_stdio_output@@V?$standard_base@DV?$stream_output_adapter@D@__crt_stdio_output@@@2@@__crt_stdio_output@@AEAA_NXZ 000000018001ed28 f i libucrt:output.obj
 0001:0001dd28       ?type_case_n@?$output_processor@_WV?$string_output_adapter@_W@__crt_stdio_output@@V?$standard_base@_WV?$string_output_adapter@_W@__crt_stdio_output@@@2@@__crt_stdio_output@@AEAA_NXZ 000000018001ed28 f i libucrt:output.obj
 0001:0001de04       ?type_case_s@?$output_processor@DV?$stream_output_adapter@D@__crt_stdio_output@@V?$standard_base@DV?$stream_output_adapter@D@__crt_stdio_output@@@2@@__crt_stdio_output@@AEAA_NXZ 000000018001ee04 f i libucrt:output.obj
 0001:0001de94       ?type_case_s@?$output_processor@_WV?$string_output_adapter@_W@__crt_stdio_output@@V?$standard_base@_WV?$string_output_adapter@_W@__crt_stdio_output@@@2@@__crt_stdio_output@@AEAA_NXZ 000000018001ee94 f i libucrt:output.obj
 0001:0001de94       ?type_case_s@?$output_processor@_WV?$stream_output_adapter@_W@__crt_stdio_output@@V?$standard_base@_WV?$stream_output_adapter@_W@__crt_stdio_output@@@2@@__crt_stdio_output@@AEAA_NXZ 000000018001ee94 f i libucrt:output.obj
 0001:0001df5c       ?validate_stream_is_ansi_if_required@?$__acrt_stdio_char_traits@D@@SA_NQEAU_iobuf@@@Z 000000018001ef5c f i libucrt:output.obj
 0001:0001dfe8       ?write_stored_string_tchar@?$output_processor@DV?$stream_output_adapter@D@__crt_stdio_output@@V?$standard_base@DV?$stream_output_adapter@D@__crt_stdio_output@@@2@@__crt_stdio_output@@AEAA_ND@Z 000000018001efe8 f i libucrt:output.obj
 0001:0001e0c0       ?write_stored_string_tchar@?$output_processor@_WV?$stream_output_adapter@_W@__crt_stdio_output@@V?$standard_base@_WV?$stream_output_adapter@_W@__crt_stdio_output@@@2@@__crt_stdio_output@@AEAA_N_W@Z 000000018001f0c0 f i libucrt:output.obj
 0001:0001e1ac       ?write_stored_string_tchar@?$output_processor@_WV?$string_output_adapter@_W@__crt_stdio_output@@V?$standard_base@_WV?$string_output_adapter@_W@__crt_stdio_output@@@2@@__crt_stdio_output@@AEAA_N_W@Z 000000018001f1ac f i libucrt:output.obj
 0001:0001e29c       ?write_string@?$stream_output_adapter@D@__crt_stdio_output@@QEBAXQEBDHQEAH1@Z 000000018001f29c f i libucrt:output.obj
 0001:0001e394       ?write_string@?$stream_output_adapter@_W@__crt_stdio_output@@QEBAXQEB_WHQEAH1@Z 000000018001f394 f i libucrt:output.obj
 0001:0001e4a0       ?write_string@?$string_output_adapter@_W@__crt_stdio_output@@QEBAXQEB_WHQEAH1@Z 000000018001f4a0 f i libucrt:output.obj
 0001:0001e560       __stdio_common_vfprintf    000000018001f560 f   libucrt:output.obj
 0001:0001e5ec       __stdio_common_vfwprintf   000000018001f5ec f   libucrt:output.obj
 0001:0001e678       __stdio_common_vswprintf   000000018001f678 f   libucrt:output.obj
 0001:0001e8b0       __ascii_stricmp            000000018001f8b0 f   libucrt:stricmp.obj
 0001:0001e8ec       _stricmp                   000000018001f8ec f   libucrt:stricmp.obj
 0001:0001e934       _stricmp_l                 000000018001f934 f   libucrt:stricmp.obj
 0001:0001e9e8       _seh_filter_dll            000000018001f9e8 f   libucrt:exception_filter.obj
 0001:0001e9fc       _seh_filter_exe            000000018001f9fc f   libucrt:exception_filter.obj
 0001:0001edbc       __acrt_initialize_thread_local_exit_callback 000000018001fdbc f   libucrt:exit.obj
 0001:0001edc4       _cexit                     000000018001fdc4 f   libucrt:exit.obj
 0001:0001edd4       _exit                      000000018001fdd4 f   libucrt:exit.obj
 0001:0001ede0       _is_c_termination_complete 000000018001fde0 f   libucrt:exit.obj
 0001:0001efa4       __acrt_allocate_buffer_for_argv 000000018001ffa4 f   libucrt:argv_parsing.obj
 0001:0001f008       _configure_narrow_argv     0000000180020008 f   libucrt:argv_parsing.obj
 0001:0001f364       __dcrt_uninitialize_environments_nolock 0000000180020364 f   libucrt:environment_initialization.obj
 0001:0001f39c       _initialize_narrow_environment 000000018002039c f   libucrt:environment_initialization.obj
 0001:0001f3a4       ??$?RV<lambda_b8c45f8f788dd370798f47cfe8ac3a86>@@AEAV<lambda_4e60a939b0d047cfe11ddc22648dfba9>@@V<lambda_332c3edc96d0294ec56c57d38c1cdfd5>@@@?$__crt_seh_guarded_call@H@@QEAAH$$QEAV<lambda_b8c45f8f788dd370798f47cfe8ac3a86>@@AEAV<lambda_4e60a939b0d047cfe11ddc22648dfba9>@@$$QEAV<lambda_332c3edc96d0294ec56c57d38c1cdfd5>@@@Z 00000001800203a4 f i libucrt:onexit.obj
 0001:0001f3e0       ??$?RV<lambda_e24bbb7b643b32fcea6fa61b31d4c984>@@AEAV<lambda_275893d493268fdec8709772e3fcec0e>@@V<lambda_9d71df4d7cf3f480f8d633942495c3b0>@@@?$__crt_seh_guarded_call@H@@QEAAH$$QEAV<lambda_e24bbb7b643b32fcea6fa61b31d4c984>@@AEAV<lambda_275893d493268fdec8709772e3fcec0e>@@$$QEAV<lambda_9d71df4d7cf3f480f8d633942495c3b0>@@@Z 00000001800203e0 f i libucrt:onexit.obj
 0001:0001f75c       _crt_atexit                000000018002075c f   libucrt:onexit.obj
 0001:0001f76c       _execute_onexit_table      000000018002076c f   libucrt:onexit.obj
 0001:0001f7a8       _initialize_onexit_table   00000001800207a8 f   libucrt:onexit.obj
 0001:0001f7e8       _register_onexit_function  00000001800207e8 f   libucrt:onexit.obj
 0001:0001f964       __acrt_initialize          0000000180020964 f   libucrt:initialization.obj
 0001:0001f978       __acrt_thread_attach       0000000180020978 f   libucrt:initialization.obj
 0001:0001f98c       __acrt_thread_detach       000000018002098c f   libucrt:initialization.obj
 0001:0001f99c       __acrt_uninitialize        000000018002099c f   libucrt:initialization.obj
 0001:0001f9b0       __acrt_uninitialize_critical 00000001800209b0 f   libucrt:initialization.obj
 0001:0001f9c0       __acrt_initialize_new_handler 00000001800209c0 f   libucrt:new_handler.obj
 0001:0001f9c8       _callnewh                  00000001800209c8 f   libucrt:new_handler.obj
 0001:0001fa08       _query_new_handler         0000000180020a08 f   libucrt:new_handler.obj
 0001:0001fa3c       malloc                     0000000180020a3c f   libucrt:malloc.obj
 0001:0001fa44       free                       0000000180020a44 f   libucrt:free.obj
 0001:0001fa4c       _initterm                  0000000180020a4c f   libucrt:initterm.obj
 0001:0001fac4       _initterm_e                0000000180020ac4 f   libucrt:initterm.obj
 0001:0001fb10       terminate                  0000000180020b10 f   libucrt:terminate.obj
 0001:0001fd60       _strupr                    0000000180020d60 f   libucrt:strupr.obj
 0001:0001fd60       strupr                     0000000180020d60 f   libucrt:strupr.obj
 0001:0001fdbc       _strupr_s_l                0000000180020dbc f   libucrt:strupr.obj
 0001:0001fe08       strcpy_s                   0000000180020e08 f   libucrt:strcpy_s.obj
 0001:0001fe68       _free_base                 0000000180020e68 f   libucrt:free_base.obj
 0001:0001fea8       _malloc_base               0000000180020ea8 f   libucrt:malloc_base.obj
 0001:0001ff08       abort                      0000000180020f08 f   libucrt:abort.obj
 0001:0001ff60       _calloc_base               0000000180020f60 f   libucrt:calloc_base.obj
 0001:0001ffd8       ??$is_overflow_condition@K@__crt_strtox@@YA_NIK@Z 0000000180020fd8 f i libucrt:atox.obj
 0001:00020004       ??$parse_integer@KV?$c_string_character_source@D@__crt_strtox@@@__crt_strtox@@YAKQEAU__crt_locale_pointers@@V?$c_string_character_source@D@0@H_N@Z 0000000180021004 f i libucrt:atox.obj
 0001:00020318       ??$parse_integer@KV?$c_string_character_source@_W@__crt_strtox@@@__crt_strtox@@YAKQEAU__crt_locale_pointers@@V?$c_string_character_source@_W@0@H_N@Z 0000000180021318 f i libucrt:atox.obj
 0001:000209ec       _query_app_type            00000001800219ec f   libucrt:report_runtime_error.obj
 0001:000209f4       __acrt_errno_from_os_error 00000001800219f4 f   libucrt:errno.obj
 0001:00020a3c       __acrt_errno_map_os_error  0000000180021a3c f   libucrt:errno.obj
 0001:00020a8c       __doserrno                 0000000180021a8c f   libucrt:errno.obj
 0001:00020aac       _errno                     0000000180021aac f   libucrt:errno.obj
 0001:00020bf4       _itow_s                    0000000180021bf4 f   libucrt:xtoa.obj
 0001:00020c14       _set_error_mode            0000000180021c14 f   libucrt:set_error_mode.obj
 0001:00020c54       wcscat_s                   0000000180021c54 f   libucrt:wcscat_s.obj
 0001:00020cd4       wcscpy_s                   0000000180021cd4 f   libucrt:wcscpy_s.obj
 0001:00020d3c       wcsncat_s                  0000000180021d3c f   libucrt:wcsncat_s.obj
 0001:00020e64       __acrt_show_wide_message_box 0000000180021e64 f   libucrt:crtmbox.obj
 0001:00020f80       __acrt_stdio_flush_nolock  0000000180021f80 f   libucrt:fflush.obj
 0001:00020ff8       _fflush_nolock             0000000180021ff8 f   libucrt:fflush.obj
 0001:00021044       _flushall                  0000000180022044 f   libucrt:fflush.obj
 0001:00021134       fflush                     0000000180022134 f   libucrt:fflush.obj
 0001:00021178       ??$?RV<lambda_7a5ef57ff966f610505f1d28a3d40618>@@AEAV<lambda_b721fa326cdb32351d23dfa67958c160>@@V<lambda_5e0fb27672408a07956fe59e48ccb2aa>@@@?$__crt_seh_guarded_call@H@@QEAAH$$QEAV<lambda_7a5ef57ff966f610505f1d28a3d40618>@@AEAV<lambda_b721fa326cdb32351d23dfa67958c160>@@$$QEAV<lambda_5e0fb27672408a07956fe59e48ccb2aa>@@@Z 0000000180022178 f i libucrt:setvbuf.obj
 0001:000212a8       setvbuf                    00000001800222a8 f   libucrt:setvbuf.obj
 0001:00021348       ??$?RV<lambda_c36588078e9f5dfd39652860aa6b3aaf>@@AEAV<lambda_ec61778202f4f5fc7e7711acc23c3bca>@@V<lambda_dc9d2797ccde5d239b4a0efae8ebd7db>@@@?$__crt_seh_guarded_call@P6AXH@Z@@QEAAP6AXH@Z$$QEAV<lambda_c36588078e9f5dfd39652860aa6b3aaf>@@AEAV<lambda_ec61778202f4f5fc7e7711acc23c3bca>@@$$QEAV<lambda_dc9d2797ccde5d239b4a0efae8ebd7db>@@@Z 0000000180022348 f i libucrt:signal.obj
 0001:00021390       __acrt_get_sigabrt_handler 0000000180022390 f   libucrt:signal.obj
 0001:000213c0       __acrt_initialize_signal_handlers 00000001800223c0 f   libucrt:signal.obj
 0001:000213e0       raise                      00000001800223e0 f   libucrt:signal.obj
 0001:0002167c       ??$?RV<lambda_46352004c1216016012b18bd6f87e700>@@AEAV<lambda_3bd07e1a1191394380780325891bf33f>@@V<lambda_334532d3f185bcaa59b5be82d7d22bff>@@@?$__crt_seh_guarded_call@X@@QEAAX$$QEAV<lambda_46352004c1216016012b18bd6f87e700>@@AEAV<lambda_3bd07e1a1191394380780325891bf33f>@@$$QEAV<lambda_334532d3f185bcaa59b5be82d7d22bff>@@@Z 000000018002267c f i libucrt:per_thread_data.obj
 0001:000216dc       ??$?RV<lambda_5e887d1dcbef67a5eb4283622ba103bf>@@AEAV<lambda_4466841279450cc726390878d4a41900>@@V<lambda_341c25c0346d94847f1f3c463c57e077>@@@?$__crt_seh_guarded_call@X@@QEAAX$$QEAV<lambda_5e887d1dcbef67a5eb4283622ba103bf>@@AEAV<lambda_4466841279450cc726390878d4a41900>@@$$QEAV<lambda_341c25c0346d94847f1f3c463c57e077>@@@Z 00000001800226dc f i libucrt:per_thread_data.obj
 0001:00021724       ??$?RV<lambda_72d1df2b273a38828b1ce30cbf4cdab5>@@AEAV<lambda_876a65b173b8412d3a47c70a915b0cf4>@@V<lambda_41932305e351933ebe8f8be3ed8bb5dc>@@@?$__crt_seh_guarded_call@X@@QEAAX$$QEAV<lambda_72d1df2b273a38828b1ce30cbf4cdab5>@@AEAV<lambda_876a65b173b8412d3a47c70a915b0cf4>@@$$QEAV<lambda_41932305e351933ebe8f8be3ed8bb5dc>@@@Z 0000000180022724 f i libucrt:per_thread_data.obj
 0001:00021764       ??$?RV<lambda_fb3a7dec4e47f37f22dae91bb15c9095>@@AEAV<lambda_698284760c8add0bfb0756c19673e34b>@@V<lambda_dfb8eca1e75fef3034a8fb18dd509707>@@@?$__crt_seh_guarded_call@X@@QEAAX$$QEAV<lambda_fb3a7dec4e47f37f22dae91bb15c9095>@@AEAV<lambda_698284760c8add0bfb0756c19673e34b>@@$$QEAV<lambda_dfb8eca1e75fef3034a8fb18dd509707>@@@Z 0000000180022764 f i libucrt:per_thread_data.obj
 0001:000219f4       __acrt_freeptd             00000001800229f4 f   libucrt:per_thread_data.obj
 0001:00021a38       __acrt_getptd              0000000180022a38 f   libucrt:per_thread_data.obj
 0001:00021acc       __acrt_getptd_noexit       0000000180022acc f   libucrt:per_thread_data.obj
 0001:00021b6c       __acrt_initialize_ptd      0000000180022b6c f   libucrt:per_thread_data.obj
 0001:00021ba8       __acrt_uninitialize_ptd    0000000180022ba8 f   libucrt:per_thread_data.obj
 0001:00021d6c       __acrt_FlsAlloc            0000000180022d6c f   libucrt:winapi_thunks.obj
 0001:00021dc4       __acrt_FlsFree             0000000180022dc4 f   libucrt:winapi_thunks.obj
 0001:00021e1c       __acrt_FlsGetValue         0000000180022e1c f   libucrt:winapi_thunks.obj
 0001:00021e74       __acrt_FlsSetValue         0000000180022e74 f   libucrt:winapi_thunks.obj
 0001:00021edc       __acrt_InitializeCriticalSectionEx 0000000180022edc f   libucrt:winapi_thunks.obj
 0001:00021f54       __acrt_LCMapStringEx       0000000180022f54 f   libucrt:winapi_thunks.obj
 0001:00022044       __acrt_LocaleNameToLCID    0000000180023044 f   libucrt:winapi_thunks.obj
 0001:000220ac       __acrt_MessageBoxW         00000001800230ac f   libucrt:winapi_thunks.obj
 0001:00022134       __acrt_can_show_message_box 0000000180023134 f   libucrt:winapi_thunks.obj
 0001:00022190       __acrt_get_parent_window   0000000180023190 f   libucrt:winapi_thunks.obj
 0001:00022220       __acrt_initialize_winapi_thunks 0000000180023220 f   libucrt:winapi_thunks.obj
 0001:00022258       __acrt_is_interactive      0000000180023258 f   libucrt:winapi_thunks.obj
 0001:0002232c       __acrt_is_packaged_app     000000018002332c f   libucrt:winapi_thunks.obj
 0001:000223b4       __acrt_uninitialize_winapi_thunks 00000001800233b4 f   libucrt:winapi_thunks.obj
 0001:000223f8       _fcloseall                 00000001800233f8 f   libucrt:closeall.obj
 0001:000224ac       __acrt_stdio_free_buffer_nolock 00000001800234ac f   libucrt:_freebuf.obj
 0001:000226d4       __acrt_initialize_lowio    00000001800236d4 f   libucrt:ioinit.obj
 0001:00022710       __acrt_uninitialize_lowio  0000000180023710 f   libucrt:ioinit.obj
 0001:00022750       isdigit                    0000000180023750 f i libucrt:_ctype.obj
 0001:00022814       _tolower_l                 0000000180023814 f   libucrt:tolower_toupper.obj
 0001:00022954       tolower                    0000000180023954 f   libucrt:tolower_toupper.obj
 0001:00022980       ??$make_c_string_character_source@_WPEAPEA_W@__crt_strtox@@YA?AV?$c_string_character_source@_W@0@QEB_WQEAPEA_W@Z 0000000180023980 f i libucrt:strtox.obj
 0001:00022980       ??$make_c_string_character_source@DPEAPEAD@__crt_strtox@@YA?AV?$c_string_character_source@D@0@QEBDQEAPEAD@Z 0000000180023980 f i libucrt:strtox.obj
 0001:00022994       strtol                     0000000180023994 f   libucrt:strtox.obj
 0001:000229c4       wcstol                     00000001800239c4 f   libucrt:strtox.obj
 0001:000229f4       _mbtowc_l                  00000001800239f4 f   libucrt:mbtowc.obj
 0001:00022b3c       mbtowc                     0000000180023b3c f   libucrt:mbtowc.obj
 0001:00022b44       _wctomb_s_l                0000000180023b44 f   libucrt:wctomb.obj
 0001:00022cc8       wctomb_s                   0000000180023cc8 f   libucrt:wctomb.obj
 0001:00022cdc       strnlen                    0000000180023cdc f   libucrt:strnlen.obj
 0001:00022e38       wcsnlen                    0000000180023e38 f   libucrt:strnlen.obj
 0001:00023028       __acrt_update_locale_info  0000000180024028 f   libucrt:locale_update.obj
 0001:0002305c       __acrt_update_multibyte_info 000000018002405c f   libucrt:locale_update.obj
 0001:00023090       ?__acrt_fp_classify@@YA?AW4__acrt_fp_class@@AEBN@Z 0000000180024090 f i libucrt:cvt.obj
 0001:00023ac8       __acrt_fp_format           0000000180024ac8 f   libucrt:cvt.obj
 0001:00023d0c       _fputwc_nolock             0000000180024d0c f   libucrt:fputwc.obj
 0001:00023e88       _fileno                    0000000180024e88 f   libucrt:fileno.obj
 0001:00023eb0       _fputc_nolock              0000000180024eb0 f   libucrt:fputc.obj
 0001:00023ec8       _get_printf_count_output   0000000180024ec8 f   libucrt:printf_count_output.obj
 0001:00023ee0       __acrt_stdio_begin_temporary_buffering_nolock 0000000180024ee0 f   libucrt:_sftbuf.obj
 0001:00023fb0       __acrt_stdio_end_temporary_buffering_nolock 0000000180024fb0 f   libucrt:_sftbuf.obj
 0001:00023fec       __acrt_set_locale_changed  0000000180024fec f   libucrt:wsetlocale.obj
 0001:00023ff8       __acrt_uninitialize_locale 0000000180024ff8 f   libucrt:wsetlocale.obj
 0001:00024040       __acrt_initialize_locks    0000000180025040 f   libucrt:locks.obj
 0001:00024088       __acrt_lock                0000000180025088 f   libucrt:locks.obj
 0001:000240a4       __acrt_uninitialize_locks  00000001800250a4 f   libucrt:locks.obj
 0001:000240dc       __acrt_unlock              00000001800250dc f   libucrt:locks.obj
 0001:000245d4       ?expand_if_necessary@?$argument_list@D@?A0xca0879c4@@AEAAHXZ 00000001800255d4 f i libucrt:argv_wildcards.obj
 0001:0002469c       __acrt_expand_narrow_argv_wildcards 000000018002569c f   libucrt:argv_wildcards.obj
 0001:000246a4       ??$?RV<lambda_99476a1ad63dd22509b5d3e65b0ffc95>@@AEAV<lambda_ad1ced32f4ac17aa236e5ef05d6b3b7c>@@V<lambda_f7424dd8d45958661754dc4f2697e9c3>@@@?$__crt_seh_guarded_call@X@@QEAAX$$QEAV<lambda_99476a1ad63dd22509b5d3e65b0ffc95>@@AEAV<lambda_ad1ced32f4ac17aa236e5ef05d6b3b7c>@@$$QEAV<lambda_f7424dd8d45958661754dc4f2697e9c3>@@@Z 00000001800256a4 f i libucrt:mbctype.obj
 0001:00024da0       __acrt_initialize_multibyte 0000000180025da0 f   libucrt:mbctype.obj
 0001:00024dc8       __acrt_update_thread_multibyte_data 0000000180025dc8 f   libucrt:mbctype.obj
 0001:00024e88       _setmbcp_nolock            0000000180025e88 f   libucrt:mbctype.obj
 0001:000251a8       _ismbblead                 00000001800261a8 f   libucrt:ismbbyte.obj
 0001:000251bc       __acrt_initialize_command_line 00000001800261bc f   libucrt:argv_data.obj
 0001:000251e4       __acrt_uninitialize_command_line 00000001800261e4 f   libucrt:argv_data.obj
 0001:000251e8       __dcrt_get_narrow_environment_from_os 00000001800261e8 f   libucrt:get_environment_from_os.obj
 0001:000252ec       _recalloc                  00000001800262ec f   libucrt:recalloc.obj
 0001:000252f4       _recalloc_base             00000001800262f4 f   libucrt:recalloc.obj
 0001:0002538c       __acrt_initialize_heap     000000018002638c f   libucrt:heap_handle.obj
 0001:000253a8       __acrt_uninitialize_heap   00000001800263a8 f   libucrt:heap_handle.obj
 0001:000253b4       __acrt_execute_initializers 00000001800263b4 f   libucrt:shared_initialization.obj
 0001:00025448       __acrt_execute_uninitializers 0000000180026448 f   libucrt:shared_initialization.obj
 0001:00025498       __acrt_has_user_matherr    0000000180026498 f   libucrt:matherr.obj
 0001:000254b8       __acrt_initialize_user_matherr 00000001800264b8 f   libucrt:matherr.obj
 0001:000254c0       __acrt_invoke_user_matherr 00000001800264c0 f   libucrt:matherr.obj
 0001:00025864       __acrt_LCMapStringA        0000000180026864 f   libucrt:lcmapstringa.obj
 0001:000258fc       _query_new_mode            00000001800268fc f   libucrt:new_mode.obj
 0001:00025904       __pctype_func              0000000180026904 f   libucrt:ctype.obj
 0001:00025934       iswctype                   0000000180026934 f   libucrt:iswctype.obj
 0001:000259a4       _isctype_l                 00000001800269a4 f   libucrt:isctype.obj
 0001:00025ab4       ??$?RV<lambda_b521505b218e5242e90febf6bfebc422>@@AEAV<lambda_6978c1fb23f02e42e1d9e99668cc68aa>@@V<lambda_314360699dd331753a4119843814e9a7>@@@?$__crt_seh_guarded_call@H@@QEAAH$$QEAV<lambda_b521505b218e5242e90febf6bfebc422>@@AEAV<lambda_6978c1fb23f02e42e1d9e99668cc68aa>@@$$QEAV<lambda_314360699dd331753a4119843814e9a7>@@@Z 0000000180026ab4 f i libucrt:commit.obj
 0001:00025b40       _commit                    0000000180026b40 f   libucrt:commit.obj
 0001:00026174       _write                     0000000180027174 f   libucrt:write.obj
 0001:00026260       _write_nolock              0000000180027260 f   libucrt:write.obj
 0001:00026544       __acrt_add_locale_ref      0000000180027544 f   libucrt:locale_refcounting.obj
 0001:000265d0       __acrt_free_locale         00000001800275d0 f   libucrt:locale_refcounting.obj
 0001:00026748       __acrt_locale_add_lc_time_reference 0000000180027748 f   libucrt:locale_refcounting.obj
 0001:00026770       __acrt_locale_free_lc_time_if_unreferenced 0000000180027770 f   libucrt:locale_refcounting.obj
 0001:000267a8       __acrt_locale_release_lc_time_reference 00000001800277a8 f   libucrt:locale_refcounting.obj
 0001:000267d0       __acrt_release_locale_ref  00000001800277d0 f   libucrt:locale_refcounting.obj
 0001:00026878       __acrt_update_thread_locale_data 0000000180027878 f   libucrt:locale_refcounting.obj
 0001:000268e8       _updatetlocinfoEx_nolock   00000001800278e8 f   libucrt:locale_refcounting.obj
 0001:00026a18       __acrt_DownlevelLocaleNameToLCID 0000000180027a18 f   libucrt:lcidtoname_downlevel.obj
 0001:00026a4c       _fclose_nolock             0000000180027a4c f   libucrt:fclose.obj
 0001:00026ad0       fclose                     0000000180027ad0 f   libucrt:fclose.obj
 0001:00026b3c       __acrt_lowio_create_handle_array 0000000180027b3c f   libucrt:osfinfo.obj
 0001:00026bd4       __acrt_lowio_destroy_handle_array 0000000180027bd4 f   libucrt:osfinfo.obj
 0001:00026c24       __acrt_lowio_ensure_fh_exists 0000000180027c24 f   libucrt:osfinfo.obj
 0001:00026cdc       __acrt_lowio_lock_fh       0000000180027cdc f   libucrt:osfinfo.obj
 0001:00026d00       __acrt_lowio_unlock_fh     0000000180027d00 f   libucrt:osfinfo.obj
 0001:00026d24       _free_osfhnd               0000000180027d24 f   libucrt:osfinfo.obj
 0001:00026de0       _get_osfhandle             0000000180027de0 f   libucrt:osfinfo.obj
 0001:00026e58       _isleadbyte_l              0000000180027e58 f i libucrt:_wctype.obj
 0001:00026e98       __acrt_fp_strflt_to_string 0000000180027e98 f   libucrt:_fptostr.obj
 0001:00026f60       ?divide@__crt_strtox@@YA_KAEAUbig_integer@1@AEBU21@@Z 0000000180027f60 f i libucrt:cfout.obj
 0001:00027430       __acrt_fltout              0000000180028430 f   libucrt:cfout.obj
 0001:00028a34       __acrt_stdio_flush_and_write_narrow_nolock 0000000180029a34 f   libucrt:_flsbuf.obj
 0001:00028b1c       __acrt_stdio_flush_and_write_wide_nolock 0000000180029b1c f   libucrt:_flsbuf.obj
 0001:00028c08       _isatty                    0000000180029c08 f   libucrt:isatty.obj
 0001:00028c68       __acrt_locale_free_monetary 0000000180029c68 f   libucrt:initmon.obj
 0001:00028d74       __acrt_locale_free_numeric 0000000180029d74 f   libucrt:initnum.obj
 0001:00028e38       __acrt_locale_free_time    0000000180029e38 f   libucrt:inittime.obj
 0001:00028f40       __acrt_GetStringTypeA      0000000180029f40 f   libucrt:getstringtypea.obj
 0001:000291d0       qsort                      000000018002a1d0 f   libucrt:qsort.obj
 0001:00029504       strncpy_s                  000000018002a504 f   libucrt:strncpy_s.obj
 0001:000295d8       strpbrk                    000000018002a5d8 f   libucrt:strpbrk.obj
 0001:00029678       _mbsdec                    000000018002a678 f   libucrt:mbsdec.obj
 0001:00029680       _mbsdec_l                  000000018002a680 f   libucrt:mbsdec.obj
 0001:00029730       _msize                     000000018002a730 f   libucrt:msize.obj
 0001:0002976c       _realloc_base              000000018002a76c f   libucrt:realloc_base.obj
 0001:000297f0       __strncnt                  000000018002a7f0 f   libucrt:strncnt.obj
 0001:00029994       _lseeki64                  000000018002a994 f   libucrt:lseek.obj
 0001:0002999c       _lseeki64_nolock           000000018002a99c f   libucrt:lseek.obj
 0001:000299a4       _putwch_nolock             000000018002a9a4 f   libucrt:putwch.obj
 0001:00029a00       ??$?RV<lambda_bfedae4ebbf01fab1bb6dcc6a9e276e0>@@AEAV<lambda_2fe9b910cf3cbf4a0ab98a02ba45b3ec>@@V<lambda_237c231691f317818eb88cc1d5d642d6>@@@?$__crt_seh_guarded_call@H@@QEAAH$$QEAV<lambda_bfedae4ebbf01fab1bb6dcc6a9e276e0>@@AEAV<lambda_2fe9b910cf3cbf4a0ab98a02ba45b3ec>@@$$QEAV<lambda_237c231691f317818eb88cc1d5d642d6>@@@Z 000000018002aa00 f i libucrt:close.obj
 0001:00029a74       _close                     000000018002aa74 f   libucrt:close.obj
 0001:00029b18       _close_nolock              000000018002ab18 f   libucrt:close.obj
 0001:00029bd4       ?__acrt_stdio_free_stream@@YAXV__crt_stdio_stream@@@Z 000000018002abd4 f   libucrt:stream.obj
 0001:00029c18       fegetenv                   000000018002ac18 f   libucrt:fegetenv.obj
 0001:00029c38       fesetenv                   000000018002ac38 f   libucrt:fesetenv.obj
 0001:00029c84       feholdexcept               000000018002ac84 f   libucrt:feholdexcept.obj
 0001:00029cd4       ceil                       000000018002acd4 f   libucrt:ceil.obj
 0001:00029da0       log10                      000000018002ada0 f   libucrt:log10.obj
 0001:0002a34c       __acrt_stdio_allocate_buffer_nolock 000000018002b34c f   libucrt:_getbuf.obj
 0001:0002a3b0       __dcrt_lowio_initialize_console_output 000000018002b3b0 f   libucrt:initcon.obj
 0001:0002a3ec       __dcrt_terminate_console_output 000000018002b3ec f   libucrt:initcon.obj
 0001:0002a40c       _getfpcontrolword          000000018002b40c f   libucrt:_fenvutils.obj
 0001:0002a424       _getfpstatusword           000000018002b424 f   libucrt:_fenvutils.obj
 0001:0002a438       _setfpcontrolword          000000018002b438 f   libucrt:_fenvutils.obj
 0001:0002a444       _setfpstatusword           000000018002b444 f   libucrt:_fenvutils.obj
 0001:0002a494       _clearfp                   000000018002b494 f   libucrt:ieee.obj
 0001:0002a4e8       _controlfp                 000000018002b4e8 f   libucrt:ieee.obj
 0001:0002a4f4       _statusfp                  000000018002b4f4 f   libucrt:ieee.obj
 0001:0002a8f8       _handle_error              000000018002b8f8 f   libucrt:libm_error.obj
 0001:0002aa20       _handle_nan                000000018002ba20 f   libucrt:libm_error.obj
 0001:0002aa40       __acrt_initialize_fma3     000000018002ba40 f   libucrt:fma3_available.obj
 0001:0002aab0       _log10_special             000000018002bab0 f   libucrt:log_special.obj
 0001:0002ab80       _get_fpsr                  000000018002bb80 f   libucrt:fpsr.obj
 0001:0002ab90       _set_fpsr                  000000018002bb90 f   libucrt:fpsr.obj
 0001:0002ab9a       _fclrf                     000000018002bb9a f   libucrt:fpsr.obj
 0001:0002abae       _frnd                      000000018002bbae f   libucrt:fpsr.obj
 0001:0002abd0       _raise_exc                 000000018002bbd0 f   libucrt:fpexcept.obj
 0001:0002abf8       _raise_exc_ex              000000018002bbf8 f   libucrt:fpexcept.obj
 0001:0002af00       _set_errno_from_matherr    000000018002bf00 f   libucrt:fpexcept.obj
 0001:0002af30       _clrfp                     000000018002bf30 f   libucrt:fpctrl.obj
 0001:0002af50       _ctrlfp                    000000018002bf50 f   libucrt:fpctrl.obj
 0001:0002afcc       _set_statfp                000000018002bfcc f   libucrt:fpctrl.obj
 0001:0002afec       _statfp                    000000018002bfec f   libucrt:fpctrl.obj
 0001:0002affe       IsProcessorFeaturePresent  000000018002bffe f   kernel32:KERNEL32.dll
 0001:0002b004       RtlUnwindEx                000000018002c004 f   kernel32:KERNEL32.dll
 0001:0002b00c       ?DloadAcquireSectionWriteAccess@@YAXXZ 000000018002c00c f i DelayImp:delayhlp.obj
 0001:0002b0c8       ?DloadGetSRWLockFunctionPointers@@YAEXZ 000000018002c0c8 f i DelayImp:delayhlp.obj
 0001:0002b164       ?DloadMakePermanentImageCommit@@YAXPEAX_K@Z 000000018002c164 f i DelayImp:delayhlp.obj
 0001:0002b1fc       ?DloadObtainSection@@YAPEAXPEAK0@Z 000000018002c1fc f i DelayImp:delayhlp.obj
 0001:0002b294       ?DloadProtectSection@@YAXKPEAK@Z 000000018002c294 f i DelayImp:delayhlp.obj
 0001:0002b324       ?DloadReleaseSectionWriteAccess@@YAXXZ 000000018002c324 f i DelayImp:delayhlp.obj
 0001:0002b3c8       __delayLoadHelper2         000000018002c3c8 f   DelayImp:delayhlp.obj
 0001:0002b6d0       _FindPESection             000000018002c6d0 f   LIBCMT:pesect.obj
 0001:0002b720       _IsNonwritableInCurrentImage 000000018002c720 f   LIBCMT:pesect.obj
 0001:0002b770       _ValidateImageBase         000000018002c770 f   LIBCMT:pesect.obj
 0001:0002b7a0       __GSHandlerCheck           000000018002c7a0 f   LIBCMT:_gshandler_.obj
 0001:0002b7c0       __GSHandlerCheckCommon     000000018002c7c0 f   LIBCMT:_gshandler_.obj
 0001:0002b830       __chkstk                   000000018002c830 f   LIBCMT:_chkstk_.obj
 0001:0002b830       _alloca_probe              000000018002c830 f   LIBCMT:_chkstk_.obj
 0001:0002b884       strrchr                    000000018002c884 f   libvcruntime:strrchr.obj
 0001:0002b9e0       memcmp                     000000018002c9e0 f   libvcruntime:memcmp.obj
 0001:0002baa8       __GSHandlerCheck_EH        000000018002caa8 f   LIBCMT:gshandlereh.obj
 0001:0002bb40       _guard_dispatch_icall_nop  000000018002cb40 f   LIBCMT:_guard_dispatch_.obj
 0002:00000000       __imp_FreeImage_GetBits    000000018002e000     FreeImage:FreeImage.dll
 0002:00000008       __imp_FreeImage_GetHeight  000000018002e008     FreeImage:FreeImage.dll
 0002:00000010       __imp_FreeImage_Unload     000000018002e010     FreeImage:FreeImage.dll
 0002:00000018       __imp_FreeImage_ConvertTo24Bits 000000018002e018     FreeImage:FreeImage.dll
 0002:00000020       __imp_FreeImage_GetFileType 000000018002e020     FreeImage:FreeImage.dll
 0002:00000028       __imp_FreeImage_ConvertTo32Bits 000000018002e028     FreeImage:FreeImage.dll
 0002:00000030       __imp_FreeImage_ConvertFromRawBits 000000018002e030     FreeImage:FreeImage.dll
 0002:00000038       __imp_FreeImage_GetPitch   000000018002e038     FreeImage:FreeImage.dll
 0002:00000040       __imp_FreeImage_Load       000000018002e040     FreeImage:FreeImage.dll
 0002:00000048       __imp_FreeImage_Save       000000018002e048     FreeImage:FreeImage.dll
 0002:00000050       __imp_FreeImage_DeInitialise 000000018002e050     FreeImage:FreeImage.dll
 0002:00000058       __imp_FreeImage_GetWidth   000000018002e058     FreeImage:FreeImage.dll
 0002:00000060       __imp_FreeImage_GetFIFFromFilename 000000018002e060     FreeImage:FreeImage.dll
 0002:00000068       __imp_FreeImage_Initialise 000000018002e068     FreeImage:FreeImage.dll
 0002:00000070       \177FreeImage_NULL_THUNK_DATA 000000018002e070     FreeImage:FreeImage.dll
 0002:00000078       __imp_FreeEnvironmentStringsW 000000018002e078     kernel32:KERNEL32.dll
 0002:00000080       __imp_GetEnvironmentStringsW 000000018002e080     kernel32:KERNEL32.dll
 0002:00000088       __imp_GetCommandLineW      000000018002e088     kernel32:KERNEL32.dll
 0002:00000090       __imp_GetCommandLineA      000000018002e090     kernel32:KERNEL32.dll
 0002:00000098       __imp_GetCPInfo            000000018002e098     kernel32:KERNEL32.dll
 0002:000000a0       __imp_GetOEMCP             000000018002e0a0     kernel32:KERNEL32.dll
 0002:000000a8       __imp_IsValidCodePage      000000018002e0a8     kernel32:KERNEL32.dll
 0002:000000b0       __imp_FindNextFileA        000000018002e0b0     kernel32:KERNEL32.dll
 0002:000000b8       __imp_FindFirstFileExA     000000018002e0b8     kernel32:KERNEL32.dll
 0002:000000c0       __imp_FindClose            000000018002e0c0     kernel32:KERNEL32.dll
 0002:000000c8       __imp_GetACP               000000018002e0c8     kernel32:KERNEL32.dll
 0002:000000d0       __imp_LCMapStringW         000000018002e0d0     kernel32:KERNEL32.dll
 0002:000000d8       __imp_CreateThread         000000018002e0d8     kernel32:KERNEL32.dll
 0002:000000e0       __imp_WaitForSingleObjectEx 000000018002e0e0     kernel32:KERNEL32.dll
 0002:000000e8       __imp_CloseHandle          000000018002e0e8     kernel32:KERNEL32.dll
 0002:000000f0       __imp_OutputDebugStringW   000000018002e0f0     kernel32:KERNEL32.dll
 0002:000000f8       __imp_WriteFile            000000018002e0f8     kernel32:KERNEL32.dll
 0002:00000100       __imp_HeapAlloc            000000018002e100     kernel32:KERNEL32.dll
 0002:00000108       __imp_HeapFree             000000018002e108     kernel32:KERNEL32.dll
 0002:00000110       __imp_WideCharToMultiByte  000000018002e110     kernel32:KERNEL32.dll
 0002:00000118       __imp_MultiByteToWideChar  000000018002e118     kernel32:KERNEL32.dll
 0002:00000120       __imp_ExitProcess          000000018002e120     kernel32:KERNEL32.dll
 0002:00000128       __imp_WriteConsoleW        000000018002e128     kernel32:KERNEL32.dll
 0002:00000130       __imp_GetModuleHandleExW   000000018002e130     kernel32:KERNEL32.dll
 0002:00000138       __imp_GetProcessHeap       000000018002e138     kernel32:KERNEL32.dll
 0002:00000140       __imp_GetModuleFileNameA   000000018002e140     kernel32:KERNEL32.dll
 0002:00000148       __imp_GetFileType          000000018002e148     kernel32:KERNEL32.dll
 0002:00000150       __imp_GetStdHandle         000000018002e150     kernel32:KERNEL32.dll
 0002:00000158       __imp_LoadLibraryExW       000000018002e158     kernel32:KERNEL32.dll
 0002:00000160       __imp_GetProcAddress       000000018002e160     kernel32:KERNEL32.dll
 0002:00000168       __imp_FreeLibrary          000000018002e168     kernel32:KERNEL32.dll
 0002:00000170       __imp_TlsFree              000000018002e170     kernel32:KERNEL32.dll
 0002:00000178       __imp_TlsSetValue          000000018002e178     kernel32:KERNEL32.dll
 0002:00000180       __imp_TlsGetValue          000000018002e180     kernel32:KERNEL32.dll
 0002:00000188       __imp_TlsAlloc             000000018002e188     kernel32:KERNEL32.dll
 0002:00000190       __imp_InitializeCriticalSectionAndSpinCount 000000018002e190     kernel32:KERNEL32.dll
 0002:00000198       __imp_DeleteCriticalSection 000000018002e198     kernel32:KERNEL32.dll
 0002:000001a0       __imp_LeaveCriticalSection 000000018002e1a0     kernel32:KERNEL32.dll
 0002:000001a8       __imp_EnterCriticalSection 000000018002e1a8     kernel32:KERNEL32.dll
 0002:000001b0       __imp_SetLastError         000000018002e1b0     kernel32:KERNEL32.dll
 0002:000001b8       __imp_GetLastError         000000018002e1b8     kernel32:KERNEL32.dll
 0002:000001c0       __imp_InterlockedFlushSList 000000018002e1c0     kernel32:KERNEL32.dll
 0002:000001c8       __imp_RtlUnwindEx          000000018002e1c8     kernel32:KERNEL32.dll
 0002:000001d0       __imp_RaiseException       000000018002e1d0     kernel32:KERNEL32.dll
 0002:000001d8       __imp_EncodePointer        000000018002e1d8     kernel32:KERNEL32.dll
 0002:000001e0       __imp_RtlPcToFileHeader    000000018002e1e0     kernel32:KERNEL32.dll
 0002:000001e8       __imp_InitializeSListHead  000000018002e1e8     kernel32:KERNEL32.dll
 0002:000001f0       __imp_GetSystemTimeAsFileTime 000000018002e1f0     kernel32:KERNEL32.dll
 0002:000001f8       __imp_GetCurrentThreadId   000000018002e1f8     kernel32:KERNEL32.dll
 0002:00000200       __imp_GetCurrentProcessId  000000018002e200     kernel32:KERNEL32.dll
 0002:00000208       __imp_QueryPerformanceCounter 000000018002e208     kernel32:KERNEL32.dll
 0002:00000210       __imp_GetModuleHandleW     000000018002e210     kernel32:KERNEL32.dll
 0002:00000218       __imp_GetStartupInfoW      000000018002e218     kernel32:KERNEL32.dll
 0002:00000220       __imp_IsDebuggerPresent    000000018002e220     kernel32:KERNEL32.dll
 0002:00000228       __imp_IsProcessorFeaturePresent 000000018002e228     kernel32:KERNEL32.dll
 0002:00000230       __imp_TerminateProcess     000000018002e230     kernel32:KERNEL32.dll
 0002:00000238       __imp_GetCurrentProcess    000000018002e238     kernel32:KERNEL32.dll
 0002:00000240       __imp_SetUnhandledExceptionFilter 000000018002e240     kernel32:KERNEL32.dll
 0002:00000248       __imp_UnhandledExceptionFilter 000000018002e248     kernel32:KERNEL32.dll
 0002:00000250       __imp_RtlVirtualUnwind     000000018002e250     kernel32:KERNEL32.dll
 0002:00000258       __imp_RtlLookupFunctionEntry 000000018002e258     kernel32:KERNEL32.dll
 0002:00000260       __imp_RtlCaptureContext    000000018002e260     kernel32:KERNEL32.dll
 0002:00000268       __imp_GetStringTypeW       000000018002e268     kernel32:KERNEL32.dll
 0002:00000270       __imp_FlushFileBuffers     000000018002e270     kernel32:KERNEL32.dll
 0002:00000278       __imp_GetConsoleCP         000000018002e278     kernel32:KERNEL32.dll
 0002:00000280       __imp_GetConsoleMode       000000018002e280     kernel32:KERNEL32.dll
 0002:00000288       __imp_SetStdHandle         000000018002e288     kernel32:KERNEL32.dll
 0002:00000290       __imp_HeapSize             000000018002e290     kernel32:KERNEL32.dll
 0002:00000298       __imp_HeapReAlloc          000000018002e298     kernel32:KERNEL32.dll
 0002:000002a0       __imp_SetFilePointerEx     000000018002e2a0     kernel32:KERNEL32.dll
 0002:000002a8       __imp_CreateFileW          000000018002e2a8     kernel32:KERNEL32.dll
 0002:000002b0       __imp_GetSystemInfo        000000018002e2b0     kernel32:KERNEL32.dll
 0002:000002b8       __imp_VirtualProtect       000000018002e2b8     kernel32:KERNEL32.dll
 0002:000002c0       __imp_VirtualQuery         000000018002e2c0     kernel32:KERNEL32.dll
 0002:000002c8       __imp_GetModuleFileNameW   000000018002e2c8     kernel32:KERNEL32.dll
 0002:000002d0       __imp_GetModuleHandleA     000000018002e2d0     kernel32:KERNEL32.dll
 0002:000002d8       __imp_LoadLibraryExA       000000018002e2d8     kernel32:KERNEL32.dll
 0002:000002e0       \177KERNEL32_NULL_THUNK_DATA 000000018002e2e0     kernel32:KERNEL32.dll
 0002:000002e8       __imp_glLineWidth          000000018002e2e8     opengl32:OPENGL32.dll
 0002:000002f0       __imp_glStencilFunc        000000018002e2f0     opengl32:OPENGL32.dll
 0002:000002f8       __imp_glBlendFunc          000000018002e2f8     opengl32:OPENGL32.dll
 0002:00000300       __imp_glReadPixels         000000018002e300     opengl32:OPENGL32.dll
 0002:00000308       __imp_glColorMask          000000018002e308     opengl32:OPENGL32.dll
 0002:00000310       __imp_glTexParameteri      000000018002e310     opengl32:OPENGL32.dll
 0002:00000318       __imp_glFinish             000000018002e318     opengl32:OPENGL32.dll
 0002:00000320       __imp_glDeleteTextures     000000018002e320     opengl32:OPENGL32.dll
 0002:00000328       __imp_glHint               000000018002e328     opengl32:OPENGL32.dll
 0002:00000330       __imp_glClearColor         000000018002e330     opengl32:OPENGL32.dll
 0002:00000338       __imp_glGetBooleanv        000000018002e338     opengl32:OPENGL32.dll
 0002:00000340       __imp_glDrawArrays         000000018002e340     opengl32:OPENGL32.dll
 0002:00000348       __imp_glTexParameterf      000000018002e348     opengl32:OPENGL32.dll
 0002:00000350       __imp_glTexImage2D         000000018002e350     opengl32:OPENGL32.dll
 0002:00000358       __imp_glFrontFace          000000018002e358     opengl32:OPENGL32.dll
 0002:00000360       __imp_glFlush              000000018002e360     opengl32:OPENGL32.dll
 0002:00000368       __imp_glGetTexParameteriv  000000018002e368     opengl32:OPENGL32.dll
 0002:00000370       __imp_glDrawElements       000000018002e370     opengl32:OPENGL32.dll
 0002:00000378       __imp_glClearDepth         000000018002e378     opengl32:OPENGL32.dll
 0002:00000380       __imp_glDisable            000000018002e380     opengl32:OPENGL32.dll
 0002:00000388       __imp_glIsTexture          000000018002e388     opengl32:OPENGL32.dll
 0002:00000390       __imp_glGetFloatv          000000018002e390     opengl32:OPENGL32.dll
 0002:00000398       __imp_glCopyTexImage2D     000000018002e398     opengl32:OPENGL32.dll
 0002:000003a0       __imp_glPixelStorei        000000018002e3a0     opengl32:OPENGL32.dll
 0002:000003a8       __imp_glDepthFunc          000000018002e3a8     opengl32:OPENGL32.dll
 0002:000003b0       __imp_glTexSubImage2D      000000018002e3b0     opengl32:OPENGL32.dll
 0002:000003b8       __imp_glGetString          000000018002e3b8     opengl32:OPENGL32.dll
 0002:000003c0       __imp_glGetError           000000018002e3c0     opengl32:OPENGL32.dll
 0002:000003c8       __imp_glGetIntegerv        000000018002e3c8     opengl32:OPENGL32.dll
 0002:000003d0       __imp_glClearStencil       000000018002e3d0     opengl32:OPENGL32.dll
 0002:000003d8       __imp_glCopyTexSubImage2D  000000018002e3d8     opengl32:OPENGL32.dll
 0002:000003e0       __imp_glScissor            000000018002e3e0     opengl32:OPENGL32.dll
 0002:000003e8       __imp_glDepthMask          000000018002e3e8     opengl32:OPENGL32.dll
 0002:000003f0       __imp_glCullFace           000000018002e3f0     opengl32:OPENGL32.dll
 0002:000003f8       __imp_glEnable             000000018002e3f8     opengl32:OPENGL32.dll
 0002:00000400       __imp_glGenTextures        000000018002e400     opengl32:OPENGL32.dll
 0002:00000408       __imp_glBindTexture        000000018002e408     opengl32:OPENGL32.dll
 0002:00000410       __imp_glStencilMask        000000018002e410     opengl32:OPENGL32.dll
 0002:00000418       __imp_glPolygonOffset      000000018002e418     opengl32:OPENGL32.dll
 0002:00000420       __imp_glClear              000000018002e420     opengl32:OPENGL32.dll
 0002:00000428       __imp_glStencilOp          000000018002e428     opengl32:OPENGL32.dll
 0002:00000430       __imp_glViewport           000000018002e430     opengl32:OPENGL32.dll
 0002:00000438       __imp_glIsEnabled          000000018002e438     opengl32:OPENGL32.dll
 0002:00000440       \177OPENGL32_NULL_THUNK_DATA 000000018002e440     opengl32:OPENGL32.dll
 0002:00000448       __imp___glewUniform3fv     000000018002e448     glew32:glew32.dll
 0002:00000450       __imp___glewDeleteBuffers  000000018002e450     glew32:glew32.dll
 0002:00000458       __imp_glewInit             000000018002e458     glew32:glew32.dll
 0002:00000460       __imp___glewGetFramebufferAttachmentParameteriv 000000018002e460     glew32:glew32.dll
 0002:00000468       __imp___glewUniform4f      000000018002e468     glew32:glew32.dll
 0002:00000470       __imp___glewLinkProgram    000000018002e470     glew32:glew32.dll
 0002:00000478       __imp___glewGetActiveAttrib 000000018002e478     glew32:glew32.dll
 0002:00000480       __imp___glewUniform4fv     000000018002e480     glew32:glew32.dll
 0002:00000488       __imp___glewDeleteShader   000000018002e488     glew32:glew32.dll
 0002:00000490       __imp___glewUniform3f      000000018002e490     glew32:glew32.dll
 0002:00000498       __imp___glewUniform2i      000000018002e498     glew32:glew32.dll
 0002:000004a0       __imp___glewGetVertexAttribfv 000000018002e4a0     glew32:glew32.dll
 0002:000004a8       __imp___glewVertexAttrib1f 000000018002e4a8     glew32:glew32.dll
 0002:000004b0       __imp___glewVertexAttrib4fv 000000018002e4b0     glew32:glew32.dll
 0002:000004b8       __imp___glewGenerateMipmap 000000018002e4b8     glew32:glew32.dll
 0002:000004c0       __imp___glewGenBuffers     000000018002e4c0     glew32:glew32.dll
 0002:000004c8       __imp___glewBlendColor     000000018002e4c8     glew32:glew32.dll
 0002:000004d0       __imp___glewUniformMatrix2fv 000000018002e4d0     glew32:glew32.dll
 0002:000004d8       __imp___glewVertexAttrib1fv 000000018002e4d8     glew32:glew32.dll
 0002:000004e0       __imp___glewGetProgramInfoLog 000000018002e4e0     glew32:glew32.dll
 0002:000004e8       __imp___glewGenRenderbuffers 000000018002e4e8     glew32:glew32.dll
 0002:000004f0       __imp___glewDetachShader   000000018002e4f0     glew32:glew32.dll
 0002:000004f8       __imp___glewUniform4iv     000000018002e4f8     glew32:glew32.dll
 0002:00000500       __imp___glewStencilFuncSeparate 000000018002e500     glew32:glew32.dll
 0002:00000508       __imp___glewBindFramebuffer 000000018002e508     glew32:glew32.dll
 0002:00000510       __imp___glewUniformMatrix4fv 000000018002e510     glew32:glew32.dll
 0002:00000518       __imp___glewBindRenderbuffer 000000018002e518     glew32:glew32.dll
 0002:00000520       __imp___glewDisableVertexAttribArray 000000018002e520     glew32:glew32.dll
 0002:00000528       __imp___glewUniform4i      000000018002e528     glew32:glew32.dll
 0002:00000530       __imp___glewGenFramebuffers 000000018002e530     glew32:glew32.dll
 0002:00000538       __imp___glewFramebufferRenderbuffer 000000018002e538     glew32:glew32.dll
 0002:00000540       __imp___glewDeleteFramebuffers 000000018002e540     glew32:glew32.dll
 0002:00000548       __imp___glewBlendEquationSeparate 000000018002e548     glew32:glew32.dll
 0002:00000550       __imp___glewDeleteRenderbuffers 000000018002e550     glew32:glew32.dll
 0002:00000558       __imp___glewCheckFramebufferStatus 000000018002e558     glew32:glew32.dll
 0002:00000560       __imp___glewUniform1fv     000000018002e560     glew32:glew32.dll
 0002:00000568       __imp___glewRenderbufferStorage 000000018002e568     glew32:glew32.dll
 0002:00000570       __imp___glewBlendEquation  000000018002e570     glew32:glew32.dll
 0002:00000578       __imp___glewFramebufferTexture2D 000000018002e578     glew32:glew32.dll
 0002:00000580       __imp___glewVertexAttrib3fv 000000018002e580     glew32:glew32.dll
 0002:00000588       __imp___glewShaderSource   000000018002e588     glew32:glew32.dll
 0002:00000590       __imp___glewDeleteProgram  000000018002e590     glew32:glew32.dll
 0002:00000598       __imp___glewActiveTexture  000000018002e598     glew32:glew32.dll
 0002:000005a0       __imp___glewIsBuffer       000000018002e5a0     glew32:glew32.dll
 0002:000005a8       __imp___glewAttachShader   000000018002e5a8     glew32:glew32.dll
 0002:000005b0       __imp___glewGetVertexAttribiv 000000018002e5b0     glew32:glew32.dll
 0002:000005b8       __imp___glewDepthRangef    000000018002e5b8     glew32:glew32.dll
 0002:000005c0       __imp___glewBufferData     000000018002e5c0     glew32:glew32.dll
 0002:000005c8       __imp___glewGetActiveUniform 000000018002e5c8     glew32:glew32.dll
 0002:000005d0       __imp___glewVertexAttrib2fv 000000018002e5d0     glew32:glew32.dll
 0002:000005d8       __imp___glewGetUniformLocation 000000018002e5d8     glew32:glew32.dll
 0002:000005e0       __imp___glewVertexAttrib4f 000000018002e5e0     glew32:glew32.dll
 0002:000005e8       __imp___glewUniform1f      000000018002e5e8     glew32:glew32.dll
 0002:000005f0       __imp___glewBlendFuncSeparate 000000018002e5f0     glew32:glew32.dll
 0002:000005f8       __imp___glewStencilOpSeparate 000000018002e5f8     glew32:glew32.dll
 0002:00000600       __imp___glewVertexAttrib3f 000000018002e600     glew32:glew32.dll
 0002:00000608       __imp___glewIsProgram      000000018002e608     glew32:glew32.dll
 0002:00000610       __imp___glewGetRenderbufferParameteriv 000000018002e610     glew32:glew32.dll
 0002:00000618       __imp___glewGetShaderSource 000000018002e618     glew32:glew32.dll
 0002:00000620       __imp___glewUniform3i      000000018002e620     glew32:glew32.dll
 0002:00000628       __imp___glewUniform3iv     000000018002e628     glew32:glew32.dll
 0002:00000630       __imp_glewGetErrorString   000000018002e630     glew32:glew32.dll
 0002:00000638       __imp___glewGetProgramiv   000000018002e638     glew32:glew32.dll
 0002:00000640       __imp___glewUniform2f      000000018002e640     glew32:glew32.dll
 0002:00000648       __imp___glewValidateProgram 000000018002e648     glew32:glew32.dll
 0002:00000650       __imp___glewUniform1iv     000000018002e650     glew32:glew32.dll
 0002:00000658       __imp___glewBufferSubData  000000018002e658     glew32:glew32.dll
 0002:00000660       __imp___glewGetBufferParameteriv 000000018002e660     glew32:glew32.dll
 0002:00000668       __imp___glewGetShaderInfoLog 000000018002e668     glew32:glew32.dll
 0002:00000670       __imp___glewUniform1i      000000018002e670     glew32:glew32.dll
 0002:00000678       __imp___glewIsFramebuffer  000000018002e678     glew32:glew32.dll
 0002:00000680       __imp___glewUniform2fv     000000018002e680     glew32:glew32.dll
 0002:00000688       __imp___glewCreateProgram  000000018002e688     glew32:glew32.dll
 0002:00000690       __imp___glewBindAttribLocation 000000018002e690     glew32:glew32.dll
 0002:00000698       __imp___glewVertexAttrib2f 000000018002e698     glew32:glew32.dll
 0002:000006a0       __imp___glewBindBuffer     000000018002e6a0     glew32:glew32.dll
 0002:000006a8       __imp___glewIsShader       000000018002e6a8     glew32:glew32.dll
 0002:000006b0       __imp___glewCreateShader   000000018002e6b0     glew32:glew32.dll
 0002:000006b8       __imp___glewGetAttribLocation 000000018002e6b8     glew32:glew32.dll
 0002:000006c0       __imp___glewCompileShader  000000018002e6c0     glew32:glew32.dll
 0002:000006c8       __imp___glewGetShaderiv    000000018002e6c8     glew32:glew32.dll
 0002:000006d0       __imp___glewIsRenderbuffer 000000018002e6d0     glew32:glew32.dll
 0002:000006d8       __imp___glewStencilMaskSeparate 000000018002e6d8     glew32:glew32.dll
 0002:000006e0       __imp___glewVertexAttribPointer 000000018002e6e0     glew32:glew32.dll
 0002:000006e8       __imp___glewUseProgram     000000018002e6e8     glew32:glew32.dll
 0002:000006f0       __imp___glewGetVertexAttribPointerv 000000018002e6f0     glew32:glew32.dll
 0002:000006f8       __imp___glewUniformMatrix3fv 000000018002e6f8     glew32:glew32.dll
 0002:00000700       __imp___glewUniform2iv     000000018002e700     glew32:glew32.dll
 0002:00000708       __imp___glewEnableVertexAttribArray 000000018002e708     glew32:glew32.dll
 0002:00000710       __imp___glewGetAttachedShaders 000000018002e710     glew32:glew32.dll
 0002:00000718       \177glew32_NULL_THUNK_DATA 000000018002e718     glew32:glew32.dll
 0002:00000720       __guard_check_icall_fptr   000000018002e720     LIBCMT:guard_support.obj
 0002:00000728       __guard_dispatch_icall_fptr 000000018002e728     LIBCMT:guard_support.obj
 0002:00000730       __xc_a                     000000018002e730     LIBCMT:initializers.obj
 0002:00000750       _register_webgl_           000000018002e750     bindings.obj
 0002:00000758       __xc_z                     000000018002e758     LIBCMT:initializers.obj
 0002:00000760       __xi_a                     000000018002e760     LIBCMT:initializers.obj
 0002:00000768       __acrt_stdio_initializer   000000018002e768     libucrt:stdio_initializer.obj
 0002:00000770       __acrt_multibyte_initializer 000000018002e770     libucrt:multibyte_initializer.obj
 0002:00000778       __acrt_tran_fma3_initializer 000000018002e778     libucrt:fma3_initializer.obj
 0002:00000780       __xi_z                     000000018002e780     LIBCMT:initializers.obj
 0002:00000788       __xp_a                     000000018002e788     LIBCMT:initializers.obj
 0002:00000790       __acrt_locale_terminator   000000018002e790     libucrt:locale_initializer.obj
 0002:00000798       __dcrt_console_output_terminator 000000018002e798     libucrt:console_output_initializer.obj
 0002:000007a0       __acrt_stdio_terminator    000000018002e7a0     libucrt:stdio_initializer.obj
 0002:000007a8       __xp_z                     000000018002e7a8     LIBCMT:initializers.obj
 0002:000007b0       __xt_a                     000000018002e7b0     LIBCMT:initializers.obj
 0002:000007b8       __xt_z                     000000018002e7b8     LIBCMT:initializers.obj
 0002:000007c0       __sz_node_exe              000000018002e7c0     node:node.exe
 0002:000007d8       ??_7exception@std@@6B@     000000018002e7d8     libcpmt:xthrow.obj
 0002:000007e8       ??_C@_0BC@EOODALEL@Unknown?5exception?$AA@ 000000018002e7e8     libcpmt:xthrow.obj
 0002:00000808       ??_7bad_alloc@std@@6B@     000000018002e808     libcpmt:xthrow.obj
 0002:00000818       ??_C@_0P@GHFPNOJB@bad?5allocation?$AA@ 000000018002e818     libcpmt:xthrow.obj
 0002:00000830       ??_7logic_error@std@@6B@   000000018002e830     libcpmt:xthrow.obj
 0002:00000848       ??_7length_error@std@@6B@  000000018002e848     libcpmt:xthrow.obj
 0002:00000858       _pRawDllMain               000000018002e858     LIBCMT:dll_dllmain.obj
 0002:00000858       _pDefaultRawDllMain        000000018002e858     LIBCMT:dll_dllmain.obj
 0002:00000868       ??_7type_info@@6B@         000000018002e868     LIBCMT:std_type_info_static.obj
 0002:00000888       ??_7bad_array_new_length@std@@6B@ 000000018002e888     LIBCMT:throw_bad_alloc.obj
 0002:00000898       ??_C@_0BF@KINCDENJ@bad?5array?5new?5length?$AA@ 000000018002e898     LIBCMT:throw_bad_alloc.obj
 0002:000008b0       _pDestructExceptionObject  000000018002e8b0     libvcruntime:frame.obj
 0002:000008c0       ??_7bad_exception@std@@6B@ 000000018002e8c0     libvcruntime:frame.obj
 0002:000008d0       ??_C@_0O@DPKOEFFH@bad?5exception?$AA@ 000000018002e8d0     libvcruntime:frame.obj
 0002:000009d8       ??_C@_1BC@DNHGCMLG@?$AAa?$AAd?$AAv?$AAa?$AAp?$AAi?$AA3?$AA2?$AA?$AA@ 000000018002e9d8     libvcruntime:winapi_downlevel.obj
 0002:000009f0       ??_C@_1DM@KHCHBNEB@?$AAa?$AAp?$AAi?$AA?9?$AAm?$AAs?$AA?9?$AAw?$AAi?$AAn?$AA?9?$AAc?$AAo?$AAr?$AAe?$AA?9?$AAf?$AAi?$AAb?$AAe?$AAr?$AAs?$AA?9?$AAl?$AA1?$AA?9?$AA1?$AA?9?$AA1?$AA?$AA@ 000000018002e9f0     libvcruntime:winapi_downlevel.obj
 0002:00000a30       ??_C@_1DK@LPPGFMPP@?$AAa?$AAp?$AAi?$AA?9?$AAm?$AAs?$AA?9?$AAw?$AAi?$AAn?$AA?9?$AAc?$AAo?$AAr?$AAe?$AA?9?$AAs?$AAy?$AAn?$AAc?$AAh?$AA?9?$AAl?$AA1?$AA?9?$AA2?$AA?9?$AA0?$AA?$AA@ 000000018002ea30     libvcruntime:winapi_downlevel.obj
 0002:00000a70       ??_C@_1BC@GDMECMAK@?$AAk?$AAe?$AAr?$AAn?$AAe?$AAl?$AA3?$AA2?$AA?$AA@ 000000018002ea70     libvcruntime:winapi_downlevel.obj
 0002:00000a90       ??_C@_08KNHFBNJ@FlsAlloc?$AA@ 000000018002ea90     libvcruntime:winapi_downlevel.obj
 0002:00000aa8       ??_C@_07PEJMOBNF@FlsFree?$AA@ 000000018002eaa8     libvcruntime:winapi_downlevel.obj
 0002:00000ab8       ??_C@_0M@GDNOONDI@FlsGetValue?$AA@ 000000018002eab8     libvcruntime:winapi_downlevel.obj
 0002:00000ad0       ??_C@_0M@JCPCPOEF@FlsSetValue?$AA@ 000000018002ead0     libvcruntime:winapi_downlevel.obj
 0002:00000ae8       ??_C@_0BM@HCFOFFN@InitializeCriticalSectionEx?$AA@ 000000018002eae8     libvcruntime:winapi_downlevel.obj
 0002:00000e30       ??_C@_08EHJDFFNH@__based?$CI?$AA@ 000000018002ee30     libvcruntime:undname.obj
 0002:00000e40       ??_C@_07KOLFKCDI@__cdecl?$AA@ 000000018002ee40     libvcruntime:undname.obj
 0002:00000e48       ??_C@_08GHMPAG@__pascal?$AA@ 000000018002ee48     libvcruntime:undname.obj
 0002:00000e58       ??_C@_09IFJBGAPI@__stdcall?$AA@ 000000018002ee58     libvcruntime:undname.obj
 0002:00000e68       ??_C@_0L@NPHFGOKO@__thiscall?$AA@ 000000018002ee68     libvcruntime:undname.obj
 0002:00000e78       ??_C@_0L@JMKHOMEK@__fastcall?$AA@ 000000018002ee78     libvcruntime:undname.obj
 0002:00000e88       ??_C@_0N@BCKKPABJ@__vectorcall?$AA@ 000000018002ee88     libvcruntime:undname.obj
 0002:00000e98       ??_C@_09HIJEGCPM@__clrcall?$AA@ 000000018002ee98     libvcruntime:undname.obj
 0002:00000ea4       ??_C@_06GHPCKEAG@__eabi?$AA@ 000000018002eea4     libvcruntime:undname.obj
 0002:00000eb0       ??_C@_07JOMMBBKO@__ptr64?$AA@ 000000018002eeb0     libvcruntime:undname.obj
 0002:00000eb8       ??_C@_0L@PILCLIHE@__restrict?$AA@ 000000018002eeb8     libvcruntime:undname.obj
 0002:00000ec8       ??_C@_0M@GFIIJFMG@__unaligned?$AA@ 000000018002eec8     libvcruntime:undname.obj
 0002:00000ed8       ??_C@_09DHDLOLLB@restrict?$CI?$AA@ 000000018002eed8     libvcruntime:undname.obj
 0002:00000ee2       ??_C@_00CNPNBAHC@?$AA@     000000018002eee2     libvcruntime:undname.obj
 0002:00000ee4       ??_C@_04NIHEBCM@?5new?$AA@ 000000018002eee4     libvcruntime:undname.obj
 0002:00000ef0       ??_C@_07FPCDHGMM@?5delete?$AA@ 000000018002eef0     libvcruntime:undname.obj
 0002:00000ef8       ??_C@_01NEMOKFLO@?$DN?$AA@ 000000018002eef8     libvcruntime:undname.obj
 0002:00000efc       ??_C@_02GPIOPFAK@?$DO?$DO?$AA@ 000000018002eefc     libvcruntime:undname.obj
 0002:00000f00       ??_C@_02FODMEDOG@?$DM?$DM?$AA@ 000000018002ef00     libvcruntime:undname.obj
 0002:00000f04       ??_C@_01DCLJPIOD@?$CB?$AA@ 000000018002ef04     libvcruntime:undname.obj
 0002:00000f08       ??_C@_02EGOFBIJA@?$DN?$DN?$AA@ 000000018002ef08     libvcruntime:undname.obj
 0002:00000f0c       ??_C@_02FDNJECIE@?$CB?$DN?$AA@ 000000018002ef0c     libvcruntime:undname.obj
 0002:00000f10       ??_C@_02GPECMEKF@?$FL?$FN?$AA@ 000000018002ef10     libvcruntime:undname.obj
 0002:00000f18       ??_C@_08LHJFAFGD@operator?$AA@ 000000018002ef18     libvcruntime:undname.obj
 0002:00000f24       ??_C@_02HBOOOICD@?9?$DO?$AA@ 000000018002ef24     libvcruntime:undname.obj
 0002:00000f28       ??_C@_01NBENCBCI@?$CK?$AA@ 000000018002ef28     libvcruntime:undname.obj
 0002:00000f2c       ??_C@_02ECNGHCIF@?$CL?$CL?$AA@ 000000018002ef2c     libvcruntime:undname.obj
 0002:00000f30       ??_C@_02BAABKJLB@?9?9?$AA@ 000000018002ef30     libvcruntime:undname.obj
 0002:00000f34       ??_C@_01JOAMLHOP@?9?$AA@   000000018002ef34     libvcruntime:undname.obj
 0002:00000f38       ??_C@_01MIFGBAGJ@?$CL?$AA@ 000000018002ef38     libvcruntime:undname.obj
 0002:00000f3c       ??_C@_01HNPIGOCE@?$CG?$AA@ 000000018002ef3c     libvcruntime:undname.obj
 0002:00000f40       ??_C@_03MNHNFDLC@?9?$DO?$CK?$AA@ 000000018002ef40     libvcruntime:undname.obj
 0002:00000f44       ??_C@_01KMDKNFGN@?1?$AA@   000000018002ef44     libvcruntime:undname.obj
 0002:00000f48       ??_C@_01FGNFDNOH@?$CF?$AA@ 000000018002ef48     libvcruntime:undname.obj
 0002:00000f4c       ??_C@_01MNNFJEPP@?$DM?$AA@ 000000018002ef4c     libvcruntime:undname.obj
 0002:00000f50       ??_C@_02EHCHHCKH@?$DM?$DN?$AA@ 000000018002ef50     libvcruntime:undname.obj
 0002:00000f54       ??_C@_01PPODPGHN@?$DO?$AA@ 000000018002ef54     libvcruntime:undname.obj
 0002:00000f58       ??_C@_02EEKDKGMJ@?$DO?$DN?$AA@ 000000018002ef58     libvcruntime:undname.obj
 0002:00000f5c       ??_C@_01IHBHIGKO@?0?$AA@   000000018002ef5c     libvcruntime:undname.obj
 0002:00000f60       ??_C@_02HCKGKOFO@?$CI?$CJ?$AA@ 000000018002ef60     libvcruntime:undname.obj
 0002:00000f64       ??_C@_01PJKLJHI@?$HO?$AA@  000000018002ef64     libvcruntime:undname.obj
 0002:00000f68       ??_C@_01JKBOJNNK@?$FO?$AA@ 000000018002ef68     libvcruntime:undname.obj
 0002:00000f6c       ??_C@_01DNKMNLPK@?$HM?$AA@ 000000018002ef6c     libvcruntime:undname.obj
 0002:00000f70       ??_C@_02PPKAJPJL@?$CG?$CG?$AA@ 000000018002ef70     libvcruntime:undname.obj
 0002:00000f74       ??_C@_02NONPIBCD@?$HM?$HM?$AA@ 000000018002ef74     libvcruntime:undname.obj
 0002:00000f78       ??_C@_02FPIMKNGF@?$CK?$DN?$AA@ 000000018002ef78     libvcruntime:undname.obj
 0002:00000f7c       ??_C@_02FOEOMHFC@?$CL?$DN?$AA@ 000000018002ef7c     libvcruntime:undname.obj
 0002:00000f80       ??_C@_02FKMDLLOA@?9?$DN?$AA@ 000000018002ef80     libvcruntime:undname.obj
 0002:00000f84       ??_C@_02FJEHGPIO@?1?$DN?$AA@ 000000018002ef84     libvcruntime:undname.obj
 0002:00000f88       ??_C@_02FENAOKFI@?$CF?$DN?$AA@ 000000018002ef88     libvcruntime:undname.obj
 0002:00000f8c       ??_C@_03IKFCCPFF@?$DO?$DO?$DN?$AA@ 000000018002ef8c     libvcruntime:undname.obj
 0002:00000f90       ??_C@_03CDNPDDLA@?$DM?$DM?$DN?$AA@ 000000018002ef90     libvcruntime:undname.obj
 0002:00000f94       ??_C@_02FGJGFEAB@?$CG?$DN?$AA@ 000000018002ef94     libvcruntime:undname.obj
 0002:00000f98       ??_C@_02DHLNPPGH@?$HM?$DN?$AA@ 000000018002ef98     libvcruntime:undname.obj
 0002:00000f9c       ??_C@_02MHEGNOJ@?$FO?$DN?$AA@ 000000018002ef9c     libvcruntime:undname.obj
 0002:00000fa0       ??_C@_09IFPLHPGF@?$GAvftable?8?$AA@ 000000018002efa0     libvcruntime:undname.obj
 0002:00000fb0       ??_C@_09BLBHBJP@?$GAvbtable?8?$AA@ 000000018002efb0     libvcruntime:undname.obj
 0002:00000fc0       ??_C@_07FEEIOKP@?$GAvcall?8?$AA@ 000000018002efc0     libvcruntime:undname.obj
 0002:00000fc8       ??_C@_08LLFFHHDJ@?$GAtypeof?8?$AA@ 000000018002efc8     libvcruntime:undname.obj
 0002:00000fd8       ??_C@_0BF@KDPPACIK@?$GAlocal?5static?5guard?8?$AA@ 000000018002efd8     libvcruntime:undname.obj
 0002:00000ff0       ??_C@_08OBABFOLI@?$GAstring?8?$AA@ 000000018002eff0     libvcruntime:undname.obj
 0002:00001000       ??_C@_0BD@JDLKDPAB@?$GAvbase?5destructor?8?$AA@ 000000018002f000     libvcruntime:undname.obj
 0002:00001018       ??_C@_0BN@DEGPLNFK@?$GAvector?5deleting?5destructor?8?$AA@ 000000018002f018     libvcruntime:undname.obj
 0002:00001038       ??_C@_0BO@OBMKPJIG@?$GAdefault?5constructor?5closure?8?$AA@ 000000018002f038     libvcruntime:undname.obj
 0002:00001058       ??_C@_0BN@IMDCHIKM@?$GAscalar?5deleting?5destructor?8?$AA@ 000000018002f058     libvcruntime:undname.obj
 0002:00001078       ??_C@_0BO@PFGOCPJJ@?$GAvector?5constructor?5iterator?8?$AA@ 000000018002f078     libvcruntime:undname.obj
 0002:00001098       ??_C@_0BN@LFPFMEDL@?$GAvector?5destructor?5iterator?8?$AA@ 000000018002f098     libvcruntime:undname.obj
 0002:000010b8       ??_C@_0CE@IKBNEHA@?$GAvector?5vbase?5constructor?5iterat@ 000000018002f0b8     libvcruntime:undname.obj
 0002:000010e0       ??_C@_0BL@NILFHHPC@?$GAvirtual?5displacement?5map?8?$AA@ 000000018002f0e0     libvcruntime:undname.obj
 0002:00001100       ??_C@_0CB@JONCMFFK@?$GAeh?5vector?5constructor?5iterator?8@ 000000018002f100     libvcruntime:undname.obj
 0002:00001128       ??_C@_0CA@GCEOPDGL@?$GAeh?5vector?5destructor?5iterator?8?$AA@ 000000018002f128     libvcruntime:undname.obj
 0002:00001148       ??_C@_0CH@OOJPLCPH@?$GAeh?5vector?5vbase?5constructor?5ite@ 000000018002f148     libvcruntime:undname.obj
 0002:00001170       ??_C@_0BL@LLKPOHJI@?$GAcopy?5constructor?5closure?8?$AA@ 000000018002f170     libvcruntime:undname.obj
 0002:00001190       ??_C@_0BA@KBCDOMBN@?$GAudt?5returning?8?$AA@ 000000018002f190     libvcruntime:undname.obj
 0002:000011a0       ??_C@_03KLGMFNMG@?$GAEH?$AA@ 000000018002f1a0     libvcruntime:undname.obj
 0002:000011a4       ??_C@_05KHLCHHI@?$GARTTI?$AA@ 000000018002f1a4     libvcruntime:undname.obj
 0002:000011b0       ??_C@_0BA@KKLDJDLB@?$GAlocal?5vftable?8?$AA@ 000000018002f1b0     libvcruntime:undname.obj
 0002:000011c0       ??_C@_0CE@IIHCMGGL@?$GAlocal?5vftable?5constructor?5closu@ 000000018002f1c0     libvcruntime:undname.obj
 0002:000011e4       ??_C@_06FHBGPFGH@?5new?$FL?$FN?$AA@ 000000018002f1e4     libvcruntime:undname.obj
 0002:000011f0       ??_C@_09LBNFPBCA@?5delete?$FL?$FN?$AA@ 000000018002f1f0     libvcruntime:undname.obj
 0002:00001200       ??_C@_0P@HJKNJFNN@?$GAomni?5callsig?8?$AA@ 000000018002f200     libvcruntime:undname.obj
 0002:00001210       ??_C@_0BL@CNOONJFP@?$GAplacement?5delete?5closure?8?$AA@ 000000018002f210     libvcruntime:undname.obj
 0002:00001230       ??_C@_0BN@CKNJLHMB@?$GAplacement?5delete?$FL?$FN?5closure?8?$AA@ 000000018002f230     libvcruntime:undname.obj
 0002:00001250       ??_C@_0CG@CFDHKGGD@?$GAmanaged?5vector?5constructor?5iter@ 000000018002f250     libvcruntime:undname.obj
 0002:00001278       ??_C@_0CF@IMGKMJNO@?$GAmanaged?5vector?5destructor?5itera@ 000000018002f278     libvcruntime:undname.obj
 0002:000012a0       ??_C@_0CG@HLDDJMAG@?$GAeh?5vector?5copy?5constructor?5iter@ 000000018002f2a0     libvcruntime:undname.obj
 0002:000012c8       ??_C@_0CM@FCBBDIGB@?$GAeh?5vector?5vbase?5copy?5constructo@ 000000018002f2c8     libvcruntime:undname.obj
 0002:000012f8       ??_C@_0BL@CLIPGLGB@?$GAdynamic?5initializer?5for?5?8?$AA@ 000000018002f2f8     libvcruntime:undname.obj
 0002:00001318       ??_C@_0CB@PDBIFEP@?$GAdynamic?5atexit?5destructor?5for?5?8@ 000000018002f318     libvcruntime:undname.obj
 0002:00001340       ??_C@_0CD@CGAJBKEJ@?$GAvector?5copy?5constructor?5iterato@ 000000018002f340     libvcruntime:undname.obj
 0002:00001368       ??_C@_0CJ@GJELGAMM@?$GAvector?5vbase?5copy?5constructor?5i@ 000000018002f368     libvcruntime:undname.obj
 0002:00001398       ??_C@_0CL@FGIJHLCE@?$GAmanaged?5vector?5copy?5constructor@ 000000018002f398     libvcruntime:undname.obj
 0002:000013c8       ??_C@_0BM@PMGGMLDN@?$GAlocal?5static?5thread?5guard?8?$AA@ 000000018002f3c8     libvcruntime:undname.obj
 0002:000013e8       ??_C@_0N@BDNMDMOL@operator?5?$CC?$CC?5?$AA@ 000000018002f3e8     libvcruntime:undname.obj
 0002:000013f8       ??_C@_0BC@DAFEJGAK@?5Type?5Descriptor?8?$AA@ 000000018002f3f8     libvcruntime:undname.obj
 0002:00001410       ??_C@_0BM@LDKODKLH@?5Base?5Class?5Descriptor?5at?5?$CI?$AA@ 000000018002f410     libvcruntime:undname.obj
 0002:00001430       ??_C@_0BD@LGICGFMM@?5Base?5Class?5Array?8?$AA@ 000000018002f430     libvcruntime:undname.obj
 0002:00001448       ??_C@_0BN@MECKDCOJ@?5Class?5Hierarchy?5Descriptor?8?$AA@ 000000018002f448     libvcruntime:undname.obj
 0002:00001468       ??_C@_0BK@CFCOFLF@?5Complete?5Object?5Locator?8?$AA@ 000000018002f468     libvcruntime:undname.obj
 0002:00001490       ??_C@_1EK@MBDPDCGA@?$AAM?$AAi?$AAc?$AAr?$AAo?$AAs?$AAo?$AAf?$AAt?$AA?5?$AAV?$AAi?$AAs?$AAu?$AAa?$AAl?$AA?5?$AAC?$AA?$CL?$AA?$CL?$AA?5?$AAR?$AAu?$AAn?$AAt?$AAi?$AAm?$AAe?$AA?5?$AAL?$AAi?$AAb@ 000000018002f490     libucrt:assert.obj
 0002:000014e0       ??_C@_1FE@LHBLIKM@?$AAA?$AAs?$AAs?$AAe?$AAr?$AAt?$AAi?$AAo?$AAn?$AA?5?$AAf?$AAa?$AAi?$AAl?$AAe?$AAd?$AA?3?$AA?5?$AA?$CF?$AAT?$AAs?$AA?0?$AA?5?$AAf?$AAi?$AAl?$AAe?$AA?5?$AA?$CF?$AAT?$AAs?$AA?0@ 000000018002f4e0     libucrt:assert.obj
 0002:00001538       ??_C@_1CE@OJBNHDMO@?$AAA?$AAs?$AAs?$AAe?$AAr?$AAt?$AAi?$AAo?$AAn?$AA?5?$AAf?$AAa?$AAi?$AAl?$AAe?$AAd?$AA?$CB?$AA?$AA@ 000000018002f538     libucrt:assert.obj
 0002:00001560       ??_C@_1BE@PHKBBGE@?$AAP?$AAr?$AAo?$AAg?$AAr?$AAa?$AAm?$AA?3?$AA?5?$AA?$AA@ 000000018002f560     libucrt:assert.obj
 0002:00001578       ??_C@_1O@HEMHKNDC@?$AAF?$AAi?$AAl?$AAe?$AA?3?$AA?5?$AA?$AA@ 000000018002f578     libucrt:assert.obj
 0002:00001588       ??_C@_1O@KCAFKHJE@?$AAL?$AAi?$AAn?$AAe?$AA?3?$AA?5?$AA?$AA@ 000000018002f588     libucrt:assert.obj
 0002:00001598       ??_C@_1BK@PEDCIPMA@?$AAE?$AAx?$AAp?$AAr?$AAe?$AAs?$AAs?$AAi?$AAo?$AAn?$AA?3?$AA?5?$AA?$AA@ 000000018002f598     libucrt:assert.obj
 0002:000015c0       ??_C@_1OA@EGMLFBHJ@?$AAF?$AAo?$AAr?$AA?5?$AAi?$AAn?$AAf?$AAo?$AAr?$AAm?$AAa?$AAt?$AAi?$AAo?$AAn?$AA?5?$AAo?$AAn?$AA?5?$AAh?$AAo?$AAw?$AA?5?$AAy?$AAo?$AAu?$AAr?$AA?5?$AAp?$AAr?$AAo?$AAg@ 000000018002f5c0     libucrt:assert.obj
 0002:000016a0       ??_C@_1HK@POCJMFGK@?$AA?$CI?$AAP?$AAr?$AAe?$AAs?$AAs?$AA?5?$AAR?$AAe?$AAt?$AAr?$AAy?$AA?5?$AAt?$AAo?$AA?5?$AAd?$AAe?$AAb?$AAu?$AAg?$AA?5?$AAt?$AAh?$AAe?$AA?5?$AAa?$AAp?$AAp?$AAl?$AAi?$AAc@ 000000018002f6a0     libucrt:assert.obj
 0002:00001720       ??_C@_17LGKOMLJ@?$AA?4?$AA?4?$AA?4?$AA?$AA@ 000000018002f720     libucrt:assert.obj
 0002:00001728       ??_C@_13LBAGMAIH@?$AA?6?$AA?$AA@ 000000018002f728     libucrt:assert.obj
 0002:0000172c       ??_C@_15IABLJNFO@?$AA?6?$AA?6?$AA?$AA@ 000000018002f72c     libucrt:assert.obj
 0002:00001738       ??_C@_1CO@EAEJAADC@?$AA?$DM?$AAp?$AAr?$AAo?$AAg?$AAr?$AAa?$AAm?$AA?5?$AAn?$AAa?$AAm?$AAe?$AA?5?$AAu?$AAn?$AAk?$AAn?$AAo?$AAw?$AAn?$AA?$DO?$AA?$AA@ 000000018002f738     libucrt:assert.obj
 0002:00001770       standard_lookup_table      000000018002f770     libucrt:output.obj
 0002:000017cc       ??_C@_06OJHGLDPL@?$CInull?$CJ?$AA@ 000000018002f7cc     libucrt:output.obj
 0002:000017d8       ??_C@_1O@CEDCILHN@?$AA?$CI?$AAn?$AAu?$AAl?$AAl?$AA?$CJ?$AA?$AA@ 000000018002f7d8     libucrt:output.obj
 0002:000017f0       __acrt_exception_action_table 000000018002f7f0     libucrt:exception_filter.obj
 0002:000018b0       __acrt_signal_action_table_count 000000018002f8b0     libucrt:exception_filter.obj
 0002:000018b8       __acrt_signal_action_first_fpe_index 000000018002f8b8     libucrt:exception_filter.obj
 0002:000018c0       __acrt_signal_action_fpe_count 000000018002f8c0     libucrt:exception_filter.obj
 0002:000018c8       ??_C@_1BI@BGOHAHKC@?$AAm?$AAs?$AAc?$AAo?$AAr?$AAe?$AAe?$AA?4?$AAd?$AAl?$AAl?$AA?$AA@ 000000018002f8c8     libucrt:exit.obj
 0002:000018e0       ??_C@_0P@MIGLKIOC@CorExitProcess?$AA@ 000000018002f8e0     libucrt:exit.obj
 0002:00001bf0       ??_C@_1EG@CNNIPFIM@?$AAa?$AAp?$AAi?$AA?9?$AAm?$AAs?$AA?9?$AAw?$AAi?$AAn?$AA?9?$AAa?$AAp?$AAp?$AAm?$AAo?$AAd?$AAe?$AAl?$AA?9?$AAr?$AAu?$AAn?$AAt?$AAi?$AAm?$AAe?$AA?9?$AAl?$AA1?$AA?9?$AA1@ 000000018002fbf0     libucrt:winapi_thunks.obj
 0002:00001c40       ??_C@_1EA@JGEFHKEI@?$AAa?$AAp?$AAi?$AA?9?$AAm?$AAs?$AA?9?$AAw?$AAi?$AAn?$AA?9?$AAc?$AAo?$AAr?$AAe?$AA?9?$AAd?$AAa?$AAt?$AAe?$AAt?$AAi?$AAm?$AAe?$AA?9?$AAl?$AA1?$AA?9?$AA1?$AA?9?$AA1?$AA?$AA@ 000000018002fc40     libucrt:winapi_thunks.obj
 0002:00001c80       ??_C@_1DI@GCIAAENM@?$AAa?$AAp?$AAi?$AA?9?$AAm?$AAs?$AA?9?$AAw?$AAi?$AAn?$AA?9?$AAc?$AAo?$AAr?$AAe?$AA?9?$AAf?$AAi?$AAl?$AAe?$AA?9?$AAl?$AA2?$AA?9?$AA1?$AA?9?$AA1?$AA?$AA@ 000000018002fc80     libucrt:winapi_thunks.obj
 0002:00001cc0       ??_C@_1EI@MPIAOHOC@?$AAa?$AAp?$AAi?$AA?9?$AAm?$AAs?$AA?9?$AAw?$AAi?$AAn?$AA?9?$AAc?$AAo?$AAr?$AAe?$AA?9?$AAl?$AAo?$AAc?$AAa?$AAl?$AAi?$AAz?$AAa?$AAt?$AAi?$AAo?$AAn?$AA?9?$AAl?$AA1?$AA?9@ 000000018002fcc0     libucrt:winapi_thunks.obj
 0002:00001d10       ??_C@_1FK@FPHCKFIE@?$AAa?$AAp?$AAi?$AA?9?$AAm?$AAs?$AA?9?$AAw?$AAi?$AAn?$AA?9?$AAc?$AAo?$AAr?$AAe?$AA?9?$AAl?$AAo?$AAc?$AAa?$AAl?$AAi?$AAz?$AAa?$AAt?$AAi?$AAo?$AAn?$AA?9?$AAo?$AAb?$AAs@ 000000018002fd10     libucrt:winapi_thunks.obj
 0002:00001d70       ??_C@_1EM@DILCGIIO@?$AAa?$AAp?$AAi?$AA?9?$AAm?$AAs?$AA?9?$AAw?$AAi?$AAn?$AA?9?$AAc?$AAo?$AAr?$AAe?$AA?9?$AAp?$AAr?$AAo?$AAc?$AAe?$AAs?$AAs?$AAt?$AAh?$AAr?$AAe?$AAa?$AAd?$AAs?$AA?9?$AAl@ 000000018002fd70     libucrt:winapi_thunks.obj
 0002:00001dc0       ??_C@_1DM@LNCGDDPN@?$AAa?$AAp?$AAi?$AA?9?$AAm?$AAs?$AA?9?$AAw?$AAi?$AAn?$AA?9?$AAc?$AAo?$AAr?$AAe?$AA?9?$AAs?$AAt?$AAr?$AAi?$AAn?$AAg?$AA?9?$AAl?$AA1?$AA?9?$AA1?$AA?9?$AA0?$AA?$AA@ 000000018002fdc0     libucrt:winapi_thunks.obj
 0002:00001e00       ??_C@_1DO@FPAPJEMD@?$AAa?$AAp?$AAi?$AA?9?$AAm?$AAs?$AA?9?$AAw?$AAi?$AAn?$AA?9?$AAc?$AAo?$AAr?$AAe?$AA?9?$AAs?$AAy?$AAs?$AAi?$AAn?$AAf?$AAo?$AA?9?$AAl?$AA1?$AA?9?$AA2?$AA?9?$AA1?$AA?$AA@ 000000018002fe00     libucrt:winapi_thunks.obj
 0002:00001e40       ??_C@_1DK@NDHNAHIO@?$AAa?$AAp?$AAi?$AA?9?$AAm?$AAs?$AA?9?$AAw?$AAi?$AAn?$AA?9?$AAc?$AAo?$AAr?$AAe?$AA?9?$AAw?$AAi?$AAn?$AAr?$AAt?$AA?9?$AAl?$AA1?$AA?9?$AA1?$AA?9?$AA0?$AA?$AA@ 000000018002fe40     libucrt:winapi_thunks.obj
 0002:00001e80       ??_C@_1DM@KGHDGBCM@?$AAa?$AAp?$AAi?$AA?9?$AAm?$AAs?$AA?9?$AAw?$AAi?$AAn?$AA?9?$AAc?$AAo?$AAr?$AAe?$AA?9?$AAx?$AAs?$AAt?$AAa?$AAt?$AAe?$AA?9?$AAl?$AA2?$AA?9?$AA1?$AA?9?$AA0?$AA?$AA@ 000000018002fe80     libucrt:winapi_thunks.obj
 0002:00001ec0       ??_C@_1EO@IJIOEFOH@?$AAa?$AAp?$AAi?$AA?9?$AAm?$AAs?$AA?9?$AAw?$AAi?$AAn?$AA?9?$AAr?$AAt?$AAc?$AAo?$AAr?$AAe?$AA?9?$AAn?$AAt?$AAu?$AAs?$AAe?$AAr?$AA?9?$AAw?$AAi?$AAn?$AAd?$AAo?$AAw?$AA?9@ 000000018002fec0     libucrt:winapi_thunks.obj
 0002:00001f10       ??_C@_1FG@HHGEKANL@?$AAa?$AAp?$AAi?$AA?9?$AAm?$AAs?$AA?9?$AAw?$AAi?$AAn?$AA?9?$AAs?$AAe?$AAc?$AAu?$AAr?$AAi?$AAt?$AAy?$AA?9?$AAs?$AAy?$AAs?$AAt?$AAe?$AAm?$AAf?$AAu?$AAn?$AAc?$AAt?$AAi@ 000000018002ff10     libucrt:winapi_thunks.obj
 0002:00001f70       ??_C@_1FG@NCKKOLKO@?$AAe?$AAx?$AAt?$AA?9?$AAm?$AAs?$AA?9?$AAw?$AAi?$AAn?$AA?9?$AAk?$AAe?$AAr?$AAn?$AAe?$AAl?$AA3?$AA2?$AA?9?$AAp?$AAa?$AAc?$AAk?$AAa?$AAg?$AAe?$AA?9?$AAc?$AAu?$AAr?$AAr@ 000000018002ff70     libucrt:winapi_thunks.obj
 0002:00001fd0       ??_C@_1EG@DBIOJECG@?$AAe?$AAx?$AAt?$AA?9?$AAm?$AAs?$AA?9?$AAw?$AAi?$AAn?$AA?9?$AAn?$AAt?$AAu?$AAs?$AAe?$AAr?$AA?9?$AAd?$AAi?$AAa?$AAl?$AAo?$AAg?$AAb?$AAo?$AAx?$AA?9?$AAl?$AA1?$AA?9?$AA1@ 000000018002ffd0     libucrt:winapi_thunks.obj
 0002:00002020       ??_C@_1EO@FIHMJCLF@?$AAe?$AAx?$AAt?$AA?9?$AAm?$AAs?$AA?9?$AAw?$AAi?$AAn?$AA?9?$AAn?$AAt?$AAu?$AAs?$AAe?$AAr?$AA?9?$AAw?$AAi?$AAn?$AAd?$AAo?$AAw?$AAs?$AAt?$AAa?$AAt?$AAi?$AAo?$AAn?$AA?9@ 0000000180030020     libucrt:winapi_thunks.obj
 0002:00002070       ??_C@_1O@BCCLBEOE@?$AAu?$AAs?$AAe?$AAr?$AA3?$AA2?$AA?$AA@ 0000000180030070     libucrt:winapi_thunks.obj
 0002:000020a8       ??_C@_0BA@HNOPNCHB@GetActiveWindow?$AA@ 00000001800300a8     libucrt:winapi_thunks.obj
 0002:000020c0       ??_C@_0BE@JOGNEJCI@GetCurrentPackageId?$AA@ 00000001800300c0     libucrt:winapi_thunks.obj
 0002:000020e0       ??_C@_0BD@HHGDFDBJ@GetLastActivePopup?$AA@ 00000001800300e0     libucrt:winapi_thunks.obj
 0002:00002100       ??_C@_0BI@DFKBFLJE@GetProcessWindowStation?$AA@ 0000000180030100     libucrt:winapi_thunks.obj
 0002:00002120       ??_C@_0BK@DEKFELLI@GetUserObjectInformationW?$AA@ 0000000180030120     libucrt:winapi_thunks.obj
 0002:00002150       ??_C@_0O@KKBNKAPF@LCMapStringEx?$AA@ 0000000180030150     libucrt:winapi_thunks.obj
 0002:00002168       ??_C@_0BB@HBDEELFH@LocaleNameToLCID?$AA@ 0000000180030168     libucrt:winapi_thunks.obj
 0002:00002188       ??_C@_0M@CHKKJDAI@MessageBoxA?$AA@ 0000000180030188     libucrt:winapi_thunks.obj
 0002:000021a0       ??_C@_0M@DLDCCGNP@MessageBoxW?$AA@ 00000001800301a0     libucrt:winapi_thunks.obj
 0002:000021ac       ??_C@_03OEIAHPBN@INF?$AA@  00000001800301ac     libucrt:cvt.obj
 0002:000021b0       ??_C@_03OJHLLCGB@inf?$AA@  00000001800301b0     libucrt:cvt.obj
 0002:000021b4       ??_C@_03LKNCIKJB@NAN?$AA@  00000001800301b4     libucrt:cvt.obj
 0002:000021b8       ??_C@_03LHCJEHON@nan?$AA@  00000001800301b8     libucrt:cvt.obj
 0002:000021c0       ??_C@_09OFJJIMPC@NAN?$CISNAN?$CJ?$AA@ 00000001800301c0     libucrt:cvt.obj
 0002:000021d0       ??_C@_09IPFBKMDL@nan?$CIsnan?$CJ?$AA@ 00000001800301d0     libucrt:cvt.obj
 0002:000021e0       ??_C@_08IKHNHAJ@NAN?$CIIND?$CJ?$AA@ 00000001800301e0     libucrt:cvt.obj
 0002:000021f0       ??_C@_08OFCDMILK@nan?$CIind?$CJ?$AA@ 00000001800301f0     libucrt:cvt.obj
 0002:000021fc       ??_C@_05KLBDPFGC@e?$CL000?$AA@ 00000001800301fc     libucrt:cvt.obj
 0002:00002210       __lc_time_c                0000000180030210     libucrt:nlsdata.obj
 0002:000024d0       ??_C@_03KOEHGMDN@Sun?$AA@  00000001800304d0     libucrt:nlsdata.obj
 0002:000024d4       ??_C@_03PDAGKDH@Mon?$AA@   00000001800304d4     libucrt:nlsdata.obj
 0002:000024d8       ??_C@_03NAGEINEP@Tue?$AA@  00000001800304d8     libucrt:nlsdata.obj
 0002:000024dc       ??_C@_03MHOMLAJA@Wed?$AA@  00000001800304dc     libucrt:nlsdata.obj
 0002:000024e0       ??_C@_03IOFIKPDN@Thu?$AA@  00000001800304e0     libucrt:nlsdata.obj
 0002:000024e4       ??_C@_03IDIOELNC@Fri?$AA@  00000001800304e4     libucrt:nlsdata.obj
 0002:000024e8       ??_C@_03FEFJNEK@Sat?$AA@   00000001800304e8     libucrt:nlsdata.obj
 0002:000024ec       ??_C@_06OOPIFAJ@Sunday?$AA@ 00000001800304ec     libucrt:nlsdata.obj
 0002:000024f4       ??_C@_06JLEDEDGH@Monday?$AA@ 00000001800304f4     libucrt:nlsdata.obj
 0002:00002500       ??_C@_07BAAGCFCM@Tuesday?$AA@ 0000000180030500     libucrt:nlsdata.obj
 0002:00002508       ??_C@_09DLIGFAKA@Wednesday?$AA@ 0000000180030508     libucrt:nlsdata.obj
 0002:00002518       ??_C@_08HACCIKIA@Thursday?$AA@ 0000000180030518     libucrt:nlsdata.obj
 0002:00002524       ??_C@_06JECMNKMI@Friday?$AA@ 0000000180030524     libucrt:nlsdata.obj
 0002:00002530       ??_C@_08INBOOONO@Saturday?$AA@ 0000000180030530     libucrt:nlsdata.obj
 0002:0000253c       ??_C@_03JIHJHPIE@Jan?$AA@  000000018003053c     libucrt:nlsdata.obj
 0002:00002540       ??_C@_03HJBDCHOM@Feb?$AA@  0000000180030540     libucrt:nlsdata.obj
 0002:00002544       ??_C@_03ODNJBKGA@Mar?$AA@  0000000180030544     libucrt:nlsdata.obj
 0002:00002548       ??_C@_03LEOLGMJP@Apr?$AA@  0000000180030548     libucrt:nlsdata.obj
 0002:0000254c       ??_C@_03CNMDKL@May?$AA@    000000018003054c     libucrt:nlsdata.obj
 0002:00002550       ??_C@_03IDFGHECI@Jun?$AA@  0000000180030550     libucrt:nlsdata.obj
 0002:00002554       ??_C@_03LBGABGKK@Jul?$AA@  0000000180030554     libucrt:nlsdata.obj
 0002:00002558       ??_C@_03IFJFEIGA@Aug?$AA@  0000000180030558     libucrt:nlsdata.obj
 0002:0000255c       ??_C@_03GGCAPAJC@Sep?$AA@  000000018003055c     libucrt:nlsdata.obj
 0002:00002560       ??_C@_03BMAOKBAD@Oct?$AA@  0000000180030560     libucrt:nlsdata.obj
 0002:00002564       ??_C@_03JPJOFNIA@Nov?$AA@  0000000180030564     libucrt:nlsdata.obj
 0002:00002568       ??_C@_03MKABNOCG@Dec?$AA@  0000000180030568     libucrt:nlsdata.obj
 0002:00002570       ??_C@_07CGJPFGJA@January?$AA@ 0000000180030570     libucrt:nlsdata.obj
 0002:00002578       ??_C@_08GNJGEPFN@February?$AA@ 0000000180030578     libucrt:nlsdata.obj
 0002:00002584       ??_C@_05HPCKOFNC@March?$AA@ 0000000180030584     libucrt:nlsdata.obj
 0002:0000258c       ??_C@_05DMJDNLEJ@April?$AA@ 000000018003058c     libucrt:nlsdata.obj
 0002:00002594       ??_C@_04CNLMGBGM@June?$AA@ 0000000180030594     libucrt:nlsdata.obj
 0002:0000259c       ??_C@_04MIEPOIFP@July?$AA@ 000000018003059c     libucrt:nlsdata.obj
 0002:000025a4       ??_C@_06LBBHFDDG@August?$AA@ 00000001800305a4     libucrt:nlsdata.obj
 0002:000025b0       ??_C@_09BHHEALKD@September?$AA@ 00000001800305b0     libucrt:nlsdata.obj
 0002:000025c0       ??_C@_07JJNFCEND@October?$AA@ 00000001800305c0     libucrt:nlsdata.obj
 0002:000025c8       ??_C@_08HCHEGEOA@November?$AA@ 00000001800305c8     libucrt:nlsdata.obj
 0002:000025d8       ??_C@_08EDHMEBNP@December?$AA@ 00000001800305d8     libucrt:nlsdata.obj
 0002:000025e4       ??_C@_02DEDBPAFC@AM?$AA@   00000001800305e4     libucrt:nlsdata.obj
 0002:000025e8       ??_C@_02CJNFDJBF@PM?$AA@   00000001800305e8     libucrt:nlsdata.obj
 0002:000025f0       ??_C@_08BPBNCDIB@MM?1dd?1yy?$AA@ 00000001800305f0     libucrt:nlsdata.obj
 0002:00002600       ??_C@_0BE@CKGJFCPC@dddd?0?5MMMM?5dd?0?5yyyy?$AA@ 0000000180030600     libucrt:nlsdata.obj
 0002:00002618       ??_C@_08JCCMCCIL@HH?3mm?3ss?$AA@ 0000000180030618     libucrt:nlsdata.obj
 0002:00002628       ??_C@_17MBGCMIPB@?$AAS?$AAu?$AAn?$AA?$AA@ 0000000180030628     libucrt:nlsdata.obj
 0002:00002630       ??_C@_17KBOMKBF@?$AAM?$AAo?$AAn?$AA?$AA@ 0000000180030630     libucrt:nlsdata.obj
 0002:00002638       ??_C@_17BMKGEGOJ@?$AAT?$AAu?$AAe?$AA?$AA@ 0000000180030638     libucrt:nlsdata.obj
 0002:00002640       ??_C@_17CJEDCEPE@?$AAW?$AAe?$AAd?$AA?$AA@ 0000000180030640     libucrt:nlsdata.obj
 0002:00002648       ??_C@_17PDPHAADD@?$AAT?$AAh?$AAu?$AA?$AA@ 0000000180030648     libucrt:nlsdata.obj
 0002:00002650       ??_C@_17HFOLPPLP@?$AAF?$AAr?$AAi?$AA?$AA@ 0000000180030650     libucrt:nlsdata.obj
 0002:00002658       ??_C@_17GGIBDPIH@?$AAS?$AAa?$AAt?$AA?$AA@ 0000000180030658     libucrt:nlsdata.obj
 0002:00002660       ??_C@_1O@IHNHDHPB@?$AAS?$AAu?$AAn?$AAd?$AAa?$AAy?$AA?$AA@ 0000000180030660     libucrt:nlsdata.obj
 0002:00002670       ??_C@_1O@MMNBFLIA@?$AAM?$AAo?$AAn?$AAd?$AAa?$AAy?$AA?$AA@ 0000000180030670     libucrt:nlsdata.obj
 0002:00002680       ??_C@_1BA@ENFBFFEK@?$AAT?$AAu?$AAe?$AAs?$AAd?$AAa?$AAy?$AA?$AA@ 0000000180030680     libucrt:nlsdata.obj
 0002:00002690       ??_C@_1BE@EBOGMDOH@?$AAW?$AAe?$AAd?$AAn?$AAe?$AAs?$AAd?$AAa?$AAy?$AA?$AA@ 0000000180030690     libucrt:nlsdata.obj
 0002:000026a8       ??_C@_1BC@HHMNLIHE@?$AAT?$AAh?$AAu?$AAr?$AAs?$AAd?$AAa?$AAy?$AA?$AA@ 00000001800306a8     libucrt:nlsdata.obj
 0002:000026c0       ??_C@_1O@PDICJHAG@?$AAF?$AAr?$AAi?$AAd?$AAa?$AAy?$AA?$AA@ 00000001800306c0     libucrt:nlsdata.obj
 0002:000026d0       ??_C@_1BC@ENMNNPAJ@?$AAS?$AAa?$AAt?$AAu?$AAr?$AAd?$AAa?$AAy?$AA?$AA@ 00000001800306d0     libucrt:nlsdata.obj
 0002:000026e8       ??_C@_17DKNBKCHM@?$AAJ?$AAa?$AAn?$AA?$AA@ 00000001800306e8     libucrt:nlsdata.obj
 0002:000026f0       ??_C@_17LMDJEKJN@?$AAF?$AAe?$AAb?$AA?$AA@ 00000001800306f0     libucrt:nlsdata.obj
 0002:000026f8       ??_C@_17CKNLEDEC@?$AAM?$AAa?$AAr?$AA?$AA@ 00000001800306f8     libucrt:nlsdata.obj
 0002:00002700       ??_C@_17LFPOIHDD@?$AAA?$AAp?$AAr?$AA?$AA@ 0000000180030700     libucrt:nlsdata.obj
 0002:00002708       ??_C@_17PNNKMEED@?$AAM?$AAa?$AAy?$AA?$AA@ 0000000180030708     libucrt:nlsdata.obj
 0002:00002710       ??_C@_17KCJGOCPB@?$AAJ?$AAu?$AAn?$AA?$AA@ 0000000180030710     libucrt:nlsdata.obj
 0002:00002718       ??_C@_17IJPCKHK@?$AAJ?$AAu?$AAl?$AA?$AA@ 0000000180030718     libucrt:nlsdata.obj
 0002:00002720       ??_C@_17ICPELBCN@?$AAA?$AAu?$AAg?$AA?$AA@ 0000000180030720     libucrt:nlsdata.obj
 0002:00002728       ??_C@_17HCHCOKMG@?$AAS?$AAe?$AAp?$AA?$AA@ 0000000180030728     libucrt:nlsdata.obj
 0002:00002730       ??_C@_17FNLKOI@?$AAO?$AAc?$AAt?$AA?$AA@ 0000000180030730     libucrt:nlsdata.obj
 0002:00002738       ??_C@_17BBDMLCIG@?$AAN?$AAo?$AAv?$AA?$AA@ 0000000180030738     libucrt:nlsdata.obj
 0002:00002740       ??_C@_17EGKACKIF@?$AAD?$AAe?$AAc?$AA?$AA@ 0000000180030740     libucrt:nlsdata.obj
 0002:00002748       ??_C@_1BA@EFMEIEBA@?$AAJ?$AAa?$AAn?$AAu?$AAa?$AAr?$AAy?$AA?$AA@ 0000000180030748     libucrt:nlsdata.obj
 0002:00002758       ??_C@_1BC@JGDDFFAM@?$AAF?$AAe?$AAb?$AAr?$AAu?$AAa?$AAr?$AAy?$AA?$AA@ 0000000180030758     libucrt:nlsdata.obj
 0002:00002770       ??_C@_1M@IKEENEDF@?$AAM?$AAa?$AAr?$AAc?$AAh?$AA?$AA@ 0000000180030770     libucrt:nlsdata.obj
 0002:00002780       ??_C@_1M@GJNLMHFD@?$AAA?$AAp?$AAr?$AAi?$AAl?$AA?$AA@ 0000000180030780     libucrt:nlsdata.obj
 0002:00002790       ??_C@_19EPFLPGAP@?$AAJ?$AAu?$AAn?$AAe?$AA?$AA@ 0000000180030790     libucrt:nlsdata.obj
 0002:000027a0       ??_C@_19BIFMLPCD@?$AAJ?$AAu?$AAl?$AAy?$AA?$AA@ 00000001800307a0     libucrt:nlsdata.obj
 0002:000027b0       ??_C@_1O@PAHLKOAC@?$AAA?$AAu?$AAg?$AAu?$AAs?$AAt?$AA?$AA@ 00000001800307b0     libucrt:nlsdata.obj
 0002:000027c0       ??_C@_1BE@DKAAMBJL@?$AAS?$AAe?$AAp?$AAt?$AAe?$AAm?$AAb?$AAe?$AAr?$AA?$AA@ 00000001800307c0     libucrt:nlsdata.obj
 0002:000027d8       ??_C@_1BA@EPANDLNG@?$AAO?$AAc?$AAt?$AAo?$AAb?$AAe?$AAr?$AA?$AA@ 00000001800307d8     libucrt:nlsdata.obj
 0002:000027e8       ??_C@_1BC@BGLIFPF@?$AAN?$AAo?$AAv?$AAe?$AAm?$AAb?$AAe?$AAr?$AA?$AA@ 00000001800307e8     libucrt:nlsdata.obj
 0002:00002800       ??_C@_1BC@FEMKIFH@?$AAD?$AAe?$AAc?$AAe?$AAm?$AAb?$AAe?$AAr?$AA?$AA@ 0000000180030800     libucrt:nlsdata.obj
 0002:00002814       ??_C@_15ODEHAHHF@?$AAA?$AAM?$AA?$AA@ 0000000180030814     libucrt:nlsdata.obj
 0002:0000281c       ??_C@_15CLMNNGEL@?$AAP?$AAM?$AA?$AA@ 000000018003081c     libucrt:nlsdata.obj
 0002:00002828       ??_C@_1BC@IEBCMHCM@?$AAM?$AAM?$AA?1?$AAd?$AAd?$AA?1?$AAy?$AAy?$AA?$AA@ 0000000180030828     libucrt:nlsdata.obj
 0002:00002840       ??_C@_1CI@KNAKOEBC@?$AAd?$AAd?$AAd?$AAd?$AA?0?$AA?5?$AAM?$AAM?$AAM?$AAM?$AA?5?$AAd?$AAd?$AA?0?$AA?5?$AAy?$AAy?$AAy?$AAy?$AA?$AA@ 0000000180030840     libucrt:nlsdata.obj
 0002:00002868       ??_C@_1BC@GDGBMEMK@?$AAH?$AAH?$AA?3?$AAm?$AAm?$AA?3?$AAs?$AAs?$AA?$AA@ 0000000180030868     libucrt:nlsdata.obj
 0002:00002880       ??_C@_1M@BMHNFIME@?$AAe?$AAn?$AA?9?$AAU?$AAS?$AA?$AA@ 0000000180030880     libucrt:nlsdata.obj
 0002:000028b0       ??_C@_1M@HPNHIDJI@?$AAj?$AAa?$AA?9?$AAJ?$AAP?$AA?$AA@ 00000001800308b0     libucrt:mbctype.obj
 0002:000028c0       ??_C@_1M@BIBDDEMK@?$AAz?$AAh?$AA?9?$AAC?$AAN?$AA?$AA@ 00000001800308c0     libucrt:mbctype.obj
 0002:000028d0       ??_C@_1M@JLOOOEGK@?$AAk?$AAo?$AA?9?$AAK?$AAR?$AA?$AA@ 00000001800308d0     libucrt:mbctype.obj
 0002:000028e0       ??_C@_1M@CLNBBOPM@?$AAz?$AAh?$AA?9?$AAT?$AAW?$AA?$AA@ 00000001800308e0     libucrt:mbctype.obj
 0002:000028f0       __newctype                 00000001800308f0     libucrt:ctype.obj
 0002:00002bf0       __newclmap                 0000000180030bf0     libucrt:ctype.obj
 0002:00002d70       __newcumap                 0000000180030d70     libucrt:ctype.obj
 0002:00002ef0       _wctype                    0000000180030ef0     libucrt:ctype.obj
 0002:00003f40       ??_C@_15EMKDOKLE@?$AAa?$AAr?$AA?$AA@ 0000000180031f40     libucrt:lcidtoname_downlevel.obj
 0002:00003f48       ??_C@_15KNPADPLH@?$AAb?$AAg?$AA?$AA@ 0000000180031f48     libucrt:lcidtoname_downlevel.obj
 0002:00003f50       ??_C@_15EDMHLDMO@?$AAc?$AAa?$AA?$AA@ 0000000180031f50     libucrt:lcidtoname_downlevel.obj
 0002:00003f58       ??_C@_1O@BPEAJADD@?$AAz?$AAh?$AA?9?$AAC?$AAH?$AAS?$AA?$AA@ 0000000180031f58     libucrt:lcidtoname_downlevel.obj
 0002:00003f68       ??_C@_15LJNHCMNK@?$AAc?$AAs?$AA?$AA@ 0000000180031f68     libucrt:lcidtoname_downlevel.obj
 0002:00003f70       ??_C@_15FOMCIDHG@?$AAd?$AAa?$AA?$AA@ 0000000180031f70     libucrt:lcidtoname_downlevel.obj
 0002:00003f78       ??_C@_15NBKABECB@?$AAd?$AAe?$AA?$AA@ 0000000180031f78     libucrt:lcidtoname_downlevel.obj
 0002:00003f80       ??_C@_15GHPEIIAO@?$AAe?$AAl?$AA?$AA@ 0000000180031f80     libucrt:lcidtoname_downlevel.obj
 0002:00003f88       ??_C@_15MNPNEAIF@?$AAe?$AAn?$AA?$AA@ 0000000180031f88     libucrt:lcidtoname_downlevel.obj
 0002:00003f90       ??_C@_15GPIOMPMH@?$AAe?$AAs?$AA?$AA@ 0000000180031f90     libucrt:lcidtoname_downlevel.obj
 0002:00003f98       ??_C@_15NGLOAKJC@?$AAf?$AAi?$AA?$AA@ 0000000180031f98     libucrt:lcidtoname_downlevel.obj
 0002:00003fa0       ??_C@_15FBKGNKAM@?$AAf?$AAr?$AA?$AA@ 0000000180031fa0     libucrt:lcidtoname_downlevel.obj
 0002:00003fa8       ??_C@_15KGGCNEFK@?$AAh?$AAe?$AA?$AA@ 0000000180031fa8     libucrt:lcidtoname_downlevel.obj
 0002:00003fb0       ??_C@_15PGHLIDMF@?$AAh?$AAu?$AA?$AA@ 0000000180031fb0     libucrt:lcidtoname_downlevel.obj
 0002:00003fb8       ??_C@_15BIEMAPLM@?$AAi?$AAs?$AA?$AA@ 0000000180031fb8     libucrt:lcidtoname_downlevel.obj
 0002:00003fc0       ??_C@_15IFJLDHAF@?$AAi?$AAt?$AA?$AA@ 0000000180031fc0     libucrt:lcidtoname_downlevel.obj
 0002:00003fc8       ??_C@_15GEMIOCAG@?$AAj?$AAa?$AA?$AA@ 0000000180031fc8     libucrt:lcidtoname_downlevel.obj
 0002:00003fd0       ??_C@_15EPELEGJA@?$AAk?$AAo?$AA?$AA@ 0000000180031fd0     libucrt:lcidtoname_downlevel.obj
 0002:00003fd8       ??_C@_15NDDHIMN@?$AAn?$AAl?$AA?$AA@ 0000000180031fd8     libucrt:lcidtoname_downlevel.obj
 0002:00003fe0       ??_C@_15BPIGNHCD@?$AAn?$AAo?$AA?$AA@ 0000000180031fe0     libucrt:lcidtoname_downlevel.obj
 0002:00003fe8       ??_C@_15DEOPBLCG@?$AAp?$AAl?$AA?$AA@ 0000000180031fe8     libucrt:lcidtoname_downlevel.obj
 0002:00003ff0       ??_C@_15KBECGEFG@?$AAp?$AAt?$AA?$AA@ 0000000180031ff0     libucrt:lcidtoname_downlevel.obj
 0002:00003ff8       ??_C@_15GLJCBFMD@?$AAr?$AAo?$AA?$AA@ 0000000180031ff8     libucrt:lcidtoname_downlevel.obj
 0002:00004000       ??_C@_15FEDGKCDI@?$AAr?$AAu?$AA?$AA@ 0000000180032000     libucrt:lcidtoname_downlevel.obj
 0002:00004008       ??_C@_15GLKMLLHM@?$AAh?$AAr?$AA?$AA@ 0000000180032008     libucrt:lcidtoname_downlevel.obj
 0002:00004010       ??_C@_15CPKMFBDB@?$AAs?$AAk?$AA?$AA@ 0000000180032010     libucrt:lcidtoname_downlevel.obj
 0002:00004018       ??_C@_15BAAIOGMK@?$AAs?$AAq?$AA?$AA@ 0000000180032018     libucrt:lcidtoname_downlevel.obj
 0002:00004020       ??_C@_15INNPNOHD@?$AAs?$AAv?$AA?$AA@ 0000000180032020     libucrt:lcidtoname_downlevel.obj
 0002:00004028       ??_C@_15CABMMOGH@?$AAt?$AAh?$AA?$AA@ 0000000180032028     libucrt:lcidtoname_downlevel.obj
 0002:00004030       ??_C@_15BPLIHJJM@?$AAt?$AAr?$AA?$AA@ 0000000180032030     libucrt:lcidtoname_downlevel.obj
 0002:00004038       ??_C@_15NEOEKKDJ@?$AAu?$AAr?$AA?$AA@ 0000000180032038     libucrt:lcidtoname_downlevel.obj
 0002:00004040       ??_C@_15NFICGAJK@?$AAi?$AAd?$AA?$AA@ 0000000180032040     libucrt:lcidtoname_downlevel.obj
 0002:00004048       ??_C@_15PJPFLCCM@?$AAu?$AAk?$AA?$AA@ 0000000180032048     libucrt:lcidtoname_downlevel.obj
 0002:00004050       ??_C@_15HPJPHDM@?$AAb?$AAe?$AA?$AA@ 0000000180032050     libucrt:lcidtoname_downlevel.obj
 0002:00004058       ??_C@_15LCHLGJII@?$AAs?$AAl?$AA?$AA@ 0000000180032058     libucrt:lcidtoname_downlevel.obj
 0002:00004060       ??_C@_15PCFJPHHO@?$AAe?$AAt?$AA?$AA@ 0000000180032060     libucrt:lcidtoname_downlevel.obj
 0002:00004068       ??_C@_15HPFPGODN@?$AAl?$AAv?$AA?$AA@ 0000000180032068     libucrt:lcidtoname_downlevel.obj
 0002:00004070       ??_C@_15NFFGKGLG@?$AAl?$AAt?$AA?$AA@ 0000000180032070     libucrt:lcidtoname_downlevel.obj
 0002:00004078       ??_C@_15BDAKCCHN@?$AAf?$AAa?$AA?$AA@ 0000000180032078     libucrt:lcidtoname_downlevel.obj
 0002:00004080       ??_C@_15NFGIAIAJ@?$AAv?$AAi?$AA?$AA@ 0000000180032080     libucrt:lcidtoname_downlevel.obj
 0002:00004088       ??_C@_15LMKNDMHN@?$AAh?$AAy?$AA?$AA@ 0000000180032088     libucrt:lcidtoname_downlevel.obj
 0002:00004090       ??_C@_15IJBHMCFL@?$AAa?$AAz?$AA?$AA@ 0000000180032090     libucrt:lcidtoname_downlevel.obj
 0002:00004098       ??_C@_15EKOFJABL@?$AAe?$AAu?$AA?$AA@ 0000000180032098     libucrt:lcidtoname_downlevel.obj
 0002:000040a0       ??_C@_15BGHADCNK@?$AAm?$AAk?$AA?$AA@ 00000001800320a0     libucrt:lcidtoname_downlevel.obj
 0002:000040a8       ??_C@_15JDNICKHM@?$AAa?$AAf?$AA?$AA@ 00000001800320a8     libucrt:lcidtoname_downlevel.obj
 0002:000040b0       ??_C@_15KPJEDBKD@?$AAk?$AAa?$AA?$AA@ 00000001800320b0     libucrt:lcidtoname_downlevel.obj
 0002:000040b8       ??_C@_15PDNFFFEO@?$AAf?$AAo?$AA?$AA@ 00000001800320b8     libucrt:lcidtoname_downlevel.obj
 0002:000040c0       ??_C@_15OMLEGLOC@?$AAh?$AAi?$AA?$AA@ 00000001800320c0     libucrt:lcidtoname_downlevel.obj
 0002:000040c8       ??_C@_15IDNNENKK@?$AAm?$AAs?$AA?$AA@ 00000001800320c8     libucrt:lcidtoname_downlevel.obj
 0002:000040d0       ??_C@_15MACJNBMH@?$AAk?$AAk?$AA?$AA@ 00000001800320d0     libucrt:lcidtoname_downlevel.obj
 0002:000040d8       ??_C@_15DKDJEOND@?$AAk?$AAy?$AA?$AA@ 00000001800320d8     libucrt:lcidtoname_downlevel.obj
 0002:000040e0       ??_C@_15DFGDLJBG@?$AAs?$AAw?$AA?$AA@ 00000001800320e0     libucrt:lcidtoname_downlevel.obj
 0002:000040e8       ??_C@_15BBFAICNG@?$AAu?$AAz?$AA?$AA@ 00000001800320e8     libucrt:lcidtoname_downlevel.obj
 0002:000040f0       ??_C@_15DKNDCGEA@?$AAt?$AAt?$AA?$AA@ 00000001800320f0     libucrt:lcidtoname_downlevel.obj
 0002:000040f8       ??_C@_15MGIFMDPL@?$AAp?$AAa?$AA?$AA@ 00000001800320f8     libucrt:lcidtoname_downlevel.obj
 0002:00004100       ??_C@_15HCNDBBA@?$AAg?$AAu?$AA?$AA@ 0000000180032100     libucrt:lcidtoname_downlevel.obj
 0002:00004108       ??_C@_15FNBEIBON@?$AAt?$AAa?$AA?$AA@ 0000000180032108     libucrt:lcidtoname_downlevel.obj
 0002:00004110       ??_C@_15NCHGBGLK@?$AAt?$AAe?$AA?$AA@ 0000000180032110     libucrt:lcidtoname_downlevel.obj
 0002:00004118       ??_C@_15PHPHCBPF@?$AAk?$AAn?$AA?$AA@ 0000000180032118     libucrt:lcidtoname_downlevel.obj
 0002:00004120       ??_C@_15DLGBCKMP@?$AAm?$AAr?$AA?$AA@ 0000000180032120     libucrt:lcidtoname_downlevel.obj
 0002:00004128       ??_C@_15EABBLBFF@?$AAs?$AAa?$AA?$AA@ 0000000180032128     libucrt:lcidtoname_downlevel.obj
 0002:00004130       ??_C@_15CBKOMCOI@?$AAm?$AAn?$AA?$AA@ 0000000180032130     libucrt:lcidtoname_downlevel.obj
 0002:00004138       ??_C@_15CKDMCJAF@?$AAg?$AAl?$AA?$AA@ 0000000180032138     libucrt:lcidtoname_downlevel.obj
 0002:00004140       ??_C@_17CNJFBPG@?$AAk?$AAo?$AAk?$AA?$AA@ 0000000180032140     libucrt:lcidtoname_downlevel.obj
 0002:00004148       ??_C@_17FFBJICPL@?$AAs?$AAy?$AAr?$AA?$AA@ 0000000180032148     libucrt:lcidtoname_downlevel.obj
 0002:00004150       ??_C@_17KPNDCPAF@?$AAd?$AAi?$AAv?$AA?$AA@ 0000000180032150     libucrt:lcidtoname_downlevel.obj
 0002:00004158       ??_C@_11LOCGONAA@?$AA?$AA@ 0000000180032158     libucrt:lcidtoname_downlevel.obj
 0002:00004160       ??_C@_1M@OKAHONE@?$AAa?$AAr?$AA?9?$AAS?$AAA?$AA?$AA@ 0000000180032160     libucrt:lcidtoname_downlevel.obj
 0002:00004170       ??_C@_1M@FFFIGIGK@?$AAb?$AAg?$AA?9?$AAB?$AAG?$AA?$AA@ 0000000180032170     libucrt:lcidtoname_downlevel.obj
 0002:00004180       ??_C@_1M@BJNKEDC@?$AAc?$AAa?$AA?9?$AAE?$AAS?$AA?$AA@ 0000000180032180     libucrt:lcidtoname_downlevel.obj
 0002:00004190       ??_C@_1M@IJJHFJHA@?$AAc?$AAs?$AA?9?$AAC?$AAZ?$AA?$AA@ 0000000180032190     libucrt:lcidtoname_downlevel.obj
 0002:000041a0       ??_C@_1M@CLPEOBGI@?$AAd?$AAa?$AA?9?$AAD?$AAK?$AA?$AA@ 00000001800321a0     libucrt:lcidtoname_downlevel.obj
 0002:000041b0       ??_C@_1M@MCMADGCB@?$AAd?$AAe?$AA?9?$AAD?$AAE?$AA?$AA@ 00000001800321b0     libucrt:lcidtoname_downlevel.obj
 0002:000041c0       ??_C@_1M@OOCKEMAM@?$AAe?$AAl?$AA?9?$AAG?$AAR?$AA?$AA@ 00000001800321c0     libucrt:lcidtoname_downlevel.obj
 0002:000041d0       ??_C@_1M@DDNJFGID@?$AAf?$AAi?$AA?9?$AAF?$AAI?$AA?$AA@ 00000001800321d0     libucrt:lcidtoname_downlevel.obj
 0002:000041e0       ??_C@_1M@GLIPPMAC@?$AAf?$AAr?$AA?9?$AAF?$AAR?$AA?$AA@ 00000001800321e0     libucrt:lcidtoname_downlevel.obj
 0002:000041f0       ??_C@_1M@GFMCHPE@?$AAh?$AAe?$AA?9?$AAI?$AAL?$AA?$AA@ 00000001800321f0     libucrt:lcidtoname_downlevel.obj
 0002:00004200       ??_C@_1M@MHLPGNKM@?$AAh?$AAu?$AA?9?$AAH?$AAU?$AA?$AA@ 0000000180032200     libucrt:lcidtoname_downlevel.obj
 0002:00004210       ??_C@_1M@LPDDNNPN@?$AAi?$AAs?$AA?9?$AAI?$AAS?$AA?$AA@ 0000000180032210     libucrt:lcidtoname_downlevel.obj
 0002:00004220       ??_C@_1M@MADIPODN@?$AAi?$AAt?$AA?9?$AAI?$AAT?$AA?$AA@ 0000000180032220     libucrt:lcidtoname_downlevel.obj
 0002:00004230       ??_C@_1M@IHBJJGG@?$AAn?$AAl?$AA?9?$AAN?$AAL?$AA?$AA@ 0000000180032230     libucrt:lcidtoname_downlevel.obj
 0002:00004240       ??_C@_1M@EANAGDL@?$AAn?$AAb?$AA?9?$AAN?$AAO?$AA?$AA@ 0000000180032240     libucrt:lcidtoname_downlevel.obj
 0002:00004250       ??_C@_1M@NEIEMEGP@?$AAp?$AAl?$AA?9?$AAP?$AAL?$AA?$AA@ 0000000180032250     libucrt:lcidtoname_downlevel.obj
 0002:00004260       ??_C@_1M@BOCFIGEP@?$AAp?$AAt?$AA?9?$AAB?$AAR?$AA?$AA@ 0000000180032260     libucrt:lcidtoname_downlevel.obj
 0002:00004270       ??_C@_1M@IMPFOPBG@?$AAr?$AAo?$AA?9?$AAR?$AAO?$AA?$AA@ 0000000180032270     libucrt:lcidtoname_downlevel.obj
 0002:00004280       ??_C@_1M@IDNNEJMM@?$AAr?$AAu?$AA?9?$AAR?$AAU?$AA?$AA@ 0000000180032280     libucrt:lcidtoname_downlevel.obj
 0002:00004290       ??_C@_1M@LILEEOGM@?$AAh?$AAr?$AA?9?$AAH?$AAR?$AA?$AA@ 0000000180032290     libucrt:lcidtoname_downlevel.obj
 0002:000042a0       ??_C@_1M@FKIFEHPB@?$AAs?$AAk?$AA?9?$AAS?$AAK?$AA?$AA@ 00000001800322a0     libucrt:lcidtoname_downlevel.obj
 0002:000042b0       ??_C@_1M@LJMAMNPJ@?$AAs?$AAq?$AA?9?$AAA?$AAL?$AA?$AA@ 00000001800322b0     libucrt:lcidtoname_downlevel.obj
 0002:000042c0       ??_C@_1M@GIAKDKJK@?$AAs?$AAv?$AA?9?$AAS?$AAE?$AA?$AA@ 00000001800322c0     libucrt:lcidtoname_downlevel.obj
 0002:000042d0       ??_C@_1M@MKJKIKCL@?$AAt?$AAh?$AA?9?$AAT?$AAH?$AA?$AA@ 00000001800322d0     libucrt:lcidtoname_downlevel.obj
 0002:000042e0       ??_C@_1M@MFLCCMPB@?$AAt?$AAr?$AA?9?$AAT?$AAR?$AA?$AA@ 00000001800322e0     libucrt:lcidtoname_downlevel.obj
 0002:000042f0       ??_C@_1M@OIJHDKJN@?$AAu?$AAr?$AA?9?$AAP?$AAK?$AA?$AA@ 00000001800322f0     libucrt:lcidtoname_downlevel.obj
 0002:00004300       ??_C@_1M@LHIPCIEK@?$AAi?$AAd?$AA?9?$AAI?$AAD?$AA?$AA@ 0000000180032300     libucrt:lcidtoname_downlevel.obj
 0002:00004310       ??_C@_1M@MFMOBGI@?$AAu?$AAk?$AA?9?$AAU?$AAA?$AA?$AA@ 0000000180032310     libucrt:lcidtoname_downlevel.obj
 0002:00004320       ??_C@_1M@OBGLJIPL@?$AAb?$AAe?$AA?9?$AAB?$AAY?$AA?$AA@ 0000000180032320     libucrt:lcidtoname_downlevel.obj
 0002:00004330       ??_C@_1M@BCFAJEAD@?$AAs?$AAl?$AA?9?$AAS?$AAI?$AA?$AA@ 0000000180032330     libucrt:lcidtoname_downlevel.obj
 0002:00004340       ??_C@_1M@FKFFEDDN@?$AAe?$AAt?$AA?9?$AAE?$AAE?$AA?$AA@ 0000000180032340     libucrt:lcidtoname_downlevel.obj
 0002:00004350       ??_C@_1M@KGKKAACI@?$AAl?$AAv?$AA?9?$AAL?$AAV?$AA?$AA@ 0000000180032350     libucrt:lcidtoname_downlevel.obj
 0002:00004360       ??_C@_1M@IFGBIJO@?$AAl?$AAt?$AA?9?$AAL?$AAT?$AA?$AA@ 0000000180032360     libucrt:lcidtoname_downlevel.obj
 0002:00004370       ??_C@_1M@FGEAHEDM@?$AAf?$AAa?$AA?9?$AAI?$AAR?$AA?$AA@ 0000000180032370     libucrt:lcidtoname_downlevel.obj
 0002:00004380       ??_C@_1M@KBMAIBFN@?$AAv?$AAi?$AA?9?$AAV?$AAN?$AA?$AA@ 0000000180032380     libucrt:lcidtoname_downlevel.obj
 0002:00004390       ??_C@_1M@GPCBKDJK@?$AAh?$AAy?$AA?9?$AAA?$AAM?$AA?$AA@ 0000000180032390     libucrt:lcidtoname_downlevel.obj
 0002:000043a0       ??_C@_1BG@BECMDDJB@?$AAa?$AAz?$AA?9?$AAA?$AAZ?$AA?9?$AAL?$AAa?$AAt?$AAn?$AA?$AA@ 00000001800323a0     libucrt:lcidtoname_downlevel.obj
 0002:000043b8       ??_C@_1M@MAOFCAEA@?$AAe?$AAu?$AA?9?$AAE?$AAS?$AA?$AA@ 00000001800323b8     libucrt:lcidtoname_downlevel.obj
 0002:000043c8       ??_C@_1M@IGHABKPI@?$AAm?$AAk?$AA?9?$AAM?$AAK?$AA?$AA@ 00000001800323c8     libucrt:lcidtoname_downlevel.obj
 0002:000043d8       ??_C@_1M@IAIGNEJG@?$AAt?$AAn?$AA?9?$AAZ?$AAA?$AA?$AA@ 00000001800323d8     libucrt:lcidtoname_downlevel.obj
 0002:000043e8       ??_C@_1M@IIJCOJFA@?$AAx?$AAh?$AA?9?$AAZ?$AAA?$AA?$AA@ 00000001800323e8     libucrt:lcidtoname_downlevel.obj
 0002:000043f8       ??_C@_1M@LGPJHNJH@?$AAz?$AAu?$AA?9?$AAZ?$AAA?$AA?$AA@ 00000001800323f8     libucrt:lcidtoname_downlevel.obj
 0002:00004408       ??_C@_1M@HOKAOIO@?$AAa?$AAf?$AA?9?$AAZ?$AAA?$AA?$AA@ 0000000180032408     libucrt:lcidtoname_downlevel.obj
 0002:00004418       ??_C@_1M@DPCLHLIE@?$AAk?$AAa?$AA?9?$AAG?$AAE?$AA?$AA@ 0000000180032418     libucrt:lcidtoname_downlevel.obj
 0002:00004428       ??_C@_1M@BLKMHJBI@?$AAf?$AAo?$AA?9?$AAF?$AAO?$AA?$AA@ 0000000180032428     libucrt:lcidtoname_downlevel.obj
 0002:00004438       ??_C@_1M@LGGJAPPB@?$AAh?$AAi?$AA?9?$AAI?$AAN?$AA?$AA@ 0000000180032438     libucrt:lcidtoname_downlevel.obj
 0002:00004448       ??_C@_1M@FIKPIHFE@?$AAm?$AAt?$AA?9?$AAM?$AAT?$AA?$AA@ 0000000180032448     libucrt:lcidtoname_downlevel.obj
 0002:00004458       ??_C@_1M@HEGGPBFA@?$AAs?$AAe?$AA?9?$AAN?$AAO?$AA?$AA@ 0000000180032458     libucrt:lcidtoname_downlevel.obj
 0002:00004468       ??_C@_1M@EIBJEEPA@?$AAm?$AAs?$AA?9?$AAM?$AAY?$AA?$AA@ 0000000180032468     libucrt:lcidtoname_downlevel.obj
 0002:00004478       ??_C@_1M@FHLBGMPP@?$AAk?$AAk?$AA?9?$AAK?$AAZ?$AA?$AA@ 0000000180032478     libucrt:lcidtoname_downlevel.obj
 0002:00004488       ??_C@_1M@NGJJLCGI@?$AAk?$AAy?$AA?9?$AAK?$AAG?$AA?$AA@ 0000000180032488     libucrt:lcidtoname_downlevel.obj
 0002:00004498       ??_C@_1M@GIENNBFC@?$AAs?$AAw?$AA?9?$AAK?$AAE?$AA?$AA@ 0000000180032498     libucrt:lcidtoname_downlevel.obj
 0002:000044a8       ??_C@_1BG@NDGMJIMJ@?$AAu?$AAz?$AA?9?$AAU?$AAZ?$AA?9?$AAL?$AAa?$AAt?$AAn?$AA?$AA@ 00000001800324a8     libucrt:lcidtoname_downlevel.obj
 0002:000044c0       ??_C@_1M@IDCCIHBC@?$AAt?$AAt?$AA?9?$AAR?$AAU?$AA?$AA@ 00000001800324c0     libucrt:lcidtoname_downlevel.obj
 0002:000044d0       ??_C@_1M@LOICPMOJ@?$AAb?$AAn?$AA?9?$AAI?$AAN?$AA?$AA@ 00000001800324d0     libucrt:lcidtoname_downlevel.obj
 0002:000044e0       ??_C@_1M@KPKKNEAH@?$AAp?$AAa?$AA?9?$AAI?$AAN?$AA?$AA@ 00000001800324e0     libucrt:lcidtoname_downlevel.obj
 0002:000044f0       ??_C@_1M@PJGPPBOG@?$AAg?$AAu?$AA?9?$AAI?$AAN?$AA?$AA@ 00000001800324f0     libucrt:lcidtoname_downlevel.obj
 0002:00004500       ??_C@_1M@KMKMOPHI@?$AAt?$AAa?$AA?9?$AAI?$AAN?$AA?$AA@ 0000000180032500     libucrt:lcidtoname_downlevel.obj
 0002:00004510       ??_C@_1M@KFEHEPAC@?$AAt?$AAe?$AA?9?$AAI?$AAN?$AA?$AA@ 0000000180032510     libucrt:lcidtoname_downlevel.obj
 0002:00004520       ??_C@_1M@CDCLMGHI@?$AAk?$AAn?$AA?9?$AAI?$AAN?$AA?$AA@ 0000000180032520     libucrt:lcidtoname_downlevel.obj
 0002:00004530       ??_C@_1M@MIODLDKF@?$AAm?$AAl?$AA?9?$AAI?$AAN?$AA?$AA@ 0000000180032530     libucrt:lcidtoname_downlevel.obj
 0002:00004540       ??_C@_1M@PBIEACPO@?$AAm?$AAr?$AA?9?$AAI?$AAN?$AA?$AA@ 0000000180032540     libucrt:lcidtoname_downlevel.obj
 0002:00004550       ??_C@_1M@NIDEAGPH@?$AAs?$AAa?$AA?9?$AAI?$AAN?$AA?$AA@ 0000000180032550     libucrt:lcidtoname_downlevel.obj
 0002:00004560       ??_C@_1M@FHIHCBIO@?$AAm?$AAn?$AA?9?$AAM?$AAN?$AA?$AA@ 0000000180032560     libucrt:lcidtoname_downlevel.obj
 0002:00004570       ??_C@_1M@JAIJPENP@?$AAc?$AAy?$AA?9?$AAG?$AAB?$AA?$AA@ 0000000180032570     libucrt:lcidtoname_downlevel.obj
 0002:00004580       ??_C@_1M@PHGFBEPN@?$AAg?$AAl?$AA?9?$AAE?$AAS?$AA?$AA@ 0000000180032580     libucrt:lcidtoname_downlevel.obj
 0002:00004590       ??_C@_1O@KPIPDNCP@?$AAk?$AAo?$AAk?$AA?9?$AAI?$AAN?$AA?$AA@ 0000000180032590     libucrt:lcidtoname_downlevel.obj
 0002:000045a0       ??_C@_1O@KNHJLDJA@?$AAs?$AAy?$AAr?$AA?9?$AAS?$AAY?$AA?$AA@ 00000001800325a0     libucrt:lcidtoname_downlevel.obj
 0002:000045b0       ??_C@_1O@MKEKBLAH@?$AAd?$AAi?$AAv?$AA?9?$AAM?$AAV?$AA?$AA@ 00000001800325b0     libucrt:lcidtoname_downlevel.obj
 0002:000045c0       ??_C@_1O@OHDCKDDF@?$AAq?$AAu?$AAz?$AA?9?$AAB?$AAO?$AA?$AA@ 00000001800325c0     libucrt:lcidtoname_downlevel.obj
 0002:000045d0       ??_C@_1M@LEPJNLFD@?$AAn?$AAs?$AA?9?$AAZ?$AAA?$AA?$AA@ 00000001800325d0     libucrt:lcidtoname_downlevel.obj
 0002:000045e0       ??_C@_1M@OMLEIIJB@?$AAm?$AAi?$AA?9?$AAN?$AAZ?$AA?$AA@ 00000001800325e0     libucrt:lcidtoname_downlevel.obj
 0002:000045f0       ??_C@_1M@PMPEAILG@?$AAa?$AAr?$AA?9?$AAI?$AAQ?$AA?$AA@ 00000001800325f0     libucrt:lcidtoname_downlevel.obj
 0002:00004600       ??_C@_1M@CNKPNOEE@?$AAd?$AAe?$AA?9?$AAC?$AAH?$AA?$AA@ 0000000180032600     libucrt:lcidtoname_downlevel.obj
 0002:00004610       ??_C@_1M@LKMGMLKO@?$AAe?$AAn?$AA?9?$AAG?$AAB?$AA?$AA@ 0000000180032610     libucrt:lcidtoname_downlevel.obj
 0002:00004620       ??_C@_1M@PGKJFFGL@?$AAe?$AAs?$AA?9?$AAM?$AAX?$AA?$AA@ 0000000180032620     libucrt:lcidtoname_downlevel.obj
 0002:00004630       ??_C@_1M@DNNANBDC@?$AAf?$AAr?$AA?9?$AAB?$AAE?$AA?$AA@ 0000000180032630     libucrt:lcidtoname_downlevel.obj
 0002:00004640       ??_C@_1M@HLGMDFHM@?$AAi?$AAt?$AA?9?$AAC?$AAH?$AA?$AA@ 0000000180032640     libucrt:lcidtoname_downlevel.obj
 0002:00004650       ??_C@_1M@CLLBGJH@?$AAn?$AAl?$AA?9?$AAB?$AAE?$AA?$AA@ 0000000180032650     libucrt:lcidtoname_downlevel.obj
 0002:00004660       ??_C@_1M@BODBOGLF@?$AAn?$AAn?$AA?9?$AAN?$AAO?$AA?$AA@ 0000000180032660     libucrt:lcidtoname_downlevel.obj
 0002:00004670       ??_C@_1M@HFFAHKAD@?$AAp?$AAt?$AA?9?$AAP?$AAT?$AA?$AA@ 0000000180032670     libucrt:lcidtoname_downlevel.obj
 0002:00004680       ??_C@_1BG@LNOAKHIE@?$AAs?$AAr?$AA?9?$AAS?$AAP?$AA?9?$AAL?$AAa?$AAt?$AAn?$AA?$AA@ 0000000180032680     libucrt:lcidtoname_downlevel.obj
 0002:00004698       ??_C@_1M@HBMHBGAK@?$AAs?$AAv?$AA?9?$AAF?$AAI?$AA?$AA@ 0000000180032698     libucrt:lcidtoname_downlevel.obj
 0002:000046a8       ??_C@_1BG@DGCJGJBE@?$AAa?$AAz?$AA?9?$AAA?$AAZ?$AA?9?$AAC?$AAy?$AAr?$AAl?$AA?$AA@ 00000001800326a8     libucrt:lcidtoname_downlevel.obj
 0002:000046c0       ??_C@_1M@KEJDAAHB@?$AAs?$AAe?$AA?9?$AAS?$AAE?$AA?$AA@ 00000001800326c0     libucrt:lcidtoname_downlevel.obj
 0002:000046d0       ??_C@_1M@HEIBJJAD@?$AAm?$AAs?$AA?9?$AAB?$AAN?$AA?$AA@ 00000001800326d0     libucrt:lcidtoname_downlevel.obj
 0002:000046e0       ??_C@_1BG@PBGJMCEM@?$AAu?$AAz?$AA?9?$AAU?$AAZ?$AA?9?$AAC?$AAy?$AAr?$AAl?$AA?$AA@ 00000001800326e0     libucrt:lcidtoname_downlevel.obj
 0002:000046f8       ??_C@_1O@LAOBCMDF@?$AAq?$AAu?$AAz?$AA?9?$AAE?$AAC?$AA?$AA@ 00000001800326f8     libucrt:lcidtoname_downlevel.obj
 0002:00004708       ??_C@_1M@POEEMAIO@?$AAa?$AAr?$AA?9?$AAE?$AAG?$AA?$AA@ 0000000180032708     libucrt:lcidtoname_downlevel.obj
 0002:00004718       ??_C@_1M@EFAKDEDL@?$AAz?$AAh?$AA?9?$AAH?$AAK?$AA?$AA@ 0000000180032718     libucrt:lcidtoname_downlevel.obj
 0002:00004728       ??_C@_1M@HKKIJHGI@?$AAd?$AAe?$AA?9?$AAA?$AAT?$AA?$AA@ 0000000180032728     libucrt:lcidtoname_downlevel.obj
 0002:00004738       ??_C@_1M@KBFBEHJF@?$AAe?$AAn?$AA?9?$AAA?$AAU?$AA?$AA@ 0000000180032738     libucrt:lcidtoname_downlevel.obj
 0002:00004748       ??_C@_1M@MNPLFAAH@?$AAe?$AAs?$AA?9?$AAE?$AAS?$AA?$AA@ 0000000180032748     libucrt:lcidtoname_downlevel.obj
 0002:00004758       ??_C@_1M@HJOOJFMA@?$AAf?$AAr?$AA?9?$AAC?$AAA?$AA?$AA@ 0000000180032758     libucrt:lcidtoname_downlevel.obj
 0002:00004768       ??_C@_1BG@JPOFPNAB@?$AAs?$AAr?$AA?9?$AAS?$AAP?$AA?9?$AAC?$AAy?$AAr?$AAl?$AA?$AA@ 0000000180032768     libucrt:lcidtoname_downlevel.obj
 0002:00004780       ??_C@_1M@LNFOCMOB@?$AAs?$AAe?$AA?9?$AAF?$AAI?$AA?$AA@ 0000000180032780     libucrt:lcidtoname_downlevel.obj
 0002:00004790       ??_C@_1O@MGJBOAMB@?$AAq?$AAu?$AAz?$AA?9?$AAP?$AAE?$AA?$AA@ 0000000180032790     libucrt:lcidtoname_downlevel.obj
 0002:000047a0       ??_C@_1M@GJINLBOK@?$AAa?$AAr?$AA?9?$AAL?$AAY?$AA?$AA@ 00000001800327a0     libucrt:lcidtoname_downlevel.obj
 0002:000047b0       ??_C@_1M@GGMNHJNL@?$AAz?$AAh?$AA?9?$AAS?$AAG?$AA?$AA@ 00000001800327b0     libucrt:lcidtoname_downlevel.obj
 0002:000047c0       ??_C@_1M@HOIKODND@?$AAd?$AAe?$AA?9?$AAL?$AAU?$AA?$AA@ 00000001800327c0     libucrt:lcidtoname_downlevel.obj
 0002:000047d0       ??_C@_1M@DDOCCGFG@?$AAe?$AAn?$AA?9?$AAC?$AAA?$AA?$AA@ 00000001800327d0     libucrt:lcidtoname_downlevel.obj
 0002:000047e0       ??_C@_1M@BNOEMJLF@?$AAe?$AAs?$AA?9?$AAG?$AAT?$AA?$AA@ 00000001800327e0     libucrt:lcidtoname_downlevel.obj
 0002:000047f0       ??_C@_1M@EOGNKEK@?$AAf?$AAr?$AA?9?$AAC?$AAH?$AA?$AA@ 00000001800327f0     libucrt:lcidtoname_downlevel.obj
 0002:00004800       ??_C@_1M@FLIDJFHL@?$AAh?$AAr?$AA?9?$AAB?$AAA?$AA?$AA@ 0000000180032800     libucrt:lcidtoname_downlevel.obj
 0002:00004810       ??_C@_1O@FMCELNAJ@?$AAs?$AAm?$AAj?$AA?9?$AAN?$AAO?$AA?$AA@ 0000000180032810     libucrt:lcidtoname_downlevel.obj
 0002:00004820       ??_C@_1M@JHGLJMGJ@?$AAa?$AAr?$AA?9?$AAD?$AAZ?$AA?$AA@ 0000000180032820     libucrt:lcidtoname_downlevel.obj
 0002:00004830       ??_C@_1M@JKKFDCNP@?$AAz?$AAh?$AA?9?$AAM?$AAO?$AA?$AA@ 0000000180032830     libucrt:lcidtoname_downlevel.obj
 0002:00004840       ??_C@_1M@GEEFALPE@?$AAd?$AAe?$AA?9?$AAL?$AAI?$AA?$AA@ 0000000180032840     libucrt:lcidtoname_downlevel.obj
 0002:00004850       ??_C@_1M@IGEOFBG@?$AAe?$AAn?$AA?9?$AAN?$AAZ?$AA?$AA@ 0000000180032850     libucrt:lcidtoname_downlevel.obj
 0002:00004860       ??_C@_1M@KDBONEHP@?$AAe?$AAs?$AA?9?$AAC?$AAR?$AA?$AA@ 0000000180032860     libucrt:lcidtoname_downlevel.obj
 0002:00004870       ??_C@_1M@FHMDOHNN@?$AAf?$AAr?$AA?9?$AAL?$AAU?$AA?$AA@ 0000000180032870     libucrt:lcidtoname_downlevel.obj
 0002:00004880       ??_C@_1BG@NFKKMAFG@?$AAb?$AAs?$AA?9?$AAB?$AAA?$AA?9?$AAL?$AAa?$AAt?$AAn?$AA?$AA@ 0000000180032880     libucrt:lcidtoname_downlevel.obj
 0002:00004898       ??_C@_1O@IMNBEMCI@?$AAs?$AAm?$AAj?$AA?9?$AAS?$AAE?$AA?$AA@ 0000000180032898     libucrt:lcidtoname_downlevel.obj
 0002:000048a8       ??_C@_1M@DHHMBNDP@?$AAa?$AAr?$AA?9?$AAM?$AAA?$AA?$AA@ 00000001800328a8     libucrt:lcidtoname_downlevel.obj
 0002:000048b8       ??_C@_1M@BNBLJCGH@?$AAe?$AAn?$AA?9?$AAI?$AAE?$AA?$AA@ 00000001800328b8     libucrt:lcidtoname_downlevel.obj
 0002:000048c8       ??_C@_1M@GEPAFMDL@?$AAe?$AAs?$AA?9?$AAP?$AAA?$AA?$AA@ 00000001800328c8     libucrt:lcidtoname_downlevel.obj
 0002:000048d8       ??_C@_1M@OJONDMDL@?$AAf?$AAr?$AA?9?$AAM?$AAC?$AA?$AA@ 00000001800328d8     libucrt:lcidtoname_downlevel.obj
 0002:000048e8       ??_C@_1BG@OBCNFJB@?$AAs?$AAr?$AA?9?$AAB?$AAA?$AA?9?$AAL?$AAa?$AAt?$AAn?$AA?$AA@ 00000001800328e8     libucrt:lcidtoname_downlevel.obj
 0002:00004900       ??_C@_1O@KEMEEGPO@?$AAs?$AAm?$AAa?$AA?9?$AAN?$AAO?$AA?$AA@ 0000000180032900     libucrt:lcidtoname_downlevel.obj
 0002:00004910       ??_C@_1M@ELMGFODK@?$AAa?$AAr?$AA?9?$AAT?$AAN?$AA?$AA@ 0000000180032910     libucrt:lcidtoname_downlevel.obj
 0002:00004920       ??_C@_1M@BHDLHFAF@?$AAe?$AAn?$AA?9?$AAZ?$AAA?$AA?$AA@ 0000000180032920     libucrt:lcidtoname_downlevel.obj
 0002:00004930       ??_C@_1M@BMGIGLIF@?$AAe?$AAs?$AA?9?$AAD?$AAO?$AA?$AA@ 0000000180032930     libucrt:lcidtoname_downlevel.obj
 0002:00004940       ??_C@_1BG@CMBHIPBE@?$AAs?$AAr?$AA?9?$AAB?$AAA?$AA?9?$AAC?$AAy?$AAr?$AAl?$AA?$AA@ 0000000180032940     libucrt:lcidtoname_downlevel.obj
 0002:00004958       ??_C@_1O@HEDBLHNP@?$AAs?$AAm?$AAa?$AA?9?$AAS?$AAE?$AA?$AA@ 0000000180032958     libucrt:lcidtoname_downlevel.obj
 0002:00004968       ??_C@_1M@DAGCADIM@?$AAa?$AAr?$AA?9?$AAO?$AAM?$AA?$AA@ 0000000180032968     libucrt:lcidtoname_downlevel.obj
 0002:00004978       ??_C@_1M@FODLMICG@?$AAe?$AAn?$AA?9?$AAJ?$AAM?$AA?$AA@ 0000000180032978     libucrt:lcidtoname_downlevel.obj
 0002:00004988       ??_C@_1M@DNMLCIHB@?$AAe?$AAs?$AA?9?$AAV?$AAE?$AA?$AA@ 0000000180032988     libucrt:lcidtoname_downlevel.obj
 0002:00004998       ??_C@_1O@EOKHMKJK@?$AAs?$AAm?$AAs?$AA?9?$AAF?$AAI?$AA?$AA@ 0000000180032998     libucrt:lcidtoname_downlevel.obj
 0002:000049a8       ??_C@_1M@CAFJMKOF@?$AAa?$AAr?$AA?9?$AAY?$AAE?$AA?$AA@ 00000001800329a8     libucrt:lcidtoname_downlevel.obj
 0002:000049b8       ??_C@_1M@CBFHIJLI@?$AAe?$AAn?$AA?9?$AAC?$AAB?$AA?$AA@ 00000001800329b8     libucrt:lcidtoname_downlevel.obj
 0002:000049c8       ??_C@_1M@BGNFLDN@?$AAe?$AAs?$AA?9?$AAC?$AAO?$AA?$AA@ 00000001800329c8     libucrt:lcidtoname_downlevel.obj
 0002:000049d8       ??_C@_1O@JMPHMAMC@?$AAs?$AAm?$AAn?$AA?9?$AAF?$AAI?$AA?$AA@ 00000001800329d8     libucrt:lcidtoname_downlevel.obj
 0002:000049e8       ??_C@_1M@JLANABKE@?$AAa?$AAr?$AA?9?$AAS?$AAY?$AA?$AA@ 00000001800329e8     libucrt:lcidtoname_downlevel.obj
 0002:000049f8       ??_C@_1M@HPKGCFGN@?$AAe?$AAn?$AA?9?$AAB?$AAZ?$AA?$AA@ 00000001800329f8     libucrt:lcidtoname_downlevel.obj
 0002:00004a08       ??_C@_1M@OLJCMLGM@?$AAe?$AAs?$AA?9?$AAP?$AAE?$AA?$AA@ 0000000180032a08     libucrt:lcidtoname_downlevel.obj
 0002:00004a18       ??_C@_1M@MKKGFKLE@?$AAa?$AAr?$AA?9?$AAJ?$AAO?$AA?$AA@ 0000000180032a18     libucrt:lcidtoname_downlevel.obj
 0002:00004a28       ??_C@_1M@EKPGLDNI@?$AAe?$AAn?$AA?9?$AAT?$AAT?$AA?$AA@ 0000000180032a28     libucrt:lcidtoname_downlevel.obj
 0002:00004a38       ??_C@_1M@OONGHFHE@?$AAe?$AAs?$AA?9?$AAA?$AAR?$AA?$AA@ 0000000180032a38     libucrt:lcidtoname_downlevel.obj
 0002:00004a48       ??_C@_1M@OOJFGBHE@?$AAa?$AAr?$AA?9?$AAL?$AAB?$AA?$AA@ 0000000180032a48     libucrt:lcidtoname_downlevel.obj
 0002:00004a58       ??_C@_1M@GCEJHNEG@?$AAe?$AAn?$AA?9?$AAZ?$AAW?$AA?$AA@ 0000000180032a58     libucrt:lcidtoname_downlevel.obj
 0002:00004a68       ??_C@_1M@JNOCAHJI@?$AAe?$AAs?$AA?9?$AAE?$AAC?$AA?$AA@ 0000000180032a68     libucrt:lcidtoname_downlevel.obj
 0002:00004a78       ??_C@_1M@JEFHPGGB@?$AAa?$AAr?$AA?9?$AAK?$AAW?$AA?$AA@ 0000000180032a78     libucrt:lcidtoname_downlevel.obj
 0002:00004a88       ??_C@_1M@MLKIBJOJ@?$AAe?$AAn?$AA?9?$AAP?$AAH?$AA?$AA@ 0000000180032a88     libucrt:lcidtoname_downlevel.obj
 0002:00004a98       ??_C@_1M@BDNIPEND@?$AAe?$AAs?$AA?9?$AAC?$AAL?$AA?$AA@ 0000000180032a98     libucrt:lcidtoname_downlevel.obj
 0002:00004aa8       ??_C@_1M@MPNMEKBD@?$AAa?$AAr?$AA?9?$AAA?$AAE?$AA?$AA@ 0000000180032aa8     libucrt:lcidtoname_downlevel.obj
 0002:00004ab8       ??_C@_1M@KBJALCPI@?$AAe?$AAs?$AA?9?$AAU?$AAY?$AA?$AA@ 0000000180032ab8     libucrt:lcidtoname_downlevel.obj
 0002:00004ac8       ??_C@_1M@LLCCOAGA@?$AAa?$AAr?$AA?9?$AAB?$AAH?$AA?$AA@ 0000000180032ac8     libucrt:lcidtoname_downlevel.obj
 0002:00004ad8       ??_C@_1M@PBFNCDEL@?$AAe?$AAs?$AA?9?$AAP?$AAY?$AA?$AA@ 0000000180032ad8     libucrt:lcidtoname_downlevel.obj
 0002:00004ae8       ??_C@_1M@EDGINPNP@?$AAa?$AAr?$AA?9?$AAQ?$AAA?$AA?$AA@ 0000000180032ae8     libucrt:lcidtoname_downlevel.obj
 0002:00004af8       ??_C@_1M@MKDBIIJI@?$AAe?$AAs?$AA?9?$AAB?$AAO?$AA?$AA@ 0000000180032af8     libucrt:lcidtoname_downlevel.obj
 0002:00004b08       ??_C@_1M@CPKKEBLD@?$AAe?$AAs?$AA?9?$AAS?$AAV?$AA?$AA@ 0000000180032b08     libucrt:lcidtoname_downlevel.obj
 0002:00004b18       ??_C@_1M@NDBGMMJL@?$AAe?$AAs?$AA?9?$AAH?$AAN?$AA?$AA@ 0000000180032b18     libucrt:lcidtoname_downlevel.obj
 0002:00004b28       ??_C@_1M@JIJIBHDP@?$AAe?$AAs?$AA?9?$AAN?$AAI?$AA?$AA@ 0000000180032b28     libucrt:lcidtoname_downlevel.obj
 0002:00004b38       ??_C@_1M@CGFMKEEK@?$AAe?$AAs?$AA?9?$AAP?$AAR?$AA?$AA@ 0000000180032b38     libucrt:lcidtoname_downlevel.obj
 0002:00004b48       ??_C@_1O@ICJHKIIK@?$AAz?$AAh?$AA?9?$AAC?$AAH?$AAT?$AA?$AA@ 0000000180032b48     libucrt:lcidtoname_downlevel.obj
 0002:00004b58       ??_C@_15CLNEJCE@?$AAs?$AAr?$AA?$AA@ 0000000180032b58     libucrt:lcidtoname_downlevel.obj
 0002:000059a0       ??_C@_1M@KAHEKEIG@?$AAa?$AAf?$AA?9?$AAz?$AAa?$AA?$AA@ 00000001800339a0     libucrt:lcidtoname_downlevel.obj
 0002:000059b0       ??_C@_1M@GIECOABL@?$AAa?$AAr?$AA?9?$AAa?$AAe?$AA?$AA@ 00000001800339b0     libucrt:lcidtoname_downlevel.obj
 0002:000059c0       ??_C@_1M@BMLMEKGI@?$AAa?$AAr?$AA?9?$AAb?$AAh?$AA?$AA@ 00000001800339c0     libucrt:lcidtoname_downlevel.obj
 0002:000059d0       ??_C@_1M@DAPFDGGB@?$AAa?$AAr?$AA?9?$AAd?$AAz?$AA?$AA@ 00000001800339d0     libucrt:lcidtoname_downlevel.obj
 0002:000059e0       ??_C@_1M@FJNKGKIG@?$AAa?$AAr?$AA?9?$AAe?$AAg?$AA?$AA@ 00000001800339e0     libucrt:lcidtoname_downlevel.obj
 0002:000059f0       ??_C@_1M@FLGKKCLO@?$AAa?$AAr?$AA?9?$AAi?$AAq?$AA?$AA@ 00000001800339f0     libucrt:lcidtoname_downlevel.obj
 0002:00005a00       ??_C@_1M@GNDIPALM@?$AAa?$AAr?$AA?9?$AAj?$AAo?$AA?$AA@ 0000000180033a00     libucrt:lcidtoname_downlevel.obj
 0002:00005a10       ??_C@_1M@DDMJFMGJ@?$AAa?$AAr?$AA?9?$AAk?$AAw?$AA?$AA@ 0000000180033a10     libucrt:lcidtoname_downlevel.obj
 0002:00005a20       ??_C@_1M@EJALMLHM@?$AAa?$AAr?$AA?9?$AAl?$AAb?$AA?$AA@ 0000000180033a20     libucrt:lcidtoname_downlevel.obj
 0002:00005a30       ??_C@_1M@MOBDBLOC@?$AAa?$AAr?$AA?9?$AAl?$AAy?$AA?$AA@ 0000000180033a30     libucrt:lcidtoname_downlevel.obj
 0002:00005a40       ??_C@_1M@JAOCLHDH@?$AAa?$AAr?$AA?9?$AAm?$AAa?$AA?$AA@ 0000000180033a40     libucrt:lcidtoname_downlevel.obj
 0002:00005a50       ??_C@_1M@JHPMKJIE@?$AAa?$AAr?$AA?9?$AAo?$AAm?$AA?$AA@ 0000000180033a50     libucrt:lcidtoname_downlevel.obj
 0002:00005a60       ??_C@_1M@OEPGHFNH@?$AAa?$AAr?$AA?9?$AAq?$AAa?$AA?$AA@ 0000000180033a60     libucrt:lcidtoname_downlevel.obj
 0002:00005a70       ??_C@_1M@KJDONENM@?$AAa?$AAr?$AA?9?$AAs?$AAa?$AA?$AA@ 0000000180033a70     libucrt:lcidtoname_downlevel.obj
 0002:00005a80       ??_C@_1M@DMJDKLKM@?$AAa?$AAr?$AA?9?$AAs?$AAy?$AA?$AA@ 0000000180033a80     libucrt:lcidtoname_downlevel.obj
 0002:00005a90       ??_C@_1M@OMFIPEDC@?$AAa?$AAr?$AA?9?$AAt?$AAn?$AA?$AA@ 0000000180033a90     libucrt:lcidtoname_downlevel.obj
 0002:00005aa0       ??_C@_1M@IHMHGAON@?$AAa?$AAr?$AA?9?$AAy?$AAe?$AA?$AA@ 0000000180033aa0     libucrt:lcidtoname_downlevel.obj
 0002:00005ab0       ??_C@_1BG@KDCPGJGB@?$AAa?$AAz?$AA?9?$AAa?$AAz?$AA?9?$AAc?$AAy?$AAr?$AAl?$AA?$AA@ 0000000180033ab0     libucrt:lcidtoname_downlevel.obj
 0002:00005ac8       ??_C@_1BG@IBCKDDOE@?$AAa?$AAz?$AA?9?$AAa?$AAz?$AA?9?$AAl?$AAa?$AAt?$AAn?$AA?$AA@ 0000000180033ac8     libucrt:lcidtoname_downlevel.obj
 0002:00005ae0       ??_C@_1M@EGPFDCPD@?$AAb?$AAe?$AA?9?$AAb?$AAy?$AA?$AA@ 0000000180033ae0     libucrt:lcidtoname_downlevel.obj
 0002:00005af0       ??_C@_1M@PCMGMCGC@?$AAb?$AAg?$AA?9?$AAb?$AAg?$AA?$AA@ 0000000180033af0     libucrt:lcidtoname_downlevel.obj
 0002:00005b00       ??_C@_1M@BJBMFGOB@?$AAb?$AAn?$AA?9?$AAi?$AAn?$AA?$AA@ 0000000180033b00     libucrt:lcidtoname_downlevel.obj
 0002:00005b10       ??_C@_1BG@EAKMMACD@?$AAb?$AAs?$AA?9?$AAb?$AAa?$AA?9?$AAl?$AAa?$AAt?$AAn?$AA?$AA@ 0000000180033b10     libucrt:lcidtoname_downlevel.obj
 0002:00005b28       ??_C@_1M@KGADAODK@?$AAc?$AAa?$AA?9?$AAe?$AAs?$AA?$AA@ 0000000180033b28     libucrt:lcidtoname_downlevel.obj
 0002:00005b38       ??_C@_1M@COAJPDHI@?$AAc?$AAs?$AA?9?$AAc?$AAz?$AA?$AA@ 0000000180033b38     libucrt:lcidtoname_downlevel.obj
 0002:00005b48       ??_C@_1M@DHBHFONH@?$AAc?$AAy?$AA?9?$AAg?$AAb?$AA?$AA@ 0000000180033b48     libucrt:lcidtoname_downlevel.obj
 0002:00005b58       ??_C@_1M@IMGKELGA@?$AAd?$AAa?$AA?9?$AAd?$AAk?$AA?$AA@ 0000000180033b58     libucrt:lcidtoname_downlevel.obj
 0002:00005b68       ??_C@_1M@NNDGDNGA@?$AAd?$AAe?$AA?9?$AAa?$AAt?$AA?$AA@ 0000000180033b68     libucrt:lcidtoname_downlevel.obj
 0002:00005b78       ??_C@_1M@IKDBHEEM@?$AAd?$AAe?$AA?9?$AAc?$AAh?$AA?$AA@ 0000000180033b78     libucrt:lcidtoname_downlevel.obj
 0002:00005b88       ??_C@_1M@GFFOJMCJ@?$AAd?$AAe?$AA?9?$AAd?$AAe?$AA?$AA@ 0000000180033b88     libucrt:lcidtoname_downlevel.obj
 0002:00005b98       ??_C@_1M@MDNLKBPM@?$AAd?$AAe?$AA?9?$AAl?$AAi?$AA?$AA@ 0000000180033b98     libucrt:lcidtoname_downlevel.obj
 0002:00005ba8       ??_C@_1M@NJBEEJNL@?$AAd?$AAe?$AA?9?$AAl?$AAu?$AA?$AA@ 0000000180033ba8     libucrt:lcidtoname_downlevel.obj
 0002:00005bb8       ??_C@_1O@GNNELBAP@?$AAd?$AAi?$AAv?$AA?9?$AAm?$AAv?$AA?$AA@ 0000000180033bb8     libucrt:lcidtoname_downlevel.obj
 0002:00005bc8       ??_C@_1M@EJLEOGAE@?$AAe?$AAl?$AA?9?$AAg?$AAr?$AA?$AA@ 0000000180033bc8     libucrt:lcidtoname_downlevel.obj
 0002:00005bd8       ??_C@_1M@GMPONJN@?$AAe?$AAn?$AA?9?$AAa?$AAu?$AA?$AA@ 0000000180033bd8     libucrt:lcidtoname_downlevel.obj
 0002:00005be8       ??_C@_1M@NIDIIPGF@?$AAe?$AAn?$AA?9?$AAb?$AAz?$AA?$AA@ 0000000180033be8     libucrt:lcidtoname_downlevel.obj
 0002:00005bf8       ??_C@_1M@JEHMIMFO@?$AAe?$AAn?$AA?9?$AAc?$AAa?$AA?$AA@ 0000000180033bf8     libucrt:lcidtoname_downlevel.obj
 0002:00005c08       ??_C@_1M@IGMJCDLA@?$AAe?$AAn?$AA?9?$AAc?$AAb?$AA?$AA@ 0000000180033c08     libucrt:lcidtoname_downlevel.obj
 0002:00005c18       ??_C@_1M@BNFIGBKG@?$AAe?$AAn?$AA?9?$AAg?$AAb?$AA?$AA@ 0000000180033c18     libucrt:lcidtoname_downlevel.obj
 0002:00005c28       ??_C@_1M@LKIFDIGP@?$AAe?$AAn?$AA?9?$AAi?$AAe?$AA?$AA@ 0000000180033c28     libucrt:lcidtoname_downlevel.obj
 0002:00005c38       ??_C@_1M@PJKFGCCO@?$AAe?$AAn?$AA?9?$AAj?$AAm?$AA?$AA@ 0000000180033c38     libucrt:lcidtoname_downlevel.obj
 0002:00005c48       ??_C@_1M@KPPKEPBO@?$AAe?$AAn?$AA?9?$AAn?$AAz?$AA?$AA@ 0000000180033c48     libucrt:lcidtoname_downlevel.obj
 0002:00005c58       ??_C@_1M@GMDGLDOB@?$AAe?$AAn?$AA?9?$AAp?$AAh?$AA?$AA@ 0000000180033c58     libucrt:lcidtoname_downlevel.obj
 0002:00005c68       ??_C@_1M@ONGIBJNA@?$AAe?$AAn?$AA?9?$AAt?$AAt?$AA?$AA@ 0000000180033c68     libucrt:lcidtoname_downlevel.obj
 0002:00005c78       ??_C@_1M@LLODPCMM@?$AAe?$AAn?$AA?9?$AAu?$AAs?$AA?$AA@ 0000000180033c78     libucrt:lcidtoname_downlevel.obj
 0002:00005c88       ??_C@_1M@LAKFNPAN@?$AAe?$AAn?$AA?9?$AAz?$AAa?$AA?$AA@ 0000000180033c88     libucrt:lcidtoname_downlevel.obj
 0002:00005c98       ??_C@_1M@MFNHNHEO@?$AAe?$AAn?$AA?9?$AAz?$AAw?$AA?$AA@ 0000000180033c98     libucrt:lcidtoname_downlevel.obj
 0002:00005ca8       ??_C@_1M@EJEINPHM@?$AAe?$AAs?$AA?9?$AAa?$AAr?$AA?$AA@ 0000000180033ca8     libucrt:lcidtoname_downlevel.obj
 0002:00005cb8       ??_C@_1M@GNKPCCJA@?$AAe?$AAs?$AA?9?$AAb?$AAo?$AA?$AA@ 0000000180033cb8     libucrt:lcidtoname_downlevel.obj
 0002:00005cc8       ??_C@_1M@LEEGFONL@?$AAe?$AAs?$AA?9?$AAc?$AAl?$AA?$AA@ 0000000180033cc8     libucrt:lcidtoname_downlevel.obj
 0002:00005cd8       ??_C@_1M@KGPDPBDF@?$AAe?$AAs?$AA?9?$AAc?$AAo?$AA?$AA@ 0000000180033cd8     libucrt:lcidtoname_downlevel.obj
 0002:00005ce8       ??_C@_1M@EIAHOHH@?$AAe?$AAs?$AA?9?$AAc?$AAr?$AA?$AA@ 0000000180033ce8     libucrt:lcidtoname_downlevel.obj
 0002:00005cf8       ??_C@_1M@LLPGMBIN@?$AAe?$AAs?$AA?9?$AAd?$AAo?$AA?$AA@ 0000000180033cf8     libucrt:lcidtoname_downlevel.obj
 0002:00005d08       ??_C@_1M@DKHMKNJA@?$AAe?$AAs?$AA?9?$AAe?$AAc?$AA?$AA@ 0000000180033d08     libucrt:lcidtoname_downlevel.obj
 0002:00005d18       ??_C@_1M@GKGFPKAP@?$AAe?$AAs?$AA?9?$AAe?$AAs?$AA?$AA@ 0000000180033d18     libucrt:lcidtoname_downlevel.obj
 0002:00005d28       ??_C@_1M@LKHKGDLN@?$AAe?$AAs?$AA?9?$AAg?$AAt?$AA?$AA@ 0000000180033d28     libucrt:lcidtoname_downlevel.obj
 0002:00005d38       ??_C@_1M@HEIIGGJD@?$AAe?$AAs?$AA?9?$AAh?$AAn?$AA?$AA@ 0000000180033d38     libucrt:lcidtoname_downlevel.obj
 0002:00005d48       ??_C@_1M@FBDHPPGD@?$AAe?$AAs?$AA?9?$AAm?$AAx?$AA?$AA@ 0000000180033d48     libucrt:lcidtoname_downlevel.obj
 0002:00005d58       ??_C@_1M@DPAGLNDH@?$AAe?$AAs?$AA?9?$AAn?$AAi?$AA?$AA@ 0000000180033d58     libucrt:lcidtoname_downlevel.obj
 0002:00005d68       ??_C@_1M@MDGOPGDD@?$AAe?$AAs?$AA?9?$AAp?$AAa?$AA?$AA@ 0000000180033d68     libucrt:lcidtoname_downlevel.obj
 0002:00005d78       ??_C@_1M@EMAMGBGE@?$AAe?$AAs?$AA?9?$AAp?$AAe?$AA?$AA@ 0000000180033d78     libucrt:lcidtoname_downlevel.obj
 0002:00005d88       ??_C@_1M@IBMCAOEC@?$AAe?$AAs?$AA?9?$AAp?$AAr?$AA?$AA@ 0000000180033d88     libucrt:lcidtoname_downlevel.obj
 0002:00005d98       ??_C@_1M@FGMDIJED@?$AAe?$AAs?$AA?9?$AAp?$AAy?$AA?$AA@ 0000000180033d98     libucrt:lcidtoname_downlevel.obj
 0002:00005da8       ??_C@_1M@IIDEOLLL@?$AAe?$AAs?$AA?9?$AAs?$AAv?$AA?$AA@ 0000000180033da8     libucrt:lcidtoname_downlevel.obj
 0002:00005db8       ??_C@_1M@GAOBIPA@?$AAe?$AAs?$AA?9?$AAu?$AAy?$AA?$AA@ 0000000180033db8     libucrt:lcidtoname_downlevel.obj
 0002:00005dc8       ??_C@_1M@JKFFICHJ@?$AAe?$AAs?$AA?9?$AAv?$AAe?$AA?$AA@ 0000000180033dc8     libucrt:lcidtoname_downlevel.obj
 0002:00005dd8       ??_C@_1M@PNMLOJDF@?$AAe?$AAt?$AA?9?$AAe?$AAe?$AA?$AA@ 0000000180033dd8     libucrt:lcidtoname_downlevel.obj
 0002:00005de8       ??_C@_1M@GHHLIKEI@?$AAe?$AAu?$AA?9?$AAe?$AAs?$AA?$AA@ 0000000180033de8     libucrt:lcidtoname_downlevel.obj
 0002:00005df8       ??_C@_1M@PBNONODE@?$AAf?$AAa?$AA?9?$AAi?$AAr?$AA?$AA@ 0000000180033df8     libucrt:lcidtoname_downlevel.obj
 0002:00005e08       ??_C@_1M@JEEHPMIL@?$AAf?$AAi?$AA?9?$AAf?$AAi?$AA?$AA@ 0000000180033e08     libucrt:lcidtoname_downlevel.obj
 0002:00005e18       ??_C@_1M@LMDCNDBA@?$AAf?$AAo?$AA?9?$AAf?$AAo?$AA?$AA@ 0000000180033e18     libucrt:lcidtoname_downlevel.obj
 0002:00005e28       ??_C@_1M@JKEOHLDK@?$AAf?$AAr?$AA?9?$AAb?$AAe?$AA?$AA@ 0000000180033e28     libucrt:lcidtoname_downlevel.obj
 0002:00005e38       ??_C@_1M@NOHADPMI@?$AAf?$AAr?$AA?9?$AAc?$AAa?$AA?$AA@ 0000000180033e38     libucrt:lcidtoname_downlevel.obj
 0002:00005e48       ??_C@_1M@KDHIHAEC@?$AAf?$AAr?$AA?9?$AAc?$AAh?$AA?$AA@ 0000000180033e48     libucrt:lcidtoname_downlevel.obj
 0002:00005e58       ??_C@_1M@MMBBFGAK@?$AAf?$AAr?$AA?9?$AAf?$AAr?$AA?$AA@ 0000000180033e58     libucrt:lcidtoname_downlevel.obj
 0002:00005e68       ??_C@_1M@PAFNENNF@?$AAf?$AAr?$AA?9?$AAl?$AAu?$AA?$AA@ 0000000180033e68     libucrt:lcidtoname_downlevel.obj
 0002:00005e78       ??_C@_1M@EOHDJGDD@?$AAf?$AAr?$AA?9?$AAm?$AAc?$AA?$AA@ 0000000180033e78     libucrt:lcidtoname_downlevel.obj
 0002:00005e88       ??_C@_1M@FAPLLOPF@?$AAg?$AAl?$AA?9?$AAe?$AAs?$AA?$AA@ 0000000180033e88     libucrt:lcidtoname_downlevel.obj
 0002:00005e98       ??_C@_1M@FOPBFLOO@?$AAg?$AAu?$AA?9?$AAi?$AAn?$AA?$AA@ 0000000180033e98     libucrt:lcidtoname_downlevel.obj
 0002:00005ea8       ??_C@_1M@KBMCINPM@?$AAh?$AAe?$AA?9?$AAi?$AAl?$AA?$AA@ 0000000180033ea8     libucrt:lcidtoname_downlevel.obj
 0002:00005eb8       ??_C@_1M@BBPHKFPJ@?$AAh?$AAi?$AA?9?$AAi?$AAn?$AA?$AA@ 0000000180033eb8     libucrt:lcidtoname_downlevel.obj
 0002:00005ec8       ??_C@_1M@PMBNDPHD@?$AAh?$AAr?$AA?9?$AAb?$AAa?$AA?$AA@ 0000000180033ec8     libucrt:lcidtoname_downlevel.obj
 0002:00005ed8       ??_C@_1M@BPCKOEGE@?$AAh?$AAr?$AA?9?$AAh?$AAr?$AA?$AA@ 0000000180033ed8     libucrt:lcidtoname_downlevel.obj
 0002:00005ee8       ??_C@_1M@GACBMHKE@?$AAh?$AAu?$AA?9?$AAh?$AAu?$AA?$AA@ 0000000180033ee8     libucrt:lcidtoname_downlevel.obj
 0002:00005ef8       ??_C@_1M@MILPAJJC@?$AAh?$AAy?$AA?9?$AAa?$AAm?$AA?$AA@ 0000000180033ef8     libucrt:lcidtoname_downlevel.obj
 0002:00005f08       ??_C@_1M@BABBICEC@?$AAi?$AAd?$AA?9?$AAi?$AAd?$AA?$AA@ 0000000180033f08     libucrt:lcidtoname_downlevel.obj
 0002:00005f18       ??_C@_1M@BIKNHHPF@?$AAi?$AAs?$AA?9?$AAi?$AAs?$AA?$AA@ 0000000180033f18     libucrt:lcidtoname_downlevel.obj
 0002:00005f28       ??_C@_1M@NMPCJPHE@?$AAi?$AAt?$AA?9?$AAc?$AAh?$AA?$AA@ 0000000180033f28     libucrt:lcidtoname_downlevel.obj
 0002:00005f38       ??_C@_1M@GHKGFEDF@?$AAi?$AAt?$AA?9?$AAi?$AAt?$AA?$AA@ 0000000180033f38     libucrt:lcidtoname_downlevel.obj
 0002:00005f48       ??_C@_1M@NIEJCJJA@?$AAj?$AAa?$AA?9?$AAj?$AAp?$AA?$AA@ 0000000180033f48     libucrt:lcidtoname_downlevel.obj
 0002:00005f58       ??_C@_1M@JILFNBIM@?$AAk?$AAa?$AA?9?$AAg?$AAe?$AA?$AA@ 0000000180033f58     libucrt:lcidtoname_downlevel.obj
 0002:00005f68       ??_C@_1M@PACPMGPH@?$AAk?$AAk?$AA?9?$AAk?$AAz?$AA?$AA@ 0000000180033f68     libucrt:lcidtoname_downlevel.obj
 0002:00005f78       ??_C@_1M@IELFGMHA@?$AAk?$AAn?$AA?9?$AAi?$AAn?$AA?$AA@ 0000000180033f78     libucrt:lcidtoname_downlevel.obj
 0002:00005f88       ??_C@_1O@IBBJHCH@?$AAk?$AAo?$AAk?$AA?9?$AAi?$AAn?$AA?$AA@ 0000000180033f88     libucrt:lcidtoname_downlevel.obj
 0002:00005f98       ??_C@_1M@DMHAEOGC@?$AAk?$AAo?$AA?9?$AAk?$AAr?$AA?$AA@ 0000000180033f98     libucrt:lcidtoname_downlevel.obj
 0002:00005fa8       ??_C@_1M@HBAHBIGA@?$AAk?$AAy?$AA?9?$AAk?$AAg?$AA?$AA@ 0000000180033fa8     libucrt:lcidtoname_downlevel.obj
 0002:00005fb8       ??_C@_1M@KPMILCJG@?$AAl?$AAt?$AA?9?$AAl?$AAt?$AA?$AA@ 0000000180033fb8     libucrt:lcidtoname_downlevel.obj
 0002:00005fc8       ??_C@_1M@BDEKKCA@?$AAl?$AAv?$AA?9?$AAl?$AAv?$AA?$AA@ 0000000180033fc8     libucrt:lcidtoname_downlevel.obj
 0002:00005fd8       ??_C@_1M@ELCKCCJJ@?$AAm?$AAi?$AA?9?$AAn?$AAz?$AA?$AA@ 0000000180033fd8     libucrt:lcidtoname_downlevel.obj
 0002:00005fe8       ??_C@_1M@CBOOLAPA@?$AAm?$AAk?$AA?9?$AAm?$AAk?$AA?$AA@ 0000000180033fe8     libucrt:lcidtoname_downlevel.obj
 0002:00005ff8       ??_C@_1M@GPHNBJKN@?$AAm?$AAl?$AA?9?$AAi?$AAn?$AA?$AA@ 0000000180033ff8     libucrt:lcidtoname_downlevel.obj
 0002:00006008       ??_C@_1M@PABJILIG@?$AAm?$AAn?$AA?9?$AAm?$AAn?$AA?$AA@ 0000000180034008     libucrt:lcidtoname_downlevel.obj
 0002:00006018       ??_C@_1M@FGBKKIPG@?$AAm?$AAr?$AA?9?$AAi?$AAn?$AA?$AA@ 0000000180034018     libucrt:lcidtoname_downlevel.obj
 0002:00006028       ??_C@_1M@NDBPDDAL@?$AAm?$AAs?$AA?9?$AAb?$AAn?$AA?$AA@ 0000000180034028     libucrt:lcidtoname_downlevel.obj
 0002:00006038       ??_C@_1M@OPIHOOPI@?$AAm?$AAs?$AA?9?$AAm?$AAy?$AA?$AA@ 0000000180034038     libucrt:lcidtoname_downlevel.obj
 0002:00006048       ??_C@_1M@PPDBCNFM@?$AAm?$AAt?$AA?9?$AAm?$AAt?$AA?$AA@ 0000000180034048     libucrt:lcidtoname_downlevel.obj
 0002:00006058       ??_C@_1M@KDJDKMDD@?$AAn?$AAb?$AA?9?$AAn?$AAo?$AA?$AA@ 0000000180034058     libucrt:lcidtoname_downlevel.obj
 0002:00006068       ??_C@_1M@KFCFLMJP@?$AAn?$AAl?$AA?9?$AAb?$AAe?$AA?$AA@ 0000000180034068     libucrt:lcidtoname_downlevel.obj
 0002:00006078       ??_C@_1M@KPOPDDGO@?$AAn?$AAl?$AA?9?$AAn?$AAl?$AA?$AA@ 0000000180034078     libucrt:lcidtoname_downlevel.obj
 0002:00006088       ??_C@_1M@LJKPEMLN@?$AAn?$AAn?$AA?9?$AAn?$AAo?$AA?$AA@ 0000000180034088     libucrt:lcidtoname_downlevel.obj
 0002:00006098       ??_C@_1M@BDGHHBFL@?$AAn?$AAs?$AA?9?$AAz?$AAa?$AA?$AA@ 0000000180034098     libucrt:lcidtoname_downlevel.obj
 0002:000060a8       ??_C@_1M@IDEHOAP@?$AAp?$AAa?$AA?9?$AAi?$AAn?$AA?$AA@ 00000001800340a8     libucrt:lcidtoname_downlevel.obj
 0002:000060b8       ??_C@_1M@HDBKGOGH@?$AAp?$AAl?$AA?9?$AAp?$AAl?$AA?$AA@ 00000001800340b8     libucrt:lcidtoname_downlevel.obj
 0002:000060c8       ??_C@_1M@LJLLCMEH@?$AAp?$AAt?$AA?9?$AAb?$AAr?$AA?$AA@ 00000001800340c8     libucrt:lcidtoname_downlevel.obj
 0002:000060d8       ??_C@_1M@NCMONAAL@?$AAp?$AAt?$AA?9?$AAp?$AAt?$AA?$AA@ 00000001800340d8     libucrt:lcidtoname_downlevel.obj
 0002:000060e8       ??_C@_1O@EAKMAJDN@?$AAq?$AAu?$AAz?$AA?9?$AAb?$AAo?$AA?$AA@ 00000001800340e8     libucrt:lcidtoname_downlevel.obj
 0002:000060f8       ??_C@_1O@BHHPIGDN@?$AAq?$AAu?$AAz?$AA?9?$AAe?$AAc?$AA?$AA@ 00000001800340f8     libucrt:lcidtoname_downlevel.obj
 0002:00006108       ??_C@_1O@GBAPEKMJ@?$AAq?$AAu?$AAz?$AA?9?$AAp?$AAe?$AA?$AA@ 0000000180034108     libucrt:lcidtoname_downlevel.obj
 0002:00006118       ??_C@_1M@CLGLEFBO@?$AAr?$AAo?$AA?9?$AAr?$AAo?$AA?$AA@ 0000000180034118     libucrt:lcidtoname_downlevel.obj
 0002:00006128       ??_C@_1M@CEEDODME@?$AAr?$AAu?$AA?9?$AAr?$AAu?$AA?$AA@ 0000000180034128     libucrt:lcidtoname_downlevel.obj
 0002:00006138       ??_C@_1M@HPKKKMPP@?$AAs?$AAa?$AA?9?$AAi?$AAn?$AA?$AA@ 0000000180034138     libucrt:lcidtoname_downlevel.obj
 0002:00006148       ??_C@_1M@BKMAIGOJ@?$AAs?$AAe?$AA?9?$AAf?$AAi?$AA?$AA@ 0000000180034148     libucrt:lcidtoname_downlevel.obj
 0002:00006158       ??_C@_1M@NDPIFLFI@?$AAs?$AAe?$AA?9?$AAn?$AAo?$AA?$AA@ 0000000180034158     libucrt:lcidtoname_downlevel.obj
 0002:00006168       ??_C@_1M@DANKKHJ@?$AAs?$AAe?$AA?9?$AAs?$AAe?$AA?$AA@ 0000000180034168     libucrt:lcidtoname_downlevel.obj
 0002:00006178       ??_C@_1M@PNBLONPJ@?$AAs?$AAk?$AA?9?$AAs?$AAk?$AA?$AA@ 0000000180034178     libucrt:lcidtoname_downlevel.obj
 0002:00006188       ??_C@_1M@LFMODOAL@?$AAs?$AAl?$AA?9?$AAs?$AAi?$AA?$AA@ 0000000180034188     libucrt:lcidtoname_downlevel.obj
 0002:00006198       ??_C@_1O@DFKOMPG@?$AAs?$AAm?$AAa?$AA?9?$AAn?$AAo?$AA?$AA@ 0000000180034198     libucrt:lcidtoname_downlevel.obj
 0002:000061a8       ??_C@_1O@NDKPBNNH@?$AAs?$AAm?$AAa?$AA?9?$AAs?$AAe?$AA?$AA@ 00000001800341a8     libucrt:lcidtoname_downlevel.obj
 0002:000061b8       ??_C@_1O@PLLKBHAB@?$AAs?$AAm?$AAj?$AA?9?$AAn?$AAo?$AA?$AA@ 00000001800341b8     libucrt:lcidtoname_downlevel.obj
 0002:000061c8       ??_C@_1O@CLEPOGCA@?$AAs?$AAm?$AAj?$AA?9?$AAs?$AAe?$AA?$AA@ 00000001800341c8     libucrt:lcidtoname_downlevel.obj
 0002:000061d8       ??_C@_1O@DLGJGKMK@?$AAs?$AAm?$AAn?$AA?9?$AAf?$AAi?$AA?$AA@ 00000001800341d8     libucrt:lcidtoname_downlevel.obj
 0002:000061e8       ??_C@_1O@OJDJGAJC@?$AAs?$AAm?$AAs?$AA?9?$AAf?$AAi?$AA?$AA@ 00000001800341e8     libucrt:lcidtoname_downlevel.obj
 0002:000061f8       ??_C@_1M@BOFOGHPB@?$AAs?$AAq?$AA?9?$AAa?$AAl?$AA?$AA@ 00000001800341f8     libucrt:lcidtoname_downlevel.obj
 0002:00006208       ??_C@_1BG@LJBBIPGB@?$AAs?$AAr?$AA?9?$AAb?$AAa?$AA?9?$AAc?$AAy?$AAr?$AAl?$AA?$AA@ 0000000180034208     libucrt:lcidtoname_downlevel.obj
 0002:00006220       ??_C@_1BG@JLBENFOE@?$AAs?$AAr?$AA?9?$AAb?$AAa?$AA?9?$AAl?$AAa?$AAt?$AAn?$AA?$AA@ 0000000180034220     libucrt:lcidtoname_downlevel.obj
 0002:00006238       ??_C@_1BG@KODPNHE@?$AAs?$AAr?$AA?9?$AAs?$AAp?$AA?9?$AAc?$AAy?$AAr?$AAl?$AA?$AA@ 0000000180034238     libucrt:lcidtoname_downlevel.obj
 0002:00006250       ??_C@_1BG@CIOGKHPB@?$AAs?$AAr?$AA?9?$AAs?$AAp?$AA?9?$AAl?$AAa?$AAt?$AAn?$AA?$AA@ 0000000180034250     libucrt:lcidtoname_downlevel.obj
 0002:00006268       ??_C@_1M@NGFJLMAC@?$AAs?$AAv?$AA?9?$AAf?$AAi?$AA?$AA@ 0000000180034268     libucrt:lcidtoname_downlevel.obj
 0002:00006278       ??_C@_1M@MPJEJAJC@?$AAs?$AAv?$AA?9?$AAs?$AAe?$AA?$AA@ 0000000180034278     libucrt:lcidtoname_downlevel.obj
 0002:00006288       ??_C@_1M@MPNDHLFK@?$AAs?$AAw?$AA?9?$AAk?$AAe?$AA?$AA@ 0000000180034288     libucrt:lcidtoname_downlevel.obj
 0002:00006298       ??_C@_1O@KOHBJJI@?$AAs?$AAy?$AAr?$AA?9?$AAs?$AAy?$AA?$AA@ 0000000180034298     libucrt:lcidtoname_downlevel.obj
 0002:000062a8       ??_C@_1M@LDCEFHA@?$AAt?$AAa?$AA?9?$AAi?$AAn?$AA?$AA@ 00000001800342a8     libucrt:lcidtoname_downlevel.obj
 0002:000062b8       ??_C@_1M@CNJOFAK@?$AAt?$AAe?$AA?9?$AAi?$AAn?$AA?$AA@ 00000001800342b8     libucrt:lcidtoname_downlevel.obj
 0002:000062c8       ??_C@_1M@GNAECACD@?$AAt?$AAh?$AA?9?$AAt?$AAh?$AA?$AA@ 00000001800342c8     libucrt:lcidtoname_downlevel.obj
 0002:000062d8       ??_C@_1M@CHBIHOJO@?$AAt?$AAn?$AA?9?$AAz?$AAa?$AA?$AA@ 00000001800342d8     libucrt:lcidtoname_downlevel.obj
 0002:000062e8       ??_C@_1M@GCCMIGPJ@?$AAt?$AAr?$AA?9?$AAt?$AAr?$AA?$AA@ 00000001800342e8     libucrt:lcidtoname_downlevel.obj
 0002:000062f8       ??_C@_1M@CELMCNBK@?$AAt?$AAt?$AA?9?$AAr?$AAu?$AA?$AA@ 00000001800342f8     libucrt:lcidtoname_downlevel.obj
 0002:00006308       ??_C@_1M@KLMCELGA@?$AAu?$AAk?$AA?9?$AAu?$AAa?$AA?$AA@ 0000000180034308     libucrt:lcidtoname_downlevel.obj
 0002:00006318       ??_C@_1M@EPAJJAJF@?$AAu?$AAr?$AA?9?$AAp?$AAk?$AA?$AA@ 0000000180034318     libucrt:lcidtoname_downlevel.obj
 0002:00006328       ??_C@_1BG@GEGPMCDJ@?$AAu?$AAz?$AA?9?$AAu?$AAz?$AA?9?$AAc?$AAy?$AAr?$AAl?$AA?$AA@ 0000000180034328     libucrt:lcidtoname_downlevel.obj
 0002:00006340       ??_C@_1BG@EGGKJILM@?$AAu?$AAz?$AA?9?$AAu?$AAz?$AA?9?$AAl?$AAa?$AAt?$AAn?$AA?$AA@ 0000000180034340     libucrt:lcidtoname_downlevel.obj
 0002:00006358       ??_C@_1M@GFOCLFF@?$AAv?$AAi?$AA?9?$AAv?$AAn?$AA?$AA@ 0000000180034358     libucrt:lcidtoname_downlevel.obj
 0002:00006368       ??_C@_1M@CPAMEDFI@?$AAx?$AAh?$AA?9?$AAz?$AAa?$AA?$AA@ 0000000180034368     libucrt:lcidtoname_downlevel.obj
 0002:00006378       ??_C@_1O@EBKIFIGN@?$AAz?$AAh?$AA?9?$AAc?$AAh?$AAs?$AA?$AA@ 0000000180034378     libucrt:lcidtoname_downlevel.obj
 0002:00006388       ??_C@_1O@NMHPGANE@?$AAz?$AAh?$AA?9?$AAc?$AAh?$AAt?$AA?$AA@ 0000000180034388     libucrt:lcidtoname_downlevel.obj
 0002:00006398       ??_C@_1M@LPINJOMC@?$AAz?$AAh?$AA?9?$AAc?$AAn?$AA?$AA@ 0000000180034398     libucrt:lcidtoname_downlevel.obj
 0002:000063a8       ??_C@_1M@OCJEJODD@?$AAz?$AAh?$AA?9?$AAh?$AAk?$AA?$AA@ 00000001800343a8     libucrt:lcidtoname_downlevel.obj
 0002:000063b8       ??_C@_1M@DNDLJINH@?$AAz?$AAh?$AA?9?$AAm?$AAo?$AA?$AA@ 00000001800343b8     libucrt:lcidtoname_downlevel.obj
 0002:000063c8       ??_C@_1M@MBFDNDND@?$AAz?$AAh?$AA?9?$AAs?$AAg?$AA?$AA@ 00000001800343c8     libucrt:lcidtoname_downlevel.obj
 0002:000063d8       ??_C@_1M@IMEPLEPE@?$AAz?$AAh?$AA?9?$AAt?$AAw?$AA?$AA@ 00000001800343d8     libucrt:lcidtoname_downlevel.obj
 0002:000063e8       ??_C@_1M@BBGHNHJP@?$AAz?$AAu?$AA?9?$AAz?$AAa?$AA?$AA@ 00000001800343e8     libucrt:lcidtoname_downlevel.obj
 0002:00006400       ?large_power_data@?1??multiply_by_power_of_ten@__crt_strtox@@YA_NAEAUbig_integer@2@I@Z@4QBIB 0000000180034400     libucrt:cfout.obj
 0002:00006d10       ?large_power_indices@?1??multiply_by_power_of_ten@__crt_strtox@@YA_NAEAUbig_integer@2@I@Z@4QBUunpack_index@?1??12@YA_N0I@Z@B 0000000180034d10     libucrt:cfout.obj
 0002:00006da8       ?small_powers_of_ten@?6??multiply_by_power_of_ten@__crt_strtox@@YA_NAEAUbig_integer@2@I@Z@4QBIB 0000000180034da8     libucrt:cfout.obj
 0002:00006dcc       ??_C@_01GBGANLPD@0?$AA@    0000000180034dcc     libucrt:cfout.obj
 0002:00006dd0       ??_C@_05DNEBIAHO@1?$CDINF?$AA@ 0000000180034dd0     libucrt:cfout.obj
 0002:00006dd8       ??_C@_06IMKFLFPG@1?$CDQNAN?$AA@ 0000000180034dd8     libucrt:cfout.obj
 0002:00006de0       ??_C@_06PGGFOGJG@1?$CDSNAN?$AA@ 0000000180034de0     libucrt:cfout.obj
 0002:00006de8       ??_C@_05PHHOCPM@1?$CDIND?$AA@ 0000000180034de8     libucrt:cfout.obj
 0002:00006df0       __real@3ff0000000000000    0000000180034df0     libucrt:ceil.obj
 0002:00007050       ??_C@_1BA@BALFACEM@?$AAC?$AAO?$AAN?$AAO?$AAU?$AAT?$AA$?$AA?$AA@ 0000000180035050     libucrt:initcon.obj
 0002:00007060       __log10_256_lead           0000000180035060     libucrt:log10_256_lead_tail_table.obj
 0002:00007870       __log10_256_tail           0000000180035870     libucrt:log10_256_lead_tail_table.obj
 0002:00008080       __log_F_inv_qword          0000000180036080     libucrt:log_f_inv_qword_table.obj
 0002:00008890       ??_C@_05HGHHAHAP@log10?$AA@ 0000000180036890     libucrt:log_special.obj
 0002:000088b0       ??_C@_1BK@DBDEIDLH@?$AAK?$AAE?$AAR?$AAN?$AAE?$AAL?$AA3?$AA2?$AA?4?$AAD?$AAL?$AAL?$AA?$AA@ 00000001800368b0     DelayImp:delayhlp.obj
 0002:000088d0       ??_C@_0BI@OMNLIJDB@AcquireSRWLockExclusive?$AA@ 00000001800368d0     DelayImp:delayhlp.obj
 0002:000088e8       ??_C@_0BI@HMIEPCNJ@ReleaseSRWLockExclusive?$AA@ 00000001800368e8     DelayImp:delayhlp.obj
 0002:00008900       __pfnDliFailureHook2       0000000180036900     DelayImp:delayhk1.obj
 0002:00008910       _load_config_used          0000000180036910     LIBCMT:loadcfg.obj
 0002:000089a4       ??_C@_04LLJCPOLH@Init?$AA@ 00000001800369a4     bindings.obj
 0002:000089b0       ??_C@_09BKIECDFE@uniform1f?$AA@ 00000001800369b0     bindings.obj
 0002:000089c0       ??_C@_09BIMCJNAN@uniform2f?$AA@ 00000001800369c0     bindings.obj
 0002:000089d0       ??_C@_09BJAAPHDK@uniform3f?$AA@ 00000001800369d0     bindings.obj
 0002:000089e0       ??_C@_09BMEPOBLP@uniform4f?$AA@ 00000001800369e0     bindings.obj
 0002:000089f0       ??_C@_09JNBMDPJL@uniform1i?$AA@ 00000001800369f0     bindings.obj
 0002:00008a00       ??_C@_09JPFKIBMC@uniform2i?$AA@ 0000000180036a00     bindings.obj
 0002:00008a10       ??_C@_09JOJIOLPF@uniform3i?$AA@ 0000000180036a10     bindings.obj
 0002:00008a20       ??_C@_09JLNHPNHA@uniform4i?$AA@ 0000000180036a20     bindings.obj
 0002:00008a30       ??_C@_0L@BFHJMPLO@uniform1fv?$AA@ 0000000180036a30     bindings.obj
 0002:00008a40       ??_C@_0L@HMMGAFA@uniform2fv?$AA@ 0000000180036a40     bindings.obj
 0002:00008a50       ??_C@_0L@LPHAAHDF@uniform3fv?$AA@ 0000000180036a50     bindings.obj
 0002:00008a60       ??_C@_0L@CCKHDPIM@uniform4fv?$AA@ 0000000180036a60     bindings.obj
 0002:00008a70       ??_C@_0L@BOCFIIID@uniform1iv?$AA@ 0000000180036a70     bindings.obj
 0002:00008a80       ??_C@_0L@MJACHGN@uniform2iv?$AA@ 0000000180036a80     bindings.obj
 0002:00008a90       ??_C@_0L@LECMEAAI@uniform3iv?$AA@ 0000000180036a90     bindings.obj
 0002:00008aa0       ??_C@_0L@CJPLHILB@uniform4iv?$AA@ 0000000180036aa0     bindings.obj
 0002:00008ab0       ??_C@_0M@FNCOEJPJ@pixelStorei?$AA@ 0000000180036ab0     bindings.obj
 0002:00008ac0       ??_C@_0BD@IMNAABAL@bindAttribLocation?$AA@ 0000000180036ac0     bindings.obj
 0002:00008ad8       ??_C@_08OCOLIKNF@getError?$AA@ 0000000180036ad8     bindings.obj
 0002:00008ae8       ??_C@_0L@JAGIHLEG@drawArrays?$AA@ 0000000180036ae8     bindings.obj
 0002:00008af8       ??_C@_0BB@HPNNOBHG@uniformMatrix2fv?$AA@ 0000000180036af8     bindings.obj
 0002:00008b10       ??_C@_0BB@MHGBIGBD@uniformMatrix3fv?$AA@ 0000000180036b10     bindings.obj
 0002:00008b28       ??_C@_0BB@FKLGLOKK@uniformMatrix4fv?$AA@ 0000000180036b28     bindings.obj
 0002:00008b40       ??_C@_0P@EMDFHPPC@generateMipmap?$AA@ 0000000180036b40     bindings.obj
 0002:00008b50       ??_C@_0BC@GEHLKDOJ@getAttribLocation?$AA@ 0000000180036b50     bindings.obj
 0002:00008b68       ??_C@_09FJGDMPO@depthFunc?$AA@ 0000000180036b68     bindings.obj
 0002:00008b78       ??_C@_08BMPDLDPD@viewport?$AA@ 0000000180036b78     bindings.obj
 0002:00008b88       ??_C@_0N@BELICLLP@createShader?$AA@ 0000000180036b88     bindings.obj
 0002:00008b98       ??_C@_0N@CBLMKPKD@shaderSource?$AA@ 0000000180036b98     bindings.obj
 0002:00008ba8       ??_C@_0O@FJDLNGK@compileShader?$AA@ 0000000180036ba8     bindings.obj
 0002:00008bb8       ??_C@_0BD@NGIBLPHN@getShaderParameter?$AA@ 0000000180036bb8     bindings.obj
 0002:00008bd0       ??_C@_0BB@IPMFLIML@getShaderInfoLog?$AA@ 0000000180036bd0     bindings.obj
 0002:00008be8       ??_C@_0O@GILMKOBA@createProgram?$AA@ 0000000180036be8     bindings.obj
 0002:00008bf8       ??_C@_0N@KHAFBKHG@attachShader?$AA@ 0000000180036bf8     bindings.obj
 0002:00008c08       ??_C@_0M@DHOCGDOC@linkProgram?$AA@ 0000000180036c08     bindings.obj
 0002:00008c18       ??_C@_0BE@NFIMJOBJ@getProgramParameter?$AA@ 0000000180036c18     bindings.obj
 0002:00008c30       ??_C@_0BD@ODJLDBFI@getUniformLocation?$AA@ 0000000180036c30     bindings.obj
 0002:00008c48       ??_C@_0L@FKALLIJE@clearColor?$AA@ 0000000180036c48     bindings.obj
 0002:00008c58       ??_C@_0L@LHCPMOOA@clearDepth?$AA@ 0000000180036c58     bindings.obj
 0002:00008c68       ??_C@_07DBNODEFN@disable?$AA@ 0000000180036c68     bindings.obj
 0002:00008c70       ??_C@_0O@DMHCHCED@createTexture?$AA@ 0000000180036c70     bindings.obj
 0002:00008c80       ??_C@_0M@FFKEKDHO@bindTexture?$AA@ 0000000180036c80     bindings.obj
 0002:00008c90       ??_C@_0L@CNDNPOBE@texImage2D?$AA@ 0000000180036c90     bindings.obj
 0002:00008ca0       ??_C@_0O@DJCKEDBP@texParameteri?$AA@ 0000000180036ca0     bindings.obj
 0002:00008cb0       ??_C@_0O@LOLCFPNA@texParameterf?$AA@ 0000000180036cb0     bindings.obj
 0002:00008cc0       ??_C@_05MEHLAELG@clear?$AA@ 0000000180036cc0     bindings.obj
 0002:00008cc8       ??_C@_0L@LEJGLCCO@useProgram?$AA@ 0000000180036cc8     bindings.obj
 0002:00008cd8       ??_C@_0BC@BDBNEHMO@createFramebuffer?$AA@ 0000000180036cd8     bindings.obj
 0002:00008cf0       ??_C@_0BA@HOBLIDNA@bindFramebuffer?$AA@ 0000000180036cf0     bindings.obj
 0002:00008d00       ??_C@_0BF@OAEMCOFA@framebufferTexture2D?$AA@ 0000000180036d00     bindings.obj
 0002:00008d18       ??_C@_0N@HCHALJBL@createBuffer?$AA@ 0000000180036d18     bindings.obj
 0002:00008d28       ??_C@_0L@KCGDHKII@bindBuffer?$AA@ 0000000180036d28     bindings.obj
 0002:00008d38       ??_C@_0L@CLMOEFCJ@bufferData?$AA@ 0000000180036d38     bindings.obj
 0002:00008d48       ??_C@_0O@FDILOCKC@bufferSubData?$AA@ 0000000180036d48     bindings.obj
 0002:00008d58       ??_C@_06OFNJOBDK@enable?$AA@ 0000000180036d58     bindings.obj
 0002:00008d60       ??_C@_0O@MGGPGMLC@blendEquation?$AA@ 0000000180036d60     bindings.obj
 0002:00008d70       ??_C@_09CEBMMGFG@blendFunc?$AA@ 0000000180036d70     bindings.obj
 0002:00008d80       ??_C@_0BI@PKJCFHMB@enableVertexAttribArray?$AA@ 0000000180036d80     bindings.obj
 0002:00008d98       ??_C@_0BE@FBPHEPGA@vertexAttribPointer?$AA@ 0000000180036d98     bindings.obj
 0002:00008db0       ??_C@_0O@JNAGFJFK@activeTexture?$AA@ 0000000180036db0     bindings.obj
 0002:00008dc0       ??_C@_0N@NABLNPAJ@drawElements?$AA@ 0000000180036dc0     bindings.obj
 0002:00008dd0       ??_C@_05GLCAEPFP@flush?$AA@ 0000000180036dd0     bindings.obj
 0002:00008dd8       ??_C@_06DOLBEBMP@finish?$AA@ 0000000180036dd8     bindings.obj
 0002:00008de0       ??_C@_0P@JBDACGLO@vertexAttrib1f?$AA@ 0000000180036de0     bindings.obj
 0002:00008df0       ??_C@_0P@JDHGJIOH@vertexAttrib2f?$AA@ 0000000180036df0     bindings.obj
 0002:00008e00       ??_C@_0P@JCLEPCNA@vertexAttrib3f?$AA@ 0000000180036e00     bindings.obj
 0002:00008e10       ??_C@_0P@JHPLOEFF@vertexAttrib4f?$AA@ 0000000180036e10     bindings.obj
 0002:00008e20       ??_C@_0BA@FFCNHANN@vertexAttrib1fv?$AA@ 0000000180036e20     bindings.obj
 0002:00008e30       ??_C@_0BA@EHJINPDD@vertexAttrib2fv?$AA@ 0000000180036e30     bindings.obj
 0002:00008e40       ??_C@_0BA@PPCELIFG@vertexAttrib3fv?$AA@ 0000000180036e40     bindings.obj
 0002:00008e50       ??_C@_0BA@GCPDIAOP@vertexAttrib4fv?$AA@ 0000000180036e50     bindings.obj
 0002:00008e60       ??_C@_0L@EGKLNMAM@blendColor?$AA@ 0000000180036e60     bindings.obj
 0002:00008e70       ??_C@_0BG@PANMPEKA@blendEquationSeparate?$AA@ 0000000180036e70     bindings.obj
 0002:00008e88       ??_C@_0BC@MLDPLIML@blendFuncSeparate?$AA@ 0000000180036e88     bindings.obj
 0002:00008ea0       ??_C@_0N@LFHBELDC@clearStencil?$AA@ 0000000180036ea0     bindings.obj
 0002:00008eb0       ??_C@_09OKGICLEG@colorMask?$AA@ 0000000180036eb0     bindings.obj
 0002:00008ec0       ??_C@_0P@JNOIBAGM@copyTexImage2D?$AA@ 0000000180036ec0     bindings.obj
 0002:00008ed0       ??_C@_0BC@IIBJIGBE@copyTexSubImage2D?$AA@ 0000000180036ed0     bindings.obj
 0002:00008ee8       ??_C@_08KNLKPHGA@cullFace?$AA@ 0000000180036ee8     bindings.obj
 0002:00008ef8       ??_C@_09HBBKHHAM@depthMask?$AA@ 0000000180036ef8     bindings.obj
 0002:00008f08       ??_C@_0L@EIKEAPNG@depthRange?$AA@ 0000000180036f08     bindings.obj
 0002:00008f18       ??_C@_0BJ@GBMNCAHM@disableVertexAttribArray?$AA@ 0000000180036f18     bindings.obj
 0002:00008f34       ??_C@_04NPKLNGDP@hint?$AA@ 0000000180036f34     bindings.obj
 0002:00008f40       ??_C@_09FMHKKLBD@isEnabled?$AA@ 0000000180036f40     bindings.obj
 0002:00008f50       ??_C@_09PELAPJEH@lineWidth?$AA@ 0000000180036f50     bindings.obj
 0002:00008f60       ??_C@_0O@DGEGEFGN@polygonOffset?$AA@ 0000000180036f60     bindings.obj
 0002:00008f70       ??_C@_07LENNLMAL@scissor?$AA@ 0000000180036f70     bindings.obj
 0002:00008f78       ??_C@_0M@ICNNJMKB@stencilFunc?$AA@ 0000000180036f78     bindings.obj
 0002:00008f88       ??_C@_0BE@JMOHLEEG@stencilFuncSeparate?$AA@ 0000000180036f88     bindings.obj
 0002:00008fa0       ??_C@_0M@PGFBNHFD@stencilMask?$AA@ 0000000180036fa0     bindings.obj
 0002:00008fb0       ??_C@_0BE@CIFBEFO@stencilMaskSeparate?$AA@ 0000000180036fb0     bindings.obj
 0002:00008fc8       ??_C@_09NAINDBNE@stencilOp?$AA@ 0000000180036fc8     bindings.obj
 0002:00008fd8       ??_C@_0BC@BAHGANEA@stencilOpSeparate?$AA@ 0000000180036fd8     bindings.obj
 0002:00008ff0       ??_C@_0BB@KICLDMFF@bindRenderbuffer?$AA@ 0000000180036ff0     bindings.obj
 0002:00009008       ??_C@_0BD@FCEJAHPC@createRenderbuffer?$AA@ 0000000180037008     bindings.obj
 0002:00009020       ??_C@_0N@FCFCFMP@deleteBuffer?$AA@ 0000000180037020     bindings.obj
 0002:00009030       ??_C@_0BC@JCPHMDCB@deleteFramebuffer?$AA@ 0000000180037030     bindings.obj
 0002:00009048       ??_C@_0O@OJHFONEB@deleteProgram?$AA@ 0000000180037048     bindings.obj
 0002:00009058       ??_C@_0BD@GCHNBCJP@deleteRenderbuffer?$AA@ 0000000180037058     bindings.obj
 0002:00009070       ??_C@_0N@GDONLHGL@deleteShader?$AA@ 0000000180037070     bindings.obj
 0002:00009080       ??_C@_0O@LNLLDBBC@deleteTexture?$AA@ 0000000180037080     bindings.obj
 0002:00009090       ??_C@_0N@CNJHAIPG@detachShader?$AA@ 0000000180037090     bindings.obj
 0002:000090a0       ??_C@_0BI@FELKPKFF@framebufferRenderbuffer?$AA@ 00000001800370a0     bindings.obj
 0002:000090b8       ??_C@_0BG@FDELNLLI@getVertexAttribOffset?$AA@ 00000001800370b8     bindings.obj
 0002:000090d0       ??_C@_08BILIIKHC@isBuffer?$AA@ 00000001800370d0     bindings.obj
 0002:000090e0       ??_C@_0O@GFAPEBGI@isFramebuffer?$AA@ 00000001800370e0     bindings.obj
 0002:000090f0       ??_C@_09FMLILPNP@isProgram?$AA@ 00000001800370f0     bindings.obj
 0002:00009100       ??_C@_0P@GNIKBDCJ@isRenderbuffer?$AA@ 0000000180037100     bindings.obj
 0002:00009110       ??_C@_08HOHABING@isShader?$AA@ 0000000180037110     bindings.obj
 0002:00009120       ??_C@_09IHGGDIM@isTexture?$AA@ 0000000180037120     bindings.obj
 0002:00009130       ??_C@_0BE@IAKCCGAP@renderbufferStorage?$AA@ 0000000180037130     bindings.obj
 0002:00009148       ??_C@_0BA@DHMPFLEF@getShaderSource?$AA@ 0000000180037148     bindings.obj
 0002:00009158       ??_C@_0BA@LMHBDJJE@validateProgram?$AA@ 0000000180037158     bindings.obj
 0002:00009168       ??_C@_0O@OELPEHHF@texSubImage2D?$AA@ 0000000180037168     bindings.obj
 0002:00009178       ??_C@_0L@JGOKFCNI@readPixels?$AA@ 0000000180037178     bindings.obj
 0002:00009188       ??_C@_0BA@LONPAPJ@getTexParameter?$AA@ 0000000180037188     bindings.obj
 0002:00009198       ??_C@_0BA@LNIMAMHL@getActiveAttrib?$AA@ 0000000180037198     bindings.obj
 0002:000091a8       ??_C@_0BB@DPADBBKI@getActiveUniform?$AA@ 00000001800371a8     bindings.obj
 0002:000091c0       ??_C@_0BD@CMLHDMDL@getAttachedShaders?$AA@ 00000001800371c0     bindings.obj
 0002:000091d8       ??_C@_0N@BOEJFMMM@getParameter?$AA@ 00000001800371d8     bindings.obj
 0002:000091e8       ??_C@_0BD@CDDDOCLK@getBufferParameter?$AA@ 00000001800371e8     bindings.obj
 0002:00009200       ??_C@_0CC@KELBFAD@getFramebufferAttachmentParamete@ 0000000180037200     bindings.obj
 0002:00009228       ??_C@_0BC@EHOKDJHO@getProgramInfoLog?$AA@ 0000000180037228     bindings.obj
 0002:00009240       ??_C@_0BJ@GFMNHPLL@getRenderbufferParameter?$AA@ 0000000180037240     bindings.obj
 0002:00009260       ??_C@_0BA@NDNDJDEM@getVertexAttrib?$AA@ 0000000180037260     bindings.obj
 0002:00009270       ??_C@_0BH@BMFGOHML@getSupportedExtensions?$AA@ 0000000180037270     bindings.obj
 0002:00009288       ??_C@_0N@MNCKIIJL@getExtension?$AA@ 0000000180037288     bindings.obj
 0002:00009298       ??_C@_0BH@FHDDNNPD@checkFramebufferStatus?$AA@ 0000000180037298     bindings.obj
 0002:000092b0       ??_C@_09FKBKBFIB@frontFace?$AA@ 00000001800372b0     bindings.obj
 0002:000092c0       ??_C@_0BB@LLPCAJMO@DEPTH_BUFFER_BIT?$AA@ 00000001800372c0     bindings.obj
 0002:000092d8       ??_C@_0BD@FDBMKIIA@STENCIL_BUFFER_BIT?$AA@ 00000001800372d8     bindings.obj
 0002:000092f0       ??_C@_0BB@MJJGDOHP@COLOR_BUFFER_BIT?$AA@ 00000001800372f0     bindings.obj
 0002:00009304       ??_C@_05MAJJAKPI@FALSE?$AA@ 0000000180037304     bindings.obj
 0002:0000930c       ??_C@_04HCDDPBNL@TRUE?$AA@ 000000018003730c     bindings.obj
 0002:00009314       ??_C@_06GLEDOMEC@POINTS?$AA@ 0000000180037314     bindings.obj
 0002:0000931c       ??_C@_05PPEIMAMB@LINES?$AA@ 000000018003731c     bindings.obj
 0002:00009328       ??_C@_09KCDHJPFC@LINE_LOOP?$AA@ 0000000180037328     bindings.obj
 0002:00009338       ??_C@_0L@GLEIFLHD@LINE_STRIP?$AA@ 0000000180037338     bindings.obj
 0002:00009348       ??_C@_09MNAEDGDM@TRIANGLES?$AA@ 0000000180037348     bindings.obj
 0002:00009358       ??_C@_0P@OMBBKGDB@TRIANGLE_STRIP?$AA@ 0000000180037358     bindings.obj
 0002:00009368       ??_C@_0N@MHCNCGMJ@TRIANGLE_FAN?$AA@ 0000000180037368     bindings.obj
 0002:00009378       ??_C@_04PPGNNOJD@ZERO?$AA@ 0000000180037378     bindings.obj
 0002:00009380       ??_C@_03OKMGHDAC@ONE?$AA@  0000000180037380     bindings.obj
 0002:00009388       ??_C@_09BBJLDKJG@SRC_COLOR?$AA@ 0000000180037388     bindings.obj
 0002:00009398       ??_C@_0BE@BKKNGCID@ONE_MINUS_SRC_COLOR?$AA@ 0000000180037398     bindings.obj
 0002:000093b0       ??_C@_09GFJMFOHN@SRC_ALPHA?$AA@ 00000001800373b0     bindings.obj
 0002:000093c0       ??_C@_0BE@GOKKAGGI@ONE_MINUS_SRC_ALPHA?$AA@ 00000001800373c0     bindings.obj
 0002:000093d8       ??_C@_09MBOLOIJN@DST_ALPHA?$AA@ 00000001800373d8     bindings.obj
 0002:000093e8       ??_C@_0BE@MKNNLAII@ONE_MINUS_DST_ALPHA?$AA@ 00000001800373e8     bindings.obj
 0002:00009400       ??_C@_09LFOMIMHG@DST_COLOR?$AA@ 0000000180037400     bindings.obj
 0002:00009410       ??_C@_0BE@LONKNEGD@ONE_MINUS_DST_COLOR?$AA@ 0000000180037410     bindings.obj
 0002:00009428       ??_C@_0BD@NLPPOPON@SRC_ALPHA_SATURATE?$AA@ 0000000180037428     bindings.obj
 0002:00009440       ??_C@_08EOCNNCMH@FUNC_ADD?$AA@ 0000000180037440     bindings.obj
 0002:00009450       ??_C@_0P@PALANNNF@BLEND_EQUATION?$AA@ 0000000180037450     bindings.obj
 0002:00009460       ??_C@_0BD@KBHOJKJN@BLEND_EQUATION_RGB?$AA@ 0000000180037460     bindings.obj
 0002:00009478       ??_C@_0BF@ELFMFDHP@BLEND_EQUATION_ALPHA?$AA@ 0000000180037478     bindings.obj
 0002:00009490       ??_C@_0O@ICJPNOEC@FUNC_SUBTRACT?$AA@ 0000000180037490     bindings.obj
 0002:000094a0       ??_C@_0BG@MMOEMMEK@FUNC_REVERSE_SUBTRACT?$AA@ 00000001800374a0     bindings.obj
 0002:000094b8       ??_C@_0O@PLMIBKGN@BLEND_DST_RGB?$AA@ 00000001800374b8     bindings.obj
 0002:000094c8       ??_C@_0O@DFBCBLMI@BLEND_SRC_RGB?$AA@ 00000001800374c8     bindings.obj
 0002:000094d8       ??_C@_0BA@LCFIGLFE@BLEND_DST_ALPHA?$AA@ 00000001800374d8     bindings.obj
 0002:000094e8       ??_C@_0BA@BGCPNNLE@BLEND_SRC_ALPHA?$AA@ 00000001800374e8     bindings.obj
 0002:000094f8       ??_C@_0P@DCFBGAMH@CONSTANT_COLOR?$AA@ 00000001800374f8     bindings.obj
 0002:00009508       ??_C@_0BJ@FHPKBPJB@ONE_MINUS_CONSTANT_COLOR?$AA@ 0000000180037508     bindings.obj
 0002:00009528       ??_C@_0P@EGFGAECM@CONSTANT_ALPHA?$AA@ 0000000180037528     bindings.obj
 0002:00009538       ??_C@_0BJ@CDPNHLHK@ONE_MINUS_CONSTANT_ALPHA?$AA@ 0000000180037538     bindings.obj
 0002:00009558       ??_C@_0M@ODEPHPBL@BLEND_COLOR?$AA@ 0000000180037558     bindings.obj
 0002:00009568       ??_C@_0N@FLEKAMBN@ARRAY_BUFFER?$AA@ 0000000180037568     bindings.obj
 0002:00009578       ??_C@_0BF@GCPMHBDH@ELEMENT_ARRAY_BUFFER?$AA@ 0000000180037578     bindings.obj
 0002:00009590       ??_C@_0BF@GNNPBJOJ@ARRAY_BUFFER_BINDING?$AA@ 0000000180037590     bindings.obj
 0002:000095a8       ??_C@_0BN@OIHEPMAD@ELEMENT_ARRAY_BUFFER_BINDING?$AA@ 00000001800375a8     bindings.obj
 0002:000095c8       ??_C@_0M@FLKKHGNL@STREAM_DRAW?$AA@ 00000001800375c8     bindings.obj
 0002:000095d8       ??_C@_0M@KPFCHKOK@STATIC_DRAW?$AA@ 00000001800375d8     bindings.obj
 0002:000095e8       ??_C@_0N@MKIBDO@DYNAMIC_DRAW?$AA@ 00000001800375e8     bindings.obj
 0002:000095f8       ??_C@_0M@DCNCFAEM@BUFFER_SIZE?$AA@ 00000001800375f8     bindings.obj
 0002:00009608       ??_C@_0N@IKMDAMGF@BUFFER_USAGE?$AA@ 0000000180037608     bindings.obj
 0002:00009618       ??_C@_0BG@BJAHJMOF@CURRENT_VERTEX_ATTRIB?$AA@ 0000000180037618     bindings.obj
 0002:00009630       ??_C@_05LCELFLHH@FRONT?$AA@ 0000000180037630     bindings.obj
 0002:00009638       ??_C@_04FJBHJJME@BACK?$AA@ 0000000180037638     bindings.obj
 0002:00009640       ??_C@_0P@BNDHLCEB@FRONT_AND_BACK?$AA@ 0000000180037640     bindings.obj
 0002:00009650       ??_C@_0L@LMEGCONN@TEXTURE_2D?$AA@ 0000000180037650     bindings.obj
 0002:00009660       ??_C@_09FKLFEHPG@CULL_FACE?$AA@ 0000000180037660     bindings.obj
 0002:0000966c       ??_C@_05NDHFMCLH@BLEND?$AA@ 000000018003766c     bindings.obj
 0002:00009674       ??_C@_06JHGPEDGL@DITHER?$AA@ 0000000180037674     bindings.obj
 0002:00009680       ??_C@_0N@CCBAILJJ@STENCIL_TEST?$AA@ 0000000180037680     bindings.obj
 0002:00009690       ??_C@_0L@HCAMBMFB@DEPTH_TEST?$AA@ 0000000180037690     bindings.obj
 0002:000096a0       ??_C@_0N@NPJELLBA@SCISSOR_TEST?$AA@ 00000001800376a0     bindings.obj
 0002:000096b0       ??_C@_0BE@LENHBGEG@POLYGON_OFFSET_FILL?$AA@ 00000001800376b0     bindings.obj
 0002:000096c8       ??_C@_0BJ@FLBAFHOJ@SAMPLE_ALPHA_TO_COVERAGE?$AA@ 00000001800376c8     bindings.obj
 0002:000096e8       ??_C@_0BA@DFOHGBEM@SAMPLE_COVERAGE?$AA@ 00000001800376e8     bindings.obj
 0002:000096f8       ??_C@_08KFIPEPKN@NO_ERROR?$AA@ 00000001800376f8     bindings.obj
 0002:00009708       ??_C@_0N@HFCCNKJA@INVALID_ENUM?$AA@ 0000000180037708     bindings.obj
 0002:00009718       ??_C@_0O@EFECAHOH@INVALID_VALUE?$AA@ 0000000180037718     bindings.obj
 0002:00009728       ??_C@_0BC@JFNELKPF@INVALID_OPERATION?$AA@ 0000000180037728     bindings.obj
 0002:00009740       ??_C@_0O@KKNEIJDA@OUT_OF_MEMORY?$AA@ 0000000180037740     bindings.obj
 0002:00009750       ??_C@_02IHJINOOH@CW?$AA@   0000000180037750     bindings.obj
 0002:00009754       ??_C@_03NADMCPDK@CCW?$AA@  0000000180037754     bindings.obj
 0002:00009758       ??_C@_0L@ILDOOKGP@LINE_WIDTH?$AA@ 0000000180037758     bindings.obj
 0002:00009768       ??_C@_0BJ@OGCBHEPF@ALIASED_POINT_SIZE_RANGE?$AA@ 0000000180037768     bindings.obj
 0002:00009788       ??_C@_0BJ@OIGFMICL@ALIASED_LINE_WIDTH_RANGE?$AA@ 0000000180037788     bindings.obj
 0002:000097a8       ??_C@_0P@CGCHLMLB@CULL_FACE_MODE?$AA@ 00000001800377a8     bindings.obj
 0002:000097b8       ??_C@_0L@LNDLKCN@FRONT_FACE?$AA@ 00000001800377b8     bindings.obj
 0002:000097c8       ??_C@_0M@ONKABII@DEPTH_RANGE?$AA@ 00000001800377c8     bindings.obj
 0002:000097d8       ??_C@_0BA@GEGLGLEM@DEPTH_WRITEMASK?$AA@ 00000001800377d8     bindings.obj
 0002:000097e8       ??_C@_0BC@HBDLCOPK@DEPTH_CLEAR_VALUE?$AA@ 00000001800377e8     bindings.obj
 0002:00009800       ??_C@_0L@CJEIDLJJ@DEPTH_FUNC?$AA@ 0000000180037800     bindings.obj
 0002:00009810       ??_C@_0BE@OALHKMMM@STENCIL_CLEAR_VALUE?$AA@ 0000000180037810     bindings.obj
 0002:00009828       ??_C@_0N@HJFEKMFB@STENCIL_FUNC?$AA@ 0000000180037828     bindings.obj
 0002:00009838       ??_C@_0N@CEPIGGND@STENCIL_FAIL?$AA@ 0000000180037838     bindings.obj
 0002:00009848       ??_C@_0BI@CGGBEPLE@STENCIL_PASS_DEPTH_FAIL?$AA@ 0000000180037848     bindings.obj
 0002:00009860       ??_C@_0BI@BFCKAFKO@STENCIL_PASS_DEPTH_PASS?$AA@ 0000000180037860     bindings.obj
 0002:00009878       ??_C@_0M@GMEFAMJD@STENCIL_REF?$AA@ 0000000180037878     bindings.obj
 0002:00009888       ??_C@_0BD@GMIMNCOH@STENCIL_VALUE_MASK?$AA@ 0000000180037888     bindings.obj
 0002:000098a0       ??_C@_0BC@DCBOBGAL@STENCIL_WRITEMASK?$AA@ 00000001800378a0     bindings.obj
 0002:000098b8       ??_C@_0BC@LAEDLIPD@STENCIL_BACK_FUNC?$AA@ 00000001800378b8     bindings.obj
 0002:000098d0       ??_C@_0BC@ONOPHCHB@STENCIL_BACK_FAIL?$AA@ 00000001800378d0     bindings.obj
 0002:000098e8       ??_C@_0BN@MHNBOAL@STENCIL_BACK_PASS_DEPTH_FAIL?$AA@ 00000001800378e8     bindings.obj
 0002:00009908       ??_C@_0BN@DPDGFEBB@STENCIL_BACK_PASS_DEPTH_PASS?$AA@ 0000000180037908     bindings.obj
 0002:00009928       ??_C@_0BB@HHHBCIOA@STENCIL_BACK_REF?$AA@ 0000000180037928     bindings.obj
 0002:00009940       ??_C@_0BI@POIIJBKJ@STENCIL_BACK_VALUE_MASK?$AA@ 0000000180037940     bindings.obj
 0002:00009958       ??_C@_0BH@OENDMDMH@STENCIL_BACK_WRITEMASK?$AA@ 0000000180037958     bindings.obj
 0002:00009970       ??_C@_08GDFPINNE@VIEWPORT?$AA@ 0000000180037970     bindings.obj
 0002:00009980       ??_C@_0M@DEDBCBP@SCISSOR_BOX?$AA@ 0000000180037980     bindings.obj
 0002:00009990       ??_C@_0BC@MNCPMJNH@COLOR_CLEAR_VALUE?$AA@ 0000000180037990     bindings.obj
 0002:000099a8       ??_C@_0BA@HDLFPIK@COLOR_WRITEMASK?$AA@ 00000001800379a8     bindings.obj
 0002:000099b8       ??_C@_0BB@BNACECBH@UNPACK_ALIGNMENT?$AA@ 00000001800379b8     bindings.obj
 0002:000099d0       ??_C@_0P@LDHLKABJ@PACK_ALIGNMENT?$AA@ 00000001800379d0     bindings.obj
 0002:000099e0       ??_C@_0BB@GLKHNNLB@MAX_TEXTURE_SIZE?$AA@ 00000001800379e0     bindings.obj
 0002:000099f8       ??_C@_0BC@FBCIHCLM@MAX_VIEWPORT_DIMS?$AA@ 00000001800379f8     bindings.obj
 0002:00009a10       ??_C@_0O@EPEKCKJA@SUBPIXEL_BITS?$AA@ 0000000180037a10     bindings.obj
 0002:00009a20       ??_C@_08FHLPDBAF@RED_BITS?$AA@ 0000000180037a20     bindings.obj
 0002:00009a30       ??_C@_0L@PEHCLOKI@GREEN_BITS?$AA@ 0000000180037a30     bindings.obj
 0002:00009a40       ??_C@_09HGLNDJDM@BLUE_BITS?$AA@ 0000000180037a40     bindings.obj
 0002:00009a50       ??_C@_0L@KOLKKHLG@ALPHA_BITS?$AA@ 0000000180037a50     bindings.obj
 0002:00009a60       ??_C@_0L@JNHEEBIJ@DEPTH_BITS?$AA@ 0000000180037a60     bindings.obj
 0002:00009a70       ??_C@_0N@MNGINGEB@STENCIL_BITS?$AA@ 0000000180037a70     bindings.obj
 0002:00009a80       ??_C@_0BF@BMBEJDPL@POLYGON_OFFSET_UNITS?$AA@ 0000000180037a80     bindings.obj
 0002:00009a98       ??_C@_0BG@FKBCHGOC@POLYGON_OFFSET_FACTOR?$AA@ 0000000180037a98     bindings.obj
 0002:00009ab0       ??_C@_0BD@JAHBJLEN@TEXTURE_BINDING_2D?$AA@ 0000000180037ab0     bindings.obj
 0002:00009ac8       ??_C@_0P@OCANBNDI@SAMPLE_BUFFERS?$AA@ 0000000180037ac8     bindings.obj
 0002:00009ad8       ??_C@_07BONINKDO@SAMPLES?$AA@ 0000000180037ad8     bindings.obj
 0002:00009ae0       ??_C@_0BG@OJKCHJMD@SAMPLE_COVERAGE_VALUE?$AA@ 0000000180037ae0     bindings.obj
 0002:00009af8       ??_C@_0BH@NPLDJKJI@SAMPLE_COVERAGE_INVERT?$AA@ 0000000180037af8     bindings.obj
 0002:00009b10       ??_C@_0BP@KCCCFDPE@NUM_COMPRESSED_TEXTURE_FORMATS?$AA@ 0000000180037b10     bindings.obj
 0002:00009b30       ??_C@_0BL@LJGKMJJD@COMPRESSED_TEXTURE_FORMATS?$AA@ 0000000180037b30     bindings.obj
 0002:00009b50       ??_C@_09ECJHAHID@DONT_CARE?$AA@ 0000000180037b50     bindings.obj
 0002:00009b60       ??_C@_07MMDNCGNF@FASTEST?$AA@ 0000000180037b60     bindings.obj
 0002:00009b68       ??_C@_06FNEEPHCO@NICEST?$AA@ 0000000180037b68     bindings.obj
 0002:00009b70       ??_C@_0BF@MPMDMFGO@GENERATE_MIPMAP_HINT?$AA@ 0000000180037b70     bindings.obj
 0002:00009b88       ??_C@_04ELFAHOMP@BYTE?$AA@ 0000000180037b88     bindings.obj
 0002:00009b90       ??_C@_0O@BIDNIEOF@UNSIGNED_BYTE?$AA@ 0000000180037b90     bindings.obj
 0002:00009ba0       ??_C@_05NODMBNGI@SHORT?$AA@ 0000000180037ba0     bindings.obj
 0002:00009ba8       ??_C@_0P@FNELJEE@UNSIGNED_SHORT?$AA@ 0000000180037ba8     bindings.obj
 0002:00009bb8       ??_C@_03JMHEAPMO@INT?$AA@  0000000180037bb8     bindings.obj
 0002:00009bc0       ??_C@_0N@ECBNBFDM@UNSIGNED_INT?$AA@ 0000000180037bc0     bindings.obj
 0002:00009bd0       ??_C@_05GGMHDFKJ@FLOAT?$AA@ 0000000180037bd0     bindings.obj
 0002:00009bd8       ??_C@_05COCCGPHC@FIXED?$AA@ 0000000180037bd8     bindings.obj
 0002:00009be0       ??_C@_0BA@NHFJDFEN@DEPTH_COMPONENT?$AA@ 0000000180037be0     bindings.obj
 0002:00009bf0       ??_C@_05ELNMJPED@ALPHA?$AA@ 0000000180037bf0     bindings.obj
 0002:00009bf8       ??_C@_03ICFFBAI@RGB?$AA@   0000000180037bf8     bindings.obj
 0002:00009bfc       ??_C@_04OHLBNDCH@RGBA?$AA@ 0000000180037bfc     bindings.obj
 0002:00009c08       ??_C@_09BHOFCODK@LUMINANCE?$AA@ 0000000180037c08     bindings.obj
 0002:00009c18       ??_C@_0BA@PDKEOJBA@LUMINANCE_ALPHA?$AA@ 0000000180037c18     bindings.obj
 0002:00009c28       ??_C@_0BH@KGKPLFHO@UNSIGNED_SHORT_4_4_4_4?$AA@ 0000000180037c28     bindings.obj
 0002:00009c40       ??_C@_0BH@GEJCPFGF@UNSIGNED_SHORT_5_5_5_1?$AA@ 0000000180037c40     bindings.obj
 0002:00009c58       ??_C@_0BF@NBLJFCG@UNSIGNED_SHORT_5_6_5?$AA@ 0000000180037c58     bindings.obj
 0002:00009c70       ??_C@_0BA@OLIPJG@FRAGMENT_SHADER?$AA@ 0000000180037c70     bindings.obj
 0002:00009c80       ??_C@_0O@KBIDFDL@VERTEX_SHADER?$AA@ 0000000180037c80     bindings.obj
 0002:00009c90       ??_C@_0BD@JMKPLOPP@MAX_VERTEX_ATTRIBS?$AA@ 0000000180037c90     bindings.obj
 0002:00009ca8       ??_C@_0BL@DHILBIKJ@MAX_VERTEX_UNIFORM_VECTORS?$AA@ 0000000180037ca8     bindings.obj
 0002:00009cc8       ??_C@_0BE@ECLEPAKP@MAX_VARYING_VECTORS?$AA@ 0000000180037cc8     bindings.obj
 0002:00009ce0       ??_C@_0CB@ODEEDOBK@MAX_COMBINED_TEXTURE_IMAGE_UNITS@ 0000000180037ce0     bindings.obj
 0002:00009d08       ??_C@_0BP@CGBIEDFF@MAX_VERTEX_TEXTURE_IMAGE_UNITS?$AA@ 0000000180037d08     bindings.obj
 0002:00009d28       ??_C@_0BI@LCJDOJBA@MAX_TEXTURE_IMAGE_UNITS?$AA@ 0000000180037d28     bindings.obj
 0002:00009d40       ??_C@_0BN@HPFLCCJJ@MAX_FRAGMENT_UNIFORM_VECTORS?$AA@ 0000000180037d40     bindings.obj
 0002:00009d60       ??_C@_0M@ODIJEFLF@SHADER_TYPE?$AA@ 0000000180037d60     bindings.obj
 0002:00009d70       ??_C@_0O@LDEGKAKN@DELETE_STATUS?$AA@ 0000000180037d70     bindings.obj
 0002:00009d80       ??_C@_0M@BDMLBNCD@LINK_STATUS?$AA@ 0000000180037d80     bindings.obj
 0002:00009d90       ??_C@_0BA@HJLIDBJL@VALIDATE_STATUS?$AA@ 0000000180037d90     bindings.obj
 0002:00009da0       ??_C@_0BB@BEBIKHEG@ATTACHED_SHADERS?$AA@ 0000000180037da0     bindings.obj
 0002:00009db8       ??_C@_0BA@COBOJPAM@ACTIVE_UNIFORMS?$AA@ 0000000180037db8     bindings.obj
 0002:00009dc8       ??_C@_0BK@LLKKDKFF@ACTIVE_UNIFORM_MAX_LENGTH?$AA@ 0000000180037dc8     bindings.obj
 0002:00009de8       ??_C@_0BC@NFOEBLP@ACTIVE_ATTRIBUTES?$AA@ 0000000180037de8     bindings.obj
 0002:00009e00       ??_C@_0BM@NFGGHBCI@ACTIVE_ATTRIBUTE_MAX_LENGTH?$AA@ 0000000180037e00     bindings.obj
 0002:00009e20       ??_C@_0BJ@KNLNNLBL@SHADING_LANGUAGE_VERSION?$AA@ 0000000180037e20     bindings.obj
 0002:00009e40       ??_C@_0BA@JHIPFNKD@CURRENT_PROGRAM?$AA@ 0000000180037e40     bindings.obj
 0002:00009e50       ??_C@_05PLMGMCPK@NEVER?$AA@ 0000000180037e50     bindings.obj
 0002:00009e58       ??_C@_04PHHIILNL@LESS?$AA@ 0000000180037e58     bindings.obj
 0002:00009e60       ??_C@_05MFJMDLJG@EQUAL?$AA@ 0000000180037e60     bindings.obj
 0002:00009e68       ??_C@_06GKJJFKEG@LEQUAL?$AA@ 0000000180037e68     bindings.obj
 0002:00009e70       ??_C@_07INHKBBNC@GREATER?$AA@ 0000000180037e70     bindings.obj
 0002:00009e78       ??_C@_08KDCAELOL@NOTEQUAL?$AA@ 0000000180037e78     bindings.obj
 0002:00009e84       ??_C@_06GIJOAOLM@GEQUAL?$AA@ 0000000180037e84     bindings.obj
 0002:00009e8c       ??_C@_06KDBFKDHA@ALWAYS?$AA@ 0000000180037e8c     bindings.obj
 0002:00009e94       ??_C@_04HGNONLMK@KEEP?$AA@ 0000000180037e94     bindings.obj
 0002:00009ea0       ??_C@_07NGBKIEMN@REPLACE?$AA@ 0000000180037ea0     bindings.obj
 0002:00009ea8       ??_C@_04ONKEBBJL@INCR?$AA@ 0000000180037ea8     bindings.obj
 0002:00009eb0       ??_C@_04MCDFFCCL@DECR?$AA@ 0000000180037eb0     bindings.obj
 0002:00009eb8       ??_C@_06CMCEILNN@INVERT?$AA@ 0000000180037eb8     bindings.obj
 0002:00009ec0       ??_C@_09KGNOIKJF@INCR_WRAP?$AA@ 0000000180037ec0     bindings.obj
 0002:00009ed0       ??_C@_09NBHFJPPI@DECR_WRAP?$AA@ 0000000180037ed0     bindings.obj
 0002:00009edc       ??_C@_06HNPNLLLK@VENDOR?$AA@ 0000000180037edc     bindings.obj
 0002:00009ee8       ??_C@_08KLBJGIJL@RENDERER?$AA@ 0000000180037ee8     bindings.obj
 0002:00009ef8       ??_C@_07NCHCCDCP@VERSION?$AA@ 0000000180037ef8     bindings.obj
 0002:00009f00       ??_C@_0L@DEEPEJIC@EXTENSIONS?$AA@ 0000000180037f00     bindings.obj
 0002:00009f10       ??_C@_07CKMJEPED@NEAREST?$AA@ 0000000180037f10     bindings.obj
 0002:00009f18       ??_C@_06HLLDPCCO@LINEAR?$AA@ 0000000180037f18     bindings.obj
 0002:00009f20       ??_C@_0BH@CPBNFBCK@NEAREST_MIPMAP_NEAREST?$AA@ 0000000180037f20     bindings.obj
 0002:00009f38       ??_C@_0BG@CJAHLBAJ@LINEAR_MIPMAP_NEAREST?$AA@ 0000000180037f38     bindings.obj
 0002:00009f50       ??_C@_0BG@KPPKIIOJ@NEAREST_MIPMAP_LINEAR?$AA@ 0000000180037f50     bindings.obj
 0002:00009f68       ??_C@_0BF@DKPLEKM@LINEAR_MIPMAP_LINEAR?$AA@ 0000000180037f68     bindings.obj
 0002:00009f80       ??_C@_0BD@JLJGIJBK@TEXTURE_MAG_FILTER?$AA@ 0000000180037f80     bindings.obj
 0002:00009f98       ??_C@_0BD@CEOCHPLF@TEXTURE_MIN_FILTER?$AA@ 0000000180037f98     bindings.obj
 0002:00009fb0       ??_C@_0P@NGPAIGAP@TEXTURE_WRAP_S?$AA@ 0000000180037fb0     bindings.obj
 0002:00009fc0       ??_C@_0P@JJLBBAMI@TEXTURE_WRAP_T?$AA@ 0000000180037fc0     bindings.obj
 0002:00009fd0       ??_C@_07GOCJNKOL@TEXTURE?$AA@ 0000000180037fd0     bindings.obj
 0002:00009fd8       ??_C@_0BB@GBHMOFPE@TEXTURE_CUBE_MAP?$AA@ 0000000180037fd8     bindings.obj
 0002:00009ff0       ??_C@_0BJ@PIJGALEP@TEXTURE_BINDING_CUBE_MAP?$AA@ 0000000180037ff0     bindings.obj
 0002:0000a010       ??_C@_0BM@DHDMBIIL@TEXTURE_CUBE_MAP_POSITIVE_X?$AA@ 0000000180038010     bindings.obj
 0002:0000a030       ??_C@_0BM@POFHGPEH@TEXTURE_CUBE_MAP_NEGATIVE_X?$AA@ 0000000180038030     bindings.obj
 0002:0000a050       ??_C@_0BM@COCHCJMK@TEXTURE_CUBE_MAP_POSITIVE_Y?$AA@ 0000000180038050     bindings.obj
 0002:0000a070       ??_C@_0BM@OHEMFOAG@TEXTURE_CUBE_MAP_NEGATIVE_Y?$AA@ 0000000180038070     bindings.obj
 0002:0000a090       ??_C@_0BM@FAKHKAJ@TEXTURE_CUBE_MAP_POSITIVE_Z?$AA@ 0000000180038090     bindings.obj
 0002:0000a0b0       ??_C@_0BM@MMGBANMF@TEXTURE_CUBE_MAP_NEGATIVE_Z?$AA@ 00000001800380b0     bindings.obj
 0002:0000a0d0       ??_C@_0BK@FGAGLLPN@MAX_CUBE_MAP_TEXTURE_SIZE?$AA@ 00000001800380d0     bindings.obj
 0002:0000a0f0       ??_C@_08OIPACENJ@TEXTURE0?$AA@ 00000001800380f0     bindings.obj
 0002:0000a100       ??_C@_08PBOLBFJI@TEXTURE1?$AA@ 0000000180038100     bindings.obj
 0002:0000a110       ??_C@_08NKMGEGFL@TEXTURE2?$AA@ 0000000180038110     bindings.obj
 0002:0000a120       ??_C@_08MDNNHHBK@TEXTURE3?$AA@ 0000000180038120     bindings.obj
 0002:0000a130       ??_C@_08IMJMOBNN@TEXTURE4?$AA@ 0000000180038130     bindings.obj
 0002:0000a140       ??_C@_08JFIHNAJM@TEXTURE5?$AA@ 0000000180038140     bindings.obj
 0002:0000a150       ??_C@_08LOKKIDFP@TEXTURE6?$AA@ 0000000180038150     bindings.obj
 0002:0000a160       ??_C@_08KHLBLCBO@TEXTURE7?$AA@ 0000000180038160     bindings.obj
 0002:0000a170       ??_C@_08CACJKONB@TEXTURE8?$AA@ 0000000180038170     bindings.obj
 0002:0000a180       ??_C@_08DJDCJPJA@TEXTURE9?$AA@ 0000000180038180     bindings.obj
 0002:0000a190       ??_C@_09CBGDMGJA@TEXTURE10?$AA@ 0000000180038190     bindings.obj
 0002:0000a1a0       ??_C@_09DIHIPHNB@TEXTURE11?$AA@ 00000001800381a0     bindings.obj
 0002:0000a1b0       ??_C@_09BDFFKEBC@TEXTURE12?$AA@ 00000001800381b0     bindings.obj
 0002:0000a1c0       ??_C@_09KEOJFFD@TEXTURE13?$AA@ 00000001800381c0     bindings.obj
 0002:0000a1d0       ??_C@_09EFAPADJE@TEXTURE14?$AA@ 00000001800381d0     bindings.obj
 0002:0000a1e0       ??_C@_09FMBEDCNF@TEXTURE15?$AA@ 00000001800381e0     bindings.obj
 0002:0000a1f0       ??_C@_09HHDJGBBG@TEXTURE16?$AA@ 00000001800381f0     bindings.obj
 0002:0000a200       ??_C@_09GOCCFAFH@TEXTURE17?$AA@ 0000000180038200     bindings.obj
 0002:0000a210       ??_C@_09OJLKEMJI@TEXTURE18?$AA@ 0000000180038210     bindings.obj
 0002:0000a220       ??_C@_09PAKBHNNJ@TEXTURE19?$AA@ 0000000180038220     bindings.obj
 0002:0000a230       ??_C@_09CDCFHIMJ@TEXTURE20?$AA@ 0000000180038230     bindings.obj
 0002:0000a240       ??_C@_09DKDOEJII@TEXTURE21?$AA@ 0000000180038240     bindings.obj
 0002:0000a250       ??_C@_09BBBDBKEL@TEXTURE22?$AA@ 0000000180038250     bindings.obj
 0002:0000a260       ??_C@_09IAICLAK@TEXTURE23?$AA@ 0000000180038260     bindings.obj
 0002:0000a270       ??_C@_09EHEJLNMN@TEXTURE24?$AA@ 0000000180038270     bindings.obj
 0002:0000a280       ??_C@_09FOFCIMIM@TEXTURE25?$AA@ 0000000180038280     bindings.obj
 0002:0000a290       ??_C@_09HFHPNPEP@TEXTURE26?$AA@ 0000000180038290     bindings.obj
 0002:0000a2a0       ??_C@_09GMGEOOAO@TEXTURE27?$AA@ 00000001800382a0     bindings.obj
 0002:0000a2b0       ??_C@_09OLPMPCMB@TEXTURE28?$AA@ 00000001800382b0     bindings.obj
 0002:0000a2c0       ??_C@_09PCOHMDIA@TEXTURE29?$AA@ 00000001800382c0     bindings.obj
 0002:0000a2d0       ??_C@_09CCOHBCPO@TEXTURE30?$AA@ 00000001800382d0     bindings.obj
 0002:0000a2e0       ??_C@_09DLPMCDLP@TEXTURE31?$AA@ 00000001800382e0     bindings.obj
 0002:0000a2f0       ??_C@_0P@LDIKPBHI@ACTIVE_TEXTURE?$AA@ 00000001800382f0     bindings.obj
 0002:0000a300       ??_C@_06LCBKFLKD@REPEAT?$AA@ 0000000180038300     bindings.obj
 0002:0000a308       ??_C@_0O@HEAHKBAC@CLAMP_TO_EDGE?$AA@ 0000000180038308     bindings.obj
 0002:0000a318       ??_C@_0BA@OCANKJNC@MIRRORED_REPEAT?$AA@ 0000000180038318     bindings.obj
 0002:0000a328       ??_C@_0L@GEGIPGDO@FLOAT_VEC2?$AA@ 0000000180038328     bindings.obj
 0002:0000a338       ??_C@_0L@HNHDMHHP@FLOAT_VEC3?$AA@ 0000000180038338     bindings.obj
 0002:0000a348       ??_C@_0L@DCDCFBLI@FLOAT_VEC4?$AA@ 0000000180038348     bindings.obj
 0002:0000a358       ??_C@_08PJKHAMNI@INT_VEC2?$AA@ 0000000180038358     bindings.obj
 0002:0000a368       ??_C@_08OALMDNJJ@INT_VEC3?$AA@ 0000000180038368     bindings.obj
 0002:0000a378       ??_C@_08KPPNKLFO@INT_VEC4?$AA@ 0000000180038378     bindings.obj
 0002:0000a384       ??_C@_04PPJDIBFE@BOOL?$AA@ 0000000180038384     bindings.obj
 0002:0000a390       ??_C@_09INOKAMCA@BOOL_VEC2?$AA@ 0000000180038390     bindings.obj
 0002:0000a3a0       ??_C@_09JEPBDNGB@BOOL_VEC3?$AA@ 00000001800383a0     bindings.obj
 0002:0000a3b0       ??_C@_09NLLAKLKG@BOOL_VEC4?$AA@ 00000001800383b0     bindings.obj
 0002:0000a3c0       ??_C@_0L@OFFDHCAP@FLOAT_MAT2?$AA@ 00000001800383c0     bindings.obj
 0002:0000a3d0       ??_C@_0L@PMEIEDEO@FLOAT_MAT3?$AA@ 00000001800383d0     bindings.obj
 0002:0000a3e0       ??_C@_0L@LDAJNFIJ@FLOAT_MAT4?$AA@ 00000001800383e0     bindings.obj
 0002:0000a3f0       ??_C@_0L@MANODCEM@SAMPLER_2D?$AA@ 00000001800383f0     bindings.obj
 0002:0000a400       ??_C@_0N@EGBMIKDM@SAMPLER_CUBE?$AA@ 0000000180038400     bindings.obj
 0002:0000a410       ??_C@_0BM@BEBOMHDH@VERTEX_ATTRIB_ARRAY_ENABLED?$AA@ 0000000180038410     bindings.obj
 0002:0000a430       ??_C@_0BJ@KNCHHKJI@VERTEX_ATTRIB_ARRAY_SIZE?$AA@ 0000000180038430     bindings.obj
 0002:0000a450       ??_C@_0BL@DGDLEOHH@VERTEX_ATTRIB_ARRAY_STRIDE?$AA@ 0000000180038450     bindings.obj
 0002:0000a470       ??_C@_0BJ@ECIJHEMB@VERTEX_ATTRIB_ARRAY_TYPE?$AA@ 0000000180038470     bindings.obj
 0002:0000a490       ??_C@_0BP@CHKCNBNM@VERTEX_ATTRIB_ARRAY_NORMALIZED?$AA@ 0000000180038490     bindings.obj
 0002:0000a4b0       ??_C@_0BM@CGKEFGAH@VERTEX_ATTRIB_ARRAY_POINTER?$AA@ 00000001800384b0     bindings.obj
 0002:0000a4d0       ??_C@_0CD@DMPMBPOP@VERTEX_ATTRIB_ARRAY_BUFFER_BINDI@ 00000001800384d0     bindings.obj
 0002:0000a4f8       ??_C@_0BP@BLHONGNL@IMPLEMENTATION_COLOR_READ_TYPE?$AA@ 00000001800384f8     bindings.obj
 0002:0000a518       ??_C@_0CB@DIEJBIAC@IMPLEMENTATION_COLOR_READ_FORMAT@ 0000000180038518     bindings.obj
 0002:0000a540       ??_C@_0P@EMOCNAKP@COMPILE_STATUS?$AA@ 0000000180038540     bindings.obj
 0002:0000a550       ??_C@_0BA@EBJNALJM@INFO_LOG_LENGTH?$AA@ 0000000180038550     bindings.obj
 0002:0000a560       ??_C@_0BF@IDDEKAFH@SHADER_SOURCE_LENGTH?$AA@ 0000000180038560     bindings.obj
 0002:0000a578       ??_C@_0BA@NCCFLFDB@SHADER_COMPILER?$AA@ 0000000180038578     bindings.obj
 0002:0000a588       ??_C@_0BG@GCAMMJBH@SHADER_BINARY_FORMATS?$AA@ 0000000180038588     bindings.obj
 0002:0000a5a0       ??_C@_0BK@BIKCEOAO@NUM_SHADER_BINARY_FORMATS?$AA@ 00000001800385a0     bindings.obj
 0002:0000a5c0       ??_C@_09DLFMLEAF@LOW_FLOAT?$AA@ 00000001800385c0     bindings.obj
 0002:0000a5d0       ??_C@_0N@NBOOOPOB@MEDIUM_FLOAT?$AA@ 00000001800385d0     bindings.obj
 0002:0000a5e0       ??_C@_0L@CHLANPOO@HIGH_FLOAT?$AA@ 00000001800385e0     bindings.obj
 0002:0000a5f0       ??_C@_07LPKLLNNM@LOW_INT?$AA@ 00000001800385f0     bindings.obj
 0002:0000a5f8       ??_C@_0L@HODMPFEH@MEDIUM_INT?$AA@ 00000001800385f8     bindings.obj
 0002:0000a608       ??_C@_08NAEFCHEJ@HIGH_INT?$AA@ 0000000180038608     bindings.obj
 0002:0000a618       ??_C@_0M@FMLJCMMD@FRAMEBUFFER?$AA@ 0000000180038618     bindings.obj
 0002:0000a628       ??_C@_0N@LJDDPLIG@RENDERBUFFER?$AA@ 0000000180038628     bindings.obj
 0002:0000a638       ??_C@_05BOMHPHEP@RGBA4?$AA@ 0000000180038638     bindings.obj
 0002:0000a640       ??_C@_07DEIPMPK@RGB5_A1?$AA@ 0000000180038640     bindings.obj
 0002:0000a648       ??_C@_0BC@LPNBDMOA@DEPTH_COMPONENT16?$AA@ 0000000180038648     bindings.obj
 0002:0000a660       ??_C@_0O@ODCBGKAC@STENCIL_INDEX?$AA@ 0000000180038660     bindings.obj
 0002:0000a670       ??_C@_0P@PJHCPMLN@STENCIL_INDEX8?$AA@ 0000000180038670     bindings.obj
 0002:0000a680       ??_C@_0O@BMCKOENA@DEPTH_STENCIL?$AA@ 0000000180038680     bindings.obj
 0002:0000a690       ??_C@_0BB@BNPFIEBL@DEPTH24_STENCIL8?$AA@ 0000000180038690     bindings.obj
 0002:0000a6a8       ??_C@_0BD@JIKBDHL@RENDERBUFFER_WIDTH?$AA@ 00000001800386a8     bindings.obj
 0002:0000a6c0       ??_C@_0BE@EFGBKKGL@RENDERBUFFER_HEIGHT?$AA@ 00000001800386c0     bindings.obj
 0002:0000a6d8       ??_C@_0BN@GEDOIJID@RENDERBUFFER_INTERNAL_FORMAT?$AA@ 00000001800386d8     bindings.obj
 0002:0000a6f8       ??_C@_0BG@FONAKNNF@RENDERBUFFER_RED_SIZE?$AA@ 00000001800386f8     bindings.obj
 0002:0000a710       ??_C@_0BI@MMJOKKAA@RENDERBUFFER_GREEN_SIZE?$AA@ 0000000180038710     bindings.obj
 0002:0000a728       ??_C@_0BH@ILBPNLFE@RENDERBUFFER_BLUE_SIZE?$AA@ 0000000180038728     bindings.obj
 0002:0000a740       ??_C@_0BI@JGFGLDBO@RENDERBUFFER_ALPHA_SIZE?$AA@ 0000000180038740     bindings.obj
 0002:0000a758       ??_C@_0BI@KFJIFFCB@RENDERBUFFER_DEPTH_SIZE?$AA@ 0000000180038758     bindings.obj
 0002:0000a770       ??_C@_0BK@PBABALIG@RENDERBUFFER_STENCIL_SIZE?$AA@ 0000000180038770     bindings.obj
 0002:0000a790       ??_C@_0CD@IKLKPCE@FRAMEBUFFER_ATTACHMENT_OBJECT_TY@ 0000000180038790     bindings.obj
 0002:0000a7b8       ??_C@_0CD@KDKIGPFE@FRAMEBUFFER_ATTACHMENT_OBJECT_NA@ 00000001800387b8     bindings.obj
 0002:0000a7e0       ??_C@_0CF@EJNPPDHA@FRAMEBUFFER_ATTACHMENT_TEXTURE_L@ 00000001800387e0     bindings.obj
 0002:0000a808       ??_C@_0CN@HBHHLEIM@FRAMEBUFFER_ATTACHMENT_TEXTURE_C@ 0000000180038808     bindings.obj
 0002:0000a838       ??_C@_0BC@IKDHHAHC@COLOR_ATTACHMENT0?$AA@ 0000000180038838     bindings.obj
 0002:0000a850       ??_C@_0BB@GAEJJAG@DEPTH_ATTACHMENT?$AA@ 0000000180038850     bindings.obj
 0002:0000a868       ??_C@_0BD@OOOKDIEI@STENCIL_ATTACHMENT?$AA@ 0000000180038868     bindings.obj
 0002:0000a880       ??_C@_0BJ@BAFAHFAI@DEPTH_STENCIL_ATTACHMENT?$AA@ 0000000180038880     bindings.obj
 0002:0000a89c       ??_C@_04OKGDLNCL@NONE?$AA@ 000000018003889c     bindings.obj
 0002:0000a8a8       ??_C@_0BF@EAKPIEAI@FRAMEBUFFER_COMPLETE?$AA@ 00000001800388a8     bindings.obj
 0002:0000a8c0       ??_C@_0CC@JOEAFMHP@FRAMEBUFFER_INCOMPLETE_ATTACHMEN@ 00000001800388c0     bindings.obj
 0002:0000a8e8       ??_C@_0CK@KIOBOPJM@FRAMEBUFFER_INCOMPLETE_MISSING_A@ 00000001800388e8     bindings.obj
 0002:0000a918       ??_C@_0BI@EFMGKCBO@FRAMEBUFFER_UNSUPPORTED?$AA@ 0000000180038918     bindings.obj
 0002:0000a930       ??_C@_0BE@JANDPDPM@FRAMEBUFFER_BINDING?$AA@ 0000000180038930     bindings.obj
 0002:0000a948       ??_C@_0BF@MANFHNKP@RENDERBUFFER_BINDING?$AA@ 0000000180038948     bindings.obj
 0002:0000a960       ??_C@_0BG@DNAEEMKM@MAX_RENDERBUFFER_SIZE?$AA@ 0000000180038960     bindings.obj
 0002:0000a978       ??_C@_0BO@PFEJGGJL@INVALID_FRAMEBUFFER_OPERATION?$AA@ 0000000180038978     bindings.obj
 0002:0000a998       ??_C@_0BE@GMJACJHC@UNPACK_FLIP_Y_WEBGL?$AA@ 0000000180038998     bindings.obj
 0002:0000a9b0       ??_C@_0BP@HLDNDDGP@UNPACK_PREMULTIPLY_ALPHA_WEBGL?$AA@ 00000001800389b0     bindings.obj
 0002:0000a9d0       ??_C@_0BD@IIPCDDAH@CONTEXT_LOST_WEBGL?$AA@ 00000001800389d0     bindings.obj
 0002:0000a9e8       ??_C@_0CD@GKDIPPBD@UNPACK_COLORSPACE_CONVERSION_WEB@ 00000001800389e8     bindings.obj
 0002:0000aa10       ??_C@_0BG@DNGLHHDA@BROWSER_DEFAULT_WEBGL?$AA@ 0000000180038a10     bindings.obj
 0002:0000aa28       ??_C@_0BC@KBIMJAHH@PIXEL_PACK_BUFFER?$AA@ 0000000180038a28     bindings.obj
 0002:0000aa40       ??_C@_0BE@LNHAFEBP@PIXEL_UNPACK_BUFFER?$AA@ 0000000180038a40     bindings.obj
 0002:0000aa58       ??_C@_0BK@MBKJAMIH@PIXEL_PACK_BUFFER_BINDING?$AA@ 0000000180038a58     bindings.obj
 0002:0000aa78       ??_C@_0BM@DNLFKPPA@PIXEL_UNPACK_BUFFER_BINDING?$AA@ 0000000180038a78     bindings.obj
 0002:0000aa98       ??_C@_0BD@ONMBCCFJ@?4?4?2src?2bindings?4cc?$AA@ 0000000180038a98     bindings.obj
 0002:0000aaac       ??_C@_05BMDHFNJO@webgl?$AA@ 0000000180038aac     bindings.obj
 0002:0000aab8       ?constant_attributes@@3W4PropertyAttribute@v8@@A 0000000180038ab8     bindings.obj
 0002:0000aac0       __pfnDliNotifyHook2        0000000180038ac0     win_delay_load_hook.obj
 0002:0000aad0       ??_C@_1JA@IFHPPHNH@?$AAC?$AA?3?$AA?2?$AAU?$AAs?$AAe?$AAr?$AAs?$AA?2?$AAS?$AAa?$AAk?$AAt?$AAh?$AAi?$AAk?$AAa?$AAn?$AAt?$AAh?$AA?5?$AAJ?$AA?2?$AA?4?$AAn?$AAo?$AAd?$AAe?$AA?9?$AAg?$AAy?$AAp@ 0000000180038ad0     image.obj
 0002:0000ab60       ??_C@_1DG@OKCGPKIB@?$AAp?$AAe?$AAr?$AAs?$AAi?$AAs?$AAt?$AAe?$AAn?$AAt?$AA?$CI?$AA?$CJ?$AA?4?$AAI?$AAs?$AAN?$AAe?$AAa?$AAr?$AAD?$AAe?$AAa?$AAt?$AAh?$AA?$CI?$AA?$CJ?$AA?$AA@ 0000000180038b60     image.obj
 0002:0000ab98       ??_C@_1CO@EGNPJLKI@?$AAp?$AAe?$AAr?$AAs?$AAi?$AAs?$AAt?$AAe?$AAn?$AAt?$AA?$CI?$AA?$CJ?$AA?4?$AAI?$AAs?$AAE?$AAm?$AAp?$AAt?$AAy?$AA?$CI?$AA?$CJ?$AA?$AA@ 0000000180038b98     image.obj
 0002:0000abd0       ??_C@_1EC@NOLNIHNJ@?$AAh?$AAa?$AAn?$AAd?$AAl?$AAe?$AA?9?$AA?$DO?$AAI?$AAn?$AAt?$AAe?$AAr?$AAn?$AAa?$AAl?$AAF?$AAi?$AAe?$AAl?$AAd?$AAC?$AAo?$AAu?$AAn?$AAt?$AA?$CI?$AA?$CJ?$AA?5?$AA?$DO?$AA?5?$AA0@ 0000000180038bd0     image.obj
 0002:0000ac18       ??_C@_1DA@FBGAEOIO@?$AA?$CB?$AAp?$AAe?$AAr?$AAs?$AAi?$AAs?$AAt?$AAe?$AAn?$AAt?$AA?$CI?$AA?$CJ?$AA?4?$AAI?$AAs?$AAE?$AAm?$AAp?$AAt?$AAy?$AA?$CI?$AA?$CJ?$AA?$AA@ 0000000180038c18     image.obj
 0002:0000ac48       ??_C@_1CO@JCKLEFMA@?$AA?$CB?$AAp?$AAe?$AAr?$AAs?$AAi?$AAs?$AAt?$AAe?$AAn?$AAt?$AA?$CI?$AA?$CJ?$AA?4?$AAI?$AAs?$AAW?$AAe?$AAa?$AAk?$AA?$CI?$AA?$CJ?$AA?$AA@ 0000000180038c48     image.obj
 0002:0000ac78       ??_C@_1BE@GMLLOIPJ@?$AAr?$AAe?$AAf?$AAs?$AA_?$AA?5?$AA?$DO?$AA?5?$AA0?$AA?$AA@ 0000000180038c78     image.obj
 0002:0000ac90       ??_C@_1CC@GBFLAAPF@?$AAw?$AAr?$AAa?$AAp?$AA?9?$AA?$DO?$AAr?$AAe?$AAf?$AAs?$AA_?$AA?5?$AA?$DN?$AA?$DN?$AA?5?$AA0?$AA?$AA@ 0000000180038c90     image.obj
 0002:0000acc0       ??_C@_1GG@LJKPFFPE@?$AAD?$AA?3?$AA?2?$AAP?$AAr?$AAo?$AAg?$AAr?$AAa?$AAm?$AAs?$AA?2?$AAx?$AAa?$AAm?$AAp?$AAp?$AA?2?$AAh?$AAt?$AAd?$AAo?$AAc?$AAs?$AA?2?$AAb?$AAt?$AA?2?$AAn?$AAo?$AAd?$AAe@ 0000000180038cc0     image.obj
 0002:0000ad30       ??_C@_1FM@LOELJOFK@?$AAs?$AAi?$AAz?$AAe?$AA?5?$AA?$DM?$AA?$DN?$AA?5?$AAi?$AAm?$AAp?$AA?3?$AA?3?$AAk?$AAM?$AAa?$AAx?$AAL?$AAe?$AAn?$AAg?$AAt?$AAh?$AA?5?$AA?$CG?$AA?$CG?$AA?5?$AA?$CC?$AAt?$AAo?$AAo?$AA?5@ 0000000180038d30     image.obj
 0002:0000ad8c       ??_C@_05NBEAGECF@Image?$AA@ 0000000180038d8c     image.obj
 0002:0000ad94       ??_C@_04EMMDIJJL@save?$AA@ 0000000180038d94     image.obj
 0002:0000ad9c       ??_C@_05IGKADHGO@width?$AA@ 0000000180038d9c     image.obj
 0002:0000ada4       ??_C@_06LNLHEAAG@height?$AA@ 0000000180038da4     image.obj
 0002:0000adac       ??_C@_05NCNFOFLM@pitch?$AA@ 0000000180038dac     image.obj
 0002:0000adb4       ??_C@_03LOJEKLML@src?$AA@  0000000180038db4     image.obj
 0002:0000adb8       ??_C@_04PJOLNDGD@data?$AA@ 0000000180038db8     image.obj
 0002:0000adc0       ??_C@_04KNBGJDFM@emit?$AA@ 0000000180038dc0     image.obj
 0002:0000adc8       ??_C@_1CA@FFEDGAFD@?$AA?4?$AA?4?$AA?2?$AAs?$AAr?$AAc?$AA?2?$AAi?$AAm?$AAa?$AAg?$AAe?$AA?4?$AAc?$AAc?$AA?$AA@ 0000000180038dc8     image.obj
 0002:0000adf0       ??_C@_1EM@MACIODP@?$AAe?$AAm?$AAi?$AAt?$AA_?$AAv?$AA?4?$AAT?$AAo?$AAL?$AAo?$AAc?$AAa?$AAl?$AAC?$AAh?$AAe?$AAc?$AAk?$AAe?$AAd?$AA?$CI?$AA?$CJ?$AA?9?$AA?$DO?$AAI?$AAs?$AAF?$AAu?$AAn?$AAc?$AAt@ 0000000180038df0     image.obj
 0002:0000ae3c       ??_C@_04EONOHKEP@load?$AA@ 0000000180038e3c     image.obj
 0002:0000ae48       ??_C@_0BD@OLBABOEK@vector?$DMT?$DO?5too?5long?$AA@ 0000000180038e48     image.obj
 0002:0000ae60       ??_C@_1CE@IAEMMFJ@?$AA?$CB?$AAh?$AAa?$AAn?$AAd?$AAl?$AAe?$AA?4?$AAI?$AAs?$AAE?$AAm?$AAp?$AAt?$AAy?$AA?$CI?$AA?$CJ?$AA?$AA@ 0000000180038e60     image.obj
 0002:0000ae88       ??_7ObjectWrap@node@@6B@   0000000180038e88     image.obj
 0002:0000aea0       ??_7Image@@6B@             0000000180038ea0     image.obj
 0002:0000aeb8       ??_C@_0BF@IAAKOLEF@Bad?5texture?5argument?$AA@ 0000000180038eb8     webgl.obj
 0002:0000aed0       ??_C@_0L@DCCGFMBN@Error?3?5?$CFs?6?$AA@ 0000000180038ed0     webgl.obj
 0002:0000aee0       ??_C@_0CF@OOOCCLKC@Not?5enough?5data?5for?5UniformMatri@ 0000000180038ee0     webgl.obj
 0002:0000af08       ??_C@_0CF@FGFOEMMH@Not?5enough?5data?5for?5UniformMatri@ 0000000180038f08     webgl.obj
 0002:0000af30       ??_C@_0CF@MLIJHEHO@Not?5enough?5data?5for?5UniformMatri@ 0000000180038f30     webgl.obj
 0002:0000af58       ??_C@_0CB@NILJOFEN@GetShaderParameter?3?5Invalid?5Enum@ 0000000180038f58     webgl.obj
 0002:0000af80       ??_C@_0CC@HOGCCID@GetProgramParameter?3?5Invalid?5Enu@ 0000000180038f80     webgl.obj
 0002:0000afa8       ??_C@_0BK@LDMEFBFF@Only?5support?5array?5buffer?$AA@ 0000000180038fa8     webgl.obj
 0002:0000afc4       ??_C@_04IAGNFIBA@size?$AA@ 0000000180038fc4     webgl.obj
 0002:0000afcc       ??_C@_04GPMDFGEJ@type?$AA@ 0000000180038fcc     webgl.obj
 0002:0000afd4       ??_C@_04MEMAJGDJ@name?$AA@ 0000000180038fd4     webgl.obj
 0002:0000afe0       ??_C@_0BO@OPIMKDHB@GetVertexAttrib?3?5Invalid?5Enum?$AA@ 0000000180038fe0     webgl.obj
 0002:0000b000       ??_C@_0BH@GAMGHOIO@Not?5support?5array?5type?$AA@ 0000000180039000     webgl.obj
 0002:0000b018       ??_C@_0BD@IEHKMFKP@Bad?5array?5argument?$AA@ 0000000180039018     webgl.obj
 0002:0000b030       ??_C@_08HCOMDCCD@iojs?4exe?$AA@ 0000000180039030     win_delay_load_hook.obj
 0002:0000b040       ??_C@_08JDDNMFDB@node?4exe?$AA@ 0000000180039040     win_delay_load_hook.obj
 0002:0000c868       ??_R4exception@std@@6B@    000000018003a868     libcpmt:xthrow.obj
 0002:0000c890       ??_R3exception@std@@8      000000018003a890     libcpmt:xthrow.obj
 0002:0000c8a8       ??_R2exception@std@@8      000000018003a8a8     libcpmt:xthrow.obj
 0002:0000c8b8       ??_R1A@?0A@EA@exception@std@@8 000000018003a8b8     libcpmt:xthrow.obj
 0002:0000c8e0       ??_R4bad_alloc@std@@6B@    000000018003a8e0     libcpmt:xthrow.obj
 0002:0000c908       ??_R3bad_alloc@std@@8      000000018003a908     libcpmt:xthrow.obj
 0002:0000c920       ??_R2bad_alloc@std@@8      000000018003a920     libcpmt:xthrow.obj
 0002:0000c938       ??_R1A@?0A@EA@bad_alloc@std@@8 000000018003a938     libcpmt:xthrow.obj
 0002:0000c960       ??_R4logic_error@std@@6B@  000000018003a960     libcpmt:xthrow.obj
 0002:0000c988       ??_R3logic_error@std@@8    000000018003a988     libcpmt:xthrow.obj
 0002:0000c9a0       ??_R2logic_error@std@@8    000000018003a9a0     libcpmt:xthrow.obj
 0002:0000c9b8       ??_R1A@?0A@EA@logic_error@std@@8 000000018003a9b8     libcpmt:xthrow.obj
 0002:0000c9e0       ??_R4length_error@std@@6B@ 000000018003a9e0     libcpmt:xthrow.obj
 0002:0000ca08       ??_R3length_error@std@@8   000000018003aa08     libcpmt:xthrow.obj
 0002:0000ca20       ??_R2length_error@std@@8   000000018003aa20     libcpmt:xthrow.obj
 0002:0000ca40       ??_R1A@?0A@EA@length_error@std@@8 000000018003aa40     libcpmt:xthrow.obj
 0002:0000ca68       ??_R4type_info@@6B@        000000018003aa68     LIBCMT:std_type_info_static.obj
 0002:0000ca90       ??_R3type_info@@8          000000018003aa90     LIBCMT:std_type_info_static.obj
 0002:0000caa8       ??_R2type_info@@8          000000018003aaa8     LIBCMT:std_type_info_static.obj
 0002:0000cab8       ??_R1A@?0A@EA@type_info@@8 000000018003aab8     LIBCMT:std_type_info_static.obj
 0002:0000cae0       ??_R4bad_array_new_length@std@@6B@ 000000018003aae0     LIBCMT:throw_bad_alloc.obj
 0002:0000cb08       ??_R3bad_array_new_length@std@@8 000000018003ab08     LIBCMT:throw_bad_alloc.obj
 0002:0000cb20       ??_R2bad_array_new_length@std@@8 000000018003ab20     LIBCMT:throw_bad_alloc.obj
 0002:0000cb40       ??_R1A@?0A@EA@bad_array_new_length@std@@8 000000018003ab40     LIBCMT:throw_bad_alloc.obj
 0002:0000cb68       ??_R4bad_exception@std@@6B@ 000000018003ab68     libvcruntime:frame.obj
 0002:0000cb90       ??_R3bad_exception@std@@8  000000018003ab90     libvcruntime:frame.obj
 0002:0000cba8       ??_R2bad_exception@std@@8  000000018003aba8     libvcruntime:frame.obj
 0002:0000cbc0       ??_R1A@?0A@EA@bad_exception@std@@8 000000018003abc0     libvcruntime:frame.obj
 0002:0000cff0       __rtc_iaa                  000000018003aff0     LIBCMT:_initsect_.obj
 0002:0000cff8       __rtc_izz                  000000018003aff8     LIBCMT:_initsect_.obj
 0002:0000d000       __rtc_taa                  000000018003b000     LIBCMT:_initsect_.obj
 0002:0000d008       __rtc_tzz                  000000018003b008     LIBCMT:_initsect_.obj
 0002:000100a0       _TI2?AVbad_alloc@std@@     000000018003e0a0     libcpmt:xthrow.obj
 0002:000100c0       _CTA2?AVbad_alloc@std@@    000000018003e0c0     libcpmt:xthrow.obj
 0002:000100d8       _CT??_R0?AVbad_alloc@std@@@8??0bad_alloc@std@@QEAA@AEBV01@@Z24 000000018003e0d8     libcpmt:xthrow.obj
 0002:00010100       _CT??_R0?AVexception@std@@@8??0exception@std@@QEAA@AEBV01@@Z24 000000018003e100     libcpmt:xthrow.obj
 0002:00010128       _CT??_R0?AVlogic_error@std@@@8??0logic_error@std@@QEAA@AEBV01@@Z24 000000018003e128     libcpmt:xthrow.obj
 0002:00010150       _TI3?AVlength_error@std@@  000000018003e150     libcpmt:xthrow.obj
 0002:00010170       _CTA3?AVlength_error@std@@ 000000018003e170     libcpmt:xthrow.obj
 0002:00010190       _CT??_R0?AVlength_error@std@@@8??0length_error@std@@QEAA@AEBV01@@Z24 000000018003e190     libcpmt:xthrow.obj
 0002:000101b8       _TI3?AVbad_array_new_length@std@@ 000000018003e1b8     LIBCMT:throw_bad_alloc.obj
 0002:000101d8       _CTA3?AVbad_array_new_length@std@@ 000000018003e1d8     LIBCMT:throw_bad_alloc.obj
 0002:000101f8       _CT??_R0?AVbad_array_new_length@std@@@8??0bad_array_new_length@std@@QEAA@AEBV01@@Z24 000000018003e1f8     LIBCMT:throw_bad_alloc.obj
 0002:00010220       _TI2?AVbad_exception@std@@ 000000018003e220     libvcruntime:frame.obj
 0002:00010240       _CTA2?AVbad_exception@std@@ 000000018003e240     libvcruntime:frame.obj
 0002:00010258       _CT??_R0?AVbad_exception@std@@@8??0bad_exception@std@@QEAA@AEBV01@@Z24 000000018003e258     libvcruntime:frame.obj
 0002:0001027c       __DELAY_IMPORT_DESCRIPTOR_node_exe 000000018003e27c     node:node.exe
 0002:0001029c       __NULL_DELAY_IMPORT_DESCRIPTOR 000000018003e29c     node:node.exe
 0002:00010508       \177node_NULL_THUNK_DATA_DLN 000000018003e508     node:node.exe
 0002:000117d8       \177node_NULL_THUNK_DATA_DLB 000000018003f7d8     node:node.exe
 0002:00011a70       __IMPORT_DESCRIPTOR_KERNEL32 000000018003fa70     kernel32:KERNEL32.dll
 0002:00011a84       __IMPORT_DESCRIPTOR_glew32 000000018003fa84     glew32:glew32.dll
 0002:00011a98       __IMPORT_DESCRIPTOR_OPENGL32 000000018003fa98     opengl32:OPENGL32.dll
 0002:00011aac       __IMPORT_DESCRIPTOR_FreeImage 000000018003faac     FreeImage:FreeImage.dll
 0002:00011ac0       __NULL_IMPORT_DESCRIPTOR   000000018003fac0     kernel32:KERNEL32.dll
 0003:00000000       __scrt_native_dllmain_reason 0000000180042000     LIBCMT:utility.obj
 0003:00000008       __security_cookie          0000000180042008     LIBCMT:gs_cookie.obj
 0003:00000010       __security_cookie_complement 0000000180042010     LIBCMT:gs_cookie.obj
 0003:00000018       __isa_available            0000000180042018     LIBCMT:_cpu_disp_.obj
 0003:0000001c       __isa_enabled              000000018004201c     LIBCMT:_cpu_disp_.obj
 0003:00000020       __memcpy_nt_iters          0000000180042020     LIBCMT:_cpu_disp_.obj
 0003:00000040       _iob                       0000000180042040     libucrt:_file.obj
 0003:00000148       __abort_behavior           0000000180042148     libucrt:abort.obj
 0003:00000160       __badioinfo                0000000180042160     libucrt:ioinit.obj
 0003:000001a0       __acrt_initial_locale_data 00000001800421a0     libucrt:nlsdata.obj
 0003:000002f8       __acrt_initial_locale_pointers 00000001800422f8     libucrt:nlsdata.obj
 0003:00000308       __acrt_wide_c_locale_string 0000000180042308     libucrt:nlsdata.obj
 0003:00000310       __acrt_initial_multibyte_data 0000000180042310     libucrt:mbctype.obj
 0003:00000538       __acrt_current_multibyte_data 0000000180042538     libucrt:mbctype.obj
 0003:00000640       _mbctype                   0000000180042640     libucrt:mbctype.obj
 0003:00000750       _mbcasemap                 0000000180042750     libucrt:mbctype.obj
 0003:00000850       _pwctype                   0000000180042850     libucrt:ctype.obj
 0003:00000858       __globallocalestatus       0000000180042858     libucrt:glstatus.obj
 0003:00000860       __acrt_lconv_c             0000000180042860     libucrt:localeconv.obj
 0003:000008f8       __acrt_lconv_static_decimal 00000001800428f8     libucrt:localeconv.obj
 0003:000008fc       __acrt_lconv_static_W_decimal 00000001800428fc     libucrt:localeconv.obj
 0003:00000900       __dcrt_lowio_console_output_handle 0000000180042900     libucrt:initcon.obj
 0003:00000920       _fltused                   0000000180042920     LIBCMT:fltused.obj
 0003:00000970       ??_R0?AVbad_alloc@std@@@8  0000000180042970     libcpmt:xthrow.obj
 0003:00000998       ??_R0?AVexception@std@@@8  0000000180042998     libcpmt:xthrow.obj
 0003:000009c0       ??_R0?AVlogic_error@std@@@8 00000001800429c0     libcpmt:xthrow.obj
 0003:000009e8       ??_R0?AVlength_error@std@@@8 00000001800429e8     libcpmt:xthrow.obj
 0003:00000a10       ??_R0?AVtype_info@@@8      0000000180042a10     LIBCMT:std_type_info_static.obj
 0003:00000a30       ??_R0?AVbad_array_new_length@std@@@8 0000000180042a30     LIBCMT:throw_bad_alloc.obj
 0003:00000a60       ??_R0?AVbad_exception@std@@@8 0000000180042a60     libvcruntime:frame.obj
 0003:00000a88       __imp_?Value@External@v8@@QEBAPEAXXZ 0000000180042a88     node:node.exe
 0003:00000a90       __imp_?New@External@v8@@SA?AV?$Local@VExternal@v8@@@2@PEAVIsolate@2@PEAX@Z 0000000180042a90     node:node.exe
 0003:00000a98       __imp_?New@Integer@v8@@SA?AV?$Local@VInteger@v8@@@2@PEAVIsolate@2@H@Z 0000000180042a98     node:node.exe
 0003:00000aa0       __imp_?GetCurrentContext@Isolate@v8@@QEAA?AV?$Local@VContext@v8@@@2@XZ 0000000180042aa0     node:node.exe
 0003:00000aa8       __imp_?GetCurrent@Isolate@v8@@SAPEAV12@XZ 0000000180042aa8     node:node.exe
 0003:00000ab0       __imp_?CreateHandle@HandleScope@v8@@KAPEAPEAVObject@internal@2@PEAVIsolate@42@PEAV342@@Z 0000000180042ab0     node:node.exe
 0003:00000ab8       __imp_?CreateHandle@HandleScope@v8@@CAPEAPEAVObject@internal@2@PEAVHeapObject@42@PEAV342@@Z 0000000180042ab8     node:node.exe
 0003:00000ac0       __imp_??1HandleScope@v8@@QEAA@XZ 0000000180042ac0     node:node.exe
 0003:00000ac8       __imp_??0HandleScope@v8@@QEAA@PEAVIsolate@1@@Z 0000000180042ac8     node:node.exe
 0003:00000ad0       __imp_?SetClassName@FunctionTemplate@v8@@QEAAXV?$Local@VString@v8@@@2@@Z 0000000180042ad0     node:node.exe
 0003:00000ad8       __imp_?GetFunction@FunctionTemplate@v8@@QEAA?AV?$MaybeLocal@VFunction@v8@@@2@V?$Local@VContext@v8@@@2@@Z 0000000180042ad8     node:node.exe
 0003:00000ae0       __imp_?New@FunctionTemplate@v8@@SA?AV?$Local@VFunctionTemplate@v8@@@2@PEAVIsolate@2@P6AXAEBV?$FunctionCallbackInfo@VValue@v8@@@2@@ZV?$Local@VValue@v8@@@2@V?$Local@VSignature@v8@@@2@H@Z 0000000180042ae0     node:node.exe
 0003:00000ae8       __imp_?ToLocalEmpty@V8@v8@@CAXXZ 0000000180042ae8     node:node.exe
 0003:00000af0       __imp_?ToInteger@Value@v8@@QEBA?AV?$MaybeLocal@VInteger@v8@@@2@V?$Local@VContext@v8@@@2@@Z 0000000180042af0     node:node.exe
 0003:00000af8       __imp_?Escape@EscapableHandleScope@v8@@AEAAPEAPEAVObject@internal@2@PEAPEAV342@@Z 0000000180042af8     node:node.exe
 0003:00000b00       __imp_??0EscapableHandleScope@v8@@QEAA@PEAVIsolate@1@@Z 0000000180042b00     node:node.exe
 0003:00000b08       __imp_?NewFromUtf8@String@v8@@SA?AV?$MaybeLocal@VString@v8@@@2@PEAVIsolate@2@PEBDW4NewStringType@2@H@Z 0000000180042b08     node:node.exe
 0003:00000b10       __imp_?SlowGetInternalField@Object@v8@@AEAA?AV?$Local@VValue@v8@@@2@H@Z 0000000180042b10     node:node.exe
 0003:00000b18       __imp_?SetInternalField@Object@v8@@QEAAXHV?$Local@VValue@v8@@@2@@Z 0000000180042b18     node:node.exe
 0003:00000b20       __imp_?ForceSet@Object@v8@@QEAA?AV?$Maybe@_N@2@V?$Local@VContext@v8@@@2@V?$Local@VValue@v8@@@2@1W4PropertyAttribute@2@@Z 0000000180042b20     node:node.exe
 0003:00000b28       __imp_?Set@Object@v8@@QEAA_NV?$Local@VValue@v8@@@2@0@Z 0000000180042b28     node:node.exe
 0003:00000b30       __imp_?SetInternalFieldCount@ObjectTemplate@v8@@QEAAXH@Z 0000000180042b30     node:node.exe
 0003:00000b38       __imp_?NewInstance@ObjectTemplate@v8@@QEAA?AV?$MaybeLocal@VObject@v8@@@2@V?$Local@VContext@v8@@@2@@Z 0000000180042b38     node:node.exe
 0003:00000b40       __imp_?New@ObjectTemplate@v8@@SA?AV?$Local@VObjectTemplate@v8@@@2@PEAVIsolate@2@V?$Local@VFunctionTemplate@v8@@@2@@Z 0000000180042b40     node:node.exe
 0003:00000b48       __imp_node_module_register 0000000180042b48     node:node.exe
 0003:00000b50       __imp_??1EscapableHandleScope@v8@@QEAA@XZ 0000000180042b50     node:node.exe
 0003:00000b58       __imp_?New@Signature@v8@@SA?AV?$Local@VSignature@v8@@@2@PEAVIsolate@2@V?$Local@VFunctionTemplate@v8@@@2@@Z 0000000180042b58     node:node.exe
 0003:00000b60       __imp_?Set@Template@v8@@QEAAXV?$Local@VName@v8@@@2@V?$Local@VData@v8@@@2@W4PropertyAttribute@2@@Z 0000000180042b60     node:node.exe
 0003:00000b68       __imp_?PrototypeTemplate@FunctionTemplate@v8@@QEAA?AV?$Local@VObjectTemplate@v8@@@2@XZ 0000000180042b68     node:node.exe
 0003:00000b70       __imp_?InstanceTemplate@FunctionTemplate@v8@@QEAA?AV?$Local@VObjectTemplate@v8@@@2@XZ 0000000180042b70     node:node.exe
 0003:00000b78       __imp_?GetFunction@FunctionTemplate@v8@@QEAA?AV?$Local@VFunction@v8@@@2@XZ 0000000180042b78     node:node.exe
 0003:00000b80       __imp_?ClearWeak@V8@v8@@CAPEAXPEAPEAVObject@internal@2@@Z 0000000180042b80     node:node.exe
 0003:00000b88       __imp_?MakeWeak@V8@v8@@CAXPEAPEAVObject@internal@2@PEAXP6AXAEBV?$WeakCallbackInfo@X@2@@ZW4WeakCallbackType@2@@Z 0000000180042b88     node:node.exe
 0003:00000b90       __imp_?DisposeGlobal@V8@v8@@CAXPEAPEAVObject@internal@2@@Z 0000000180042b90     node:node.exe
 0003:00000b98       __imp_?GlobalizeReference@V8@v8@@CAPEAPEAVObject@internal@2@PEAVIsolate@42@PEAPEAV342@@Z 0000000180042b98     node:node.exe
 0003:00000ba0       __imp_?IsFunction@Value@v8@@QEBA_NXZ 0000000180042ba0     node:node.exe
 0003:00000ba8       __imp_?Value@Uint32@v8@@QEBAIXZ 0000000180042ba8     node:node.exe
 0003:00000bb0       __imp_?HasCaught@TryCatch@v8@@QEBA_NXZ 0000000180042bb0     node:node.exe
 0003:00000bb8       __imp_??1TryCatch@v8@@QEAA@XZ 0000000180042bb8     node:node.exe
 0003:00000bc0       __imp_??0TryCatch@v8@@QEAA@XZ 0000000180042bc0     node:node.exe
 0003:00000bc8       __imp_??1Utf8Value@String@v8@@QEAA@XZ 0000000180042bc8     node:node.exe
 0003:00000bd0       __imp_??0Utf8Value@String@v8@@QEAA@V?$Local@VValue@v8@@@2@@Z 0000000180042bd0     node:node.exe
 0003:00000bd8       __imp_?SlowGetAlignedPointerFromInternalField@Object@v8@@AEAAPEAXH@Z 0000000180042bd8     node:node.exe
 0003:00000be0       __imp_?SetAlignedPointerInInternalField@Object@v8@@QEAAXHPEAX@Z 0000000180042be0     node:node.exe
 0003:00000be8       __imp_?InternalFieldCount@Object@v8@@QEAAHXZ 0000000180042be8     node:node.exe
 0003:00000bf0       __imp_?Get@Object@v8@@QEAA?AV?$MaybeLocal@VValue@v8@@@2@V?$Local@VContext@v8@@@2@V?$Local@VValue@v8@@@2@@Z 0000000180042bf0     node:node.exe
 0003:00000bf8       __imp_?Set@Object@v8@@QEAA?AV?$Maybe@_N@2@V?$Local@VContext@v8@@@2@V?$Local@VValue@v8@@@2@1@Z 0000000180042bf8     node:node.exe
 0003:00000c00       __imp_?Call@Function@v8@@QEAA?AV?$Local@VValue@v8@@@2@V32@HQEAV32@@Z 0000000180042c00     node:node.exe
 0003:00000c08       __imp_?SetAccessor@ObjectTemplate@v8@@QEAAXV?$Local@VName@v8@@@2@P6AX0AEBV?$PropertyCallbackInfo@VValue@v8@@@2@@ZP6AX0V?$Local@VValue@v8@@@2@AEBV?$PropertyCallbackInfo@X@2@@Z3W4AccessControl@2@W4PropertyAttribute@2@V?$Local@VAccessorSignature@v8@@@2@@Z 0000000180042c08     node:node.exe
 0003:00000c10       __imp_?FatalException@node@@YAXPEAVIsolate@v8@@AEBVTryCatch@3@@Z 0000000180042c10     node:node.exe
 0003:00000c18       __imp_?New@Buffer@node@@YA?AV?$MaybeLocal@VObject@v8@@@v8@@PEAVIsolate@4@_K@Z 0000000180042c18     node:node.exe
 0003:00000c20       __imp_?Data@Buffer@node@@YAPEADV?$Local@VValue@v8@@@v8@@@Z 0000000180042c20     node:node.exe
 0003:00000c28       __imp_?Data@Buffer@node@@YAPEADV?$Local@VObject@v8@@@v8@@@Z 0000000180042c28     node:node.exe
 0003:00000c30       __imp_?ToUint32@Value@v8@@QEBA?AV?$Local@VUint32@v8@@@2@XZ 0000000180042c30     node:node.exe
 0003:00000c38       __imp_?ToString@Value@v8@@QEBA?AV?$Local@VString@v8@@@2@XZ 0000000180042c38     node:node.exe
 0003:00000c40       __imp_?NewFromUnsigned@Integer@v8@@SA?AV?$Local@VInteger@v8@@@2@PEAVIsolate@2@I@Z 0000000180042c40     node:node.exe
 0003:00000c48       __imp_?ThrowException@Isolate@v8@@QEAA?AV?$Local@VValue@v8@@@2@V32@@Z 0000000180042c48     node:node.exe
 0003:00000c50       __imp_?ByteLength@ArrayBufferView@v8@@QEAA_KXZ 0000000180042c50     node:node.exe
 0003:00000c58       __imp_?Buffer@ArrayBufferView@v8@@QEAA?AV?$Local@VArrayBuffer@v8@@@2@XZ 0000000180042c58     node:node.exe
 0003:00000c60       __imp_?Error@Exception@v8@@SA?AV?$Local@VValue@v8@@@2@V?$Local@VString@v8@@@2@@Z 0000000180042c60     node:node.exe
 0003:00000c68       __imp_?TypeError@Exception@v8@@SA?AV?$Local@VValue@v8@@@2@V?$Local@VString@v8@@@2@@Z 0000000180042c68     node:node.exe
 0003:00000c70       __imp_?New@Array@v8@@SA?AV?$Local@VArray@v8@@@2@PEAVIsolate@2@H@Z 0000000180042c70     node:node.exe
 0003:00000c78       __imp_?GetContents@ArrayBuffer@v8@@QEAA?AVContents@12@XZ 0000000180042c78     node:node.exe
 0003:00000c80       __imp_?Int32Value@Value@v8@@QEBAHXZ 0000000180042c80     node:node.exe
 0003:00000c88       __imp_?Uint32Value@Value@v8@@QEBAIXZ 0000000180042c88     node:node.exe
 0003:00000c90       __imp_?NumberValue@Value@v8@@QEBANXZ 0000000180042c90     node:node.exe
 0003:00000c98       __imp_?BooleanValue@Value@v8@@QEBA_NXZ 0000000180042c98     node:node.exe
 0003:00000ca0       __imp_?IsArrayBufferView@Value@v8@@QEBA_NXZ 0000000180042ca0     node:node.exe
 0003:00000ca8       __imp_?IsNumber@Value@v8@@QEBA_NXZ 0000000180042ca8     node:node.exe
 0003:00000cb0       __imp_?IsObject@Value@v8@@QEBA_NXZ 0000000180042cb0     node:node.exe
 0003:00000cb8       __imp_?IsArray@Value@v8@@QEBA_NXZ 0000000180042cb8     node:node.exe
 0003:00000cc0       __imp_?New@Number@v8@@SA?AV?$Local@VNumber@v8@@@2@PEAVIsolate@2@N@Z 0000000180042cc0     node:node.exe
 0003:00000cc8       __imp_?Set@Object@v8@@QEAA_NIV?$Local@VValue@v8@@@2@@Z 0000000180042cc8     node:node.exe
 0003:00000cd0       \177node_NULL_THUNK_DATA_DLA 0000000180042cd0     node:node.exe
 0003:00000ce0       __hmod__node_exe           0000000180042ce0     node:node.exe
 0003:00000ce8       __scrt_current_native_startup_state 0000000180042ce8     LIBCMT:utility.obj
 0003:00000cf0       __scrt_native_startup_lock 0000000180042cf0     LIBCMT:utility.obj
 0003:000012a0       __favor                    00000001800432a0     LIBCMT:_cpu_disp_.obj
 0003:000012a4       __scrt_debugger_hook_flag  00000001800432a4     LIBCMT:utility_desktop.obj
 0003:000012b0       ?__type_info_root_node@@3U__type_info_node@@A 00000001800432b0     LIBCMT:tncleanup.obj
 0003:000012c0       ?_OptionsStorage@?1??__local_stdio_scanf_options@@9@4_KA 00000001800432c0     LIBCMT:default_local_stdio_options.obj
 0003:000012c8       ?g_OutOfMemoryExceptionCallback@@3P6APEAXXZEA 00000001800432c8     libvcruntime:frame.obj
 0003:000013e8       __pPurecall                00000001800433e8     libvcruntime:purevirt_data.obj
 0003:000013f0       ?pArgList@UnDecorator@@0PEAVReplicator@@EA 00000001800433f0     libvcruntime:undname.obj
 0003:000013f8       ?pZNameList@UnDecorator@@0PEAVReplicator@@EA 00000001800433f8     libvcruntime:undname.obj
 0003:00001400       ?pTemplateArgList@UnDecorator@@0PEAVReplicator@@EA 0000000180043400     libvcruntime:undname.obj
 0003:00001408       ?gName@UnDecorator@@0PEBDEB 0000000180043408     libvcruntime:undname.obj
 0003:00001410       ?name@UnDecorator@@0PEBDEB 0000000180043410     libvcruntime:undname.obj
 0003:00001418       ?outputString@UnDecorator@@0PEADEA 0000000180043418     libvcruntime:undname.obj
 0003:00001420       ?maxStringLength@UnDecorator@@0HA 0000000180043420     libvcruntime:undname.obj
 0003:00001424       ?disableFlags@UnDecorator@@0KA 0000000180043424     libvcruntime:undname.obj
 0003:00001428       ?fExplicitTemplateParams@UnDecorator@@0_NA 0000000180043428     libvcruntime:undname.obj
 0003:00001429       ?fGetTemplateArgumentList@UnDecorator@@0_NA 0000000180043429     libvcruntime:undname.obj
 0003:00001430       ?m_pGetParameter@UnDecorator@@0P6APEADJ@ZEA 0000000180043430     libvcruntime:undname.obj
 0003:00001468       _nstream                   0000000180043468     libucrt:_file.obj
 0003:00001470       __piob                     0000000180043470     libucrt:_file.obj
 0003:00001478       _cflush                    0000000180043478     libucrt:_file.obj
 0003:00001598       _environ_table             0000000180043598     libucrt:environment_initialization.obj
 0003:000015a0       _wenviron_table            00000001800435a0     libucrt:environment_initialization.obj
 0003:000015a8       __dcrt_initial_wide_environment 00000001800435a8     libucrt:environment_initialization.obj
 0003:000015b0       __dcrt_initial_narrow_environment 00000001800435b0     libucrt:environment_initialization.obj
 0003:000015b8       __acrt_atexit_table        00000001800435b8     libucrt:onexit.obj
 0003:000015d0       __acrt_at_quick_exit_table 00000001800435d0     libucrt:onexit.obj
 0003:000017d0       __pioinfo                  00000001800437d0     libucrt:ioinit.obj
 0003:00001bd0       _nhandle                   0000000180043bd0     libucrt:ioinit.obj
 0003:00001be0       __acrt_stdout_buffer       0000000180043be0     libucrt:_sftbuf.obj
 0003:00001be8       __acrt_stderr_buffer       0000000180043be8     libucrt:_sftbuf.obj
 0003:00001bf0       __acrt_locale_changed_data 0000000180043bf0     libucrt:wsetlocale.obj
 0003:00001bf8       __acrt_current_locale_data 0000000180043bf8     libucrt:nlsdata.obj
 0003:00001e0c       __mbcodepage               0000000180043e0c     libucrt:mbctype.obj
 0003:00001e10       __ismbcodepage             0000000180043e10     libucrt:mbctype.obj
 0003:00001e18       __mbulinfo                 0000000180043e18     libucrt:mbctype.obj
 0003:00001e28       __mblocalename             0000000180043e28     libucrt:mbctype.obj
 0003:00001e34       __argc                     0000000180043e34     libucrt:argv_data.obj
 0003:00001e38       __argv                     0000000180043e38     libucrt:argv_data.obj
 0003:00001e40       __wargv                    0000000180043e40     libucrt:argv_data.obj
 0003:00001e48       _acmdln                    0000000180043e48     libucrt:argv_data.obj
 0003:00001e50       _wcmdln                    0000000180043e50     libucrt:argv_data.obj
 0003:00001e58       _pgmptr                    0000000180043e58     libucrt:argv_data.obj
 0003:00001e60       __acrt_heap                0000000180043e60     libucrt:heap_handle.obj
 0003:00001e74       __acrt_lconv_static_null   0000000180043e74     libucrt:localeconv.obj
 0003:00001e78       __acrt_lconv_static_W_null 0000000180043e78     libucrt:localeconv.obj
 0003:00001e7c       __fma3_is_available        0000000180043e7c     libucrt:fma3_available.obj
 0003:00001e80       __use_fma3_lib             0000000180043e80     libucrt:fma3_available.obj
 0003:00001e88       ?DloadKernel32@@3PEAUHINSTANCE__@@EA 0000000180043e88     DelayImp:delayhlp.obj
 0003:00001e90       ?DloadAcquireSRWLockExclusive@@3P6AXPEA_K@ZEA 0000000180043e90     DelayImp:delayhlp.obj
 0003:00001e98       ?DloadReleaseSRWLockExclusive@@3P6AXPEA_K@ZEA 0000000180043e98     DelayImp:delayhlp.obj
 0003:00001ea0       ?DloadSrwLock@@3_KA        0000000180043ea0     DelayImp:delayhlp.obj
 0003:00001ea8       ?DloadSectionLockCount@@3KA 0000000180043ea8     DelayImp:delayhlp.obj
 0003:00001eac       ?DloadSectionOldProtection@@3KA 0000000180043eac     DelayImp:delayhlp.obj
 0003:00001eb0       ?DloadSectionCommitPermanent@@3KA 0000000180043eb0     DelayImp:delayhlp.obj
 0003:00001eb8       ?constructor_template@Image@@0V?$Persistent@VFunction@v8@@V?$NonCopyablePersistentTraits@VFunction@v8@@@2@@v8@@A 0000000180043eb8     image.obj
 0003:00001ed8       ?globjs@webgl@@3V?$vector@PEAUGLObj@webgl@@V?$allocator@PEAUGLObj@webgl@@@std@@@std@@A 0000000180043ed8     webgl.obj
 0003:00001ef0       ?_OptionsStorage@?1??__local_stdio_printf_options@@9@4_KA 0000000180043ef0     webgl.obj
 0003:00001ef8       __dyn_tls_init_callback    0000000180043ef8     <common>
 0003:00001f00       __scrt_ucrt_dll_is_in_use  0000000180043f00     <common>

 entry point at        0001:00016ed0

 Static symbols

 0000:fffb7000       .debug$S                   0000000180000000     glew32:glew32.dll
 0000:fffb7000       .debug$S                   0000000180000000     kernel32:KERNEL32.dll
 0000:fffb7000       .debug$S                   0000000180000000     kernel32:KERNEL32.dll
 0000:fffb7000       .debug$S                   0000000180000000     kernel32:KERNEL32.dll
 0000:fffb7000       .debug$S                   0000000180000000     kernel32:KERNEL32.dll
 0000:fffb7000       .debug$S                   0000000180000000     kernel32:KERNEL32.dll
 0000:fffb7000       .debug$S                   0000000180000000     kernel32:KERNEL32.dll
 0000:fffb7000       .debug$S                   0000000180000000     kernel32:KERNEL32.dll
 0000:fffb7000       .debug$S                   0000000180000000     kernel32:KERNEL32.dll
 0000:fffb7000       .debug$S                   0000000180000000     kernel32:KERNEL32.dll
 0000:fffb7000       .debug$S                   0000000180000000     kernel32:KERNEL32.dll
 0000:fffb7000       .debug$S                   0000000180000000     kernel32:KERNEL32.dll
 0000:fffb7000       .debug$S                   0000000180000000     kernel32:KERNEL32.dll
 0000:fffb7000       .debug$S                   0000000180000000     kernel32:KERNEL32.dll
 0000:fffb7000       .debug$S                   0000000180000000     kernel32:KERNEL32.dll
 0000:fffb7000       .debug$S                   0000000180000000     kernel32:KERNEL32.dll
 0000:fffb7000       .debug$S                   0000000180000000     kernel32:KERNEL32.dll
 0000:fffb7000       .debug$S                   0000000180000000     kernel32:KERNEL32.dll
 0000:fffb7000       .debug$S                   0000000180000000     kernel32:KERNEL32.dll
 0000:fffb7000       .debug$S                   0000000180000000     kernel32:KERNEL32.dll
 0000:fffb7000       .debug$S                   0000000180000000     kernel32:KERNEL32.dll
 0000:fffb7000       .debug$S                   0000000180000000     kernel32:KERNEL32.dll
 0000:fffb7000       .debug$S                   0000000180000000     kernel32:KERNEL32.dll
 0000:fffb7000       .debug$S                   0000000180000000     kernel32:KERNEL32.dll
 0000:fffb7000       .debug$S                   0000000180000000     kernel32:KERNEL32.dll
 0000:fffb7000       .debug$S                   0000000180000000     kernel32:KERNEL32.dll
 0000:fffb7000       .debug$S                   0000000180000000     kernel32:KERNEL32.dll
 0000:fffb7000       .debug$S                   0000000180000000     kernel32:KERNEL32.dll
 0000:fffb7000       .debug$S                   0000000180000000     kernel32:KERNEL32.dll
 0000:fffb7000       .debug$S                   0000000180000000     kernel32:KERNEL32.dll
 0000:fffb7000       .debug$S                   0000000180000000     kernel32:KERNEL32.dll
 0000:fffb7000       .debug$S                   0000000180000000     kernel32:KERNEL32.dll
 0000:fffb7000       .debug$S                   0000000180000000     kernel32:KERNEL32.dll
 0000:fffb7000       .debug$S                   0000000180000000     kernel32:KERNEL32.dll
 0000:fffb7000       .debug$S                   0000000180000000     kernel32:KERNEL32.dll
 0000:fffb7000       .debug$S                   0000000180000000     kernel32:KERNEL32.dll
 0000:fffb7000       .debug$S                   0000000180000000     kernel32:KERNEL32.dll
 0000:fffb7000       .debug$S                   0000000180000000     kernel32:KERNEL32.dll
 0000:fffb7000       .debug$S                   0000000180000000     kernel32:KERNEL32.dll
 0000:fffb7000       .debug$S                   0000000180000000     kernel32:KERNEL32.dll
 0000:fffb7000       .debug$S                   0000000180000000     kernel32:KERNEL32.dll
 0000:fffb7000       .debug$S                   0000000180000000     kernel32:KERNEL32.dll
 0000:fffb7000       .debug$S                   0000000180000000     kernel32:KERNEL32.dll
 0000:fffb7000       .debug$S                   0000000180000000     kernel32:KERNEL32.dll
 0000:fffb7000       .debug$S                   0000000180000000     kernel32:KERNEL32.dll
 0000:fffb7000       .debug$S                   0000000180000000     kernel32:KERNEL32.dll
 0000:fffb7000       .debug$S                   0000000180000000     kernel32:KERNEL32.dll
 0000:fffb7000       .debug$S                   0000000180000000     kernel32:KERNEL32.dll
 0000:fffb7000       .debug$S                   0000000180000000     kernel32:KERNEL32.dll
 0000:fffb7000       .debug$S                   0000000180000000     kernel32:KERNEL32.dll
 0000:fffb7000       .debug$S                   0000000180000000     kernel32:KERNEL32.dll
 0000:fffb7000       .debug$S                   0000000180000000     kernel32:KERNEL32.dll
 0000:fffb7000       .debug$S                   0000000180000000     kernel32:KERNEL32.dll
 0000:fffb7000       .debug$S                   0000000180000000     kernel32:KERNEL32.dll
 0000:fffb7000       .debug$S                   0000000180000000     kernel32:KERNEL32.dll
 0000:fffb7000       .debug$S                   0000000180000000     kernel32:KERNEL32.dll
 0000:fffb7000       .debug$S                   0000000180000000     kernel32:KERNEL32.dll
 0000:fffb7000       .debug$S                   0000000180000000     kernel32:KERNEL32.dll
 0000:fffb7000       .debug$S                   0000000180000000     kernel32:KERNEL32.dll
 0000:fffb7000       .debug$S                   0000000180000000     kernel32:KERNEL32.dll
 0000:fffb7000       .debug$S                   0000000180000000     kernel32:KERNEL32.dll
 0000:fffb7000       .debug$S                   0000000180000000     kernel32:KERNEL32.dll
 0000:fffb7000       .debug$S                   0000000180000000     kernel32:KERNEL32.dll
 0000:fffb7000       .debug$S                   0000000180000000     kernel32:KERNEL32.dll
 0000:fffb7000       .debug$S                   0000000180000000     kernel32:KERNEL32.dll
 0000:fffb7000       .debug$S                   0000000180000000     kernel32:KERNEL32.dll
 0000:fffb7000       .debug$S                   0000000180000000     kernel32:KERNEL32.dll
 0000:fffb7000       .debug$S                   0000000180000000     kernel32:KERNEL32.dll
 0000:fffb7000       .debug$S                   0000000180000000     kernel32:KERNEL32.dll
 0000:fffb7000       .debug$S                   0000000180000000     kernel32:KERNEL32.dll
 0000:fffb7000       .debug$S                   0000000180000000     kernel32:KERNEL32.dll
 0000:fffb7000       .debug$S                   0000000180000000     kernel32:KERNEL32.dll
 0000:fffb7000       .debug$S                   0000000180000000     kernel32:KERNEL32.dll
 0000:fffb7000       .debug$S                   0000000180000000     kernel32:KERNEL32.dll
 0000:fffb7000       .debug$S                   0000000180000000     kernel32:KERNEL32.dll
 0000:fffb7000       .debug$S                   0000000180000000     kernel32:KERNEL32.dll
 0000:fffb7000       .debug$S                   0000000180000000     kernel32:KERNEL32.dll
 0000:fffb7000       .debug$S                   0000000180000000     kernel32:KERNEL32.dll
 0000:fffb7000       .debug$S                   0000000180000000     kernel32:KERNEL32.dll
 0000:fffb7000       .debug$S                   0000000180000000     kernel32:KERNEL32.dll
 0000:fffb7000       .debug$S                   0000000180000000     kernel32:KERNEL32.dll
 0000:fffb7000       .debug$S                   0000000180000000     kernel32:KERNEL32.dll
 0000:fffb7000       .debug$S                   0000000180000000     kernel32:KERNEL32.dll
 0000:fffb7000       .debug$S                   0000000180000000     kernel32:KERNEL32.dll
 0000:fffb7000       .debug$S                   0000000180000000     kernel32:KERNEL32.dll
 0000:fffb7000       .debug$S                   0000000180000000     webgl.exp
 0000:fffb7000       .debug$S                   0000000180000000     kernel32:KERNEL32.dll
 0000:fffb7000       .debug$S                   0000000180000000     kernel32:KERNEL32.dll
 0000:fffb7000       .debug$S                   0000000180000000     kernel32:KERNEL32.dll
 0000:fffb7000       .debug$S                   0000000180000000     kernel32:KERNEL32.dll
 0000:fffb7000       .debug$S                   0000000180000000     kernel32:KERNEL32.dll
 0000:fffb7000       .debug$S                   0000000180000000     kernel32:KERNEL32.dll
 0000:fffb7000       .debug$S                   0000000180000000     kernel32:KERNEL32.dll
 0000:fffb7000       .debug$S                   0000000180000000     node:node.exe
 0000:fffb7000       .debug$S                   0000000180000000     node:node.exe
 0000:fffb7000       .debug$S                   0000000180000000     node:node.exe
 0000:fffb7000       .debug$S                   0000000180000000     node:node.exe
 0000:fffb7000       .debug$S                   0000000180000000     node:node.exe
 0000:fffb7000       .debug$S                   0000000180000000     node:node.exe
 0000:fffb7000       .debug$S                   0000000180000000     node:node.exe
 0000:fffb7000       .debug$S                   0000000180000000     node:node.exe
 0000:fffb7000       .debug$S                   0000000180000000     node:node.exe
 0000:fffb7000       .debug$S                   0000000180000000     node:node.exe
 0000:fffb7000       .debug$S                   0000000180000000     node:node.exe
 0000:fffb7000       .debug$S                   0000000180000000     node:node.exe
 0000:fffb7000       .debug$S                   0000000180000000     node:node.exe
 0000:fffb7000       .debug$S                   0000000180000000     node:node.exe
 0000:fffb7000       .debug$S                   0000000180000000     node:node.exe
 0000:fffb7000       .debug$S                   0000000180000000     node:node.exe
 0000:fffb7000       .debug$S                   0000000180000000     node:node.exe
 0000:fffb7000       .debug$S                   0000000180000000     node:node.exe
 0000:fffb7000       .debug$S                   0000000180000000     node:node.exe
 0000:fffb7000       .debug$S                   0000000180000000     node:node.exe
 0000:fffb7000       .debug$S                   0000000180000000     node:node.exe
 0000:fffb7000       .debug$S                   0000000180000000     node:node.exe
 0000:fffb7000       .debug$S                   0000000180000000     node:node.exe
 0000:fffb7000       .debug$S                   0000000180000000     node:node.exe
 0000:fffb7000       .debug$S                   0000000180000000     node:node.exe
 0000:fffb7000       .debug$S                   0000000180000000     node:node.exe
 0000:fffb7000       .debug$S                   0000000180000000     node:node.exe
 0000:fffb7000       .debug$S                   0000000180000000     node:node.exe
 0000:fffb7000       .debug$S                   0000000180000000     node:node.exe
 0000:fffb7000       .debug$S                   0000000180000000     node:node.exe
 0000:fffb7000       .debug$S                   0000000180000000     node:node.exe
 0000:fffb7000       .debug$S                   0000000180000000     node:node.exe
 0000:fffb7000       .debug$S                   0000000180000000     node:node.exe
 0000:fffb7000       .debug$S                   0000000180000000     node:node.exe
 0000:fffb7000       .debug$S                   0000000180000000     node:node.exe
 0000:fffb7000       .debug$S                   0000000180000000     node:node.exe
 0000:fffb7000       .debug$S                   0000000180000000     node:node.exe
 0000:fffb7000       .debug$S                   0000000180000000     node:node.exe
 0000:fffb7000       .debug$S                   0000000180000000     node:node.exe
 0000:fffb7000       .debug$S                   0000000180000000     node:node.exe
 0000:fffb7000       .debug$S                   0000000180000000     node:node.exe
 0000:fffb7000       .debug$S                   0000000180000000     node:node.exe
 0000:fffb7000       .debug$S                   0000000180000000     node:node.exe
 0000:fffb7000       .debug$S                   0000000180000000     node:node.exe
 0000:fffb7000       .debug$S                   0000000180000000     node:node.exe
 0000:fffb7000       .debug$S                   0000000180000000     node:node.exe
 0000:fffb7000       .debug$S                   0000000180000000     node:node.exe
 0000:fffb7000       .debug$S                   0000000180000000     node:node.exe
 0000:fffb7000       .debug$S                   0000000180000000     node:node.exe
 0000:fffb7000       .debug$S                   0000000180000000     node:node.exe
 0000:fffb7000       .debug$S                   0000000180000000     node:node.exe
 0000:fffb7000       .debug$S                   0000000180000000     node:node.exe
 0000:fffb7000       .debug$S                   0000000180000000     node:node.exe
 0000:fffb7000       .debug$S                   0000000180000000     node:node.exe
 0000:fffb7000       .debug$S                   0000000180000000     node:node.exe
 0000:fffb7000       .debug$S                   0000000180000000     node:node.exe
 0000:fffb7000       .debug$S                   0000000180000000     node:node.exe
 0000:fffb7000       .debug$S                   0000000180000000     node:node.exe
 0000:fffb7000       .debug$S                   0000000180000000     node:node.exe
 0000:fffb7000       .debug$S                   0000000180000000     node:node.exe
 0000:fffb7000       .debug$S                   0000000180000000     node:node.exe
 0000:fffb7000       .debug$S                   0000000180000000     node:node.exe
 0000:fffb7000       .debug$S                   0000000180000000     node:node.exe
 0000:fffb7000       .debug$S                   0000000180000000     node:node.exe
 0000:fffb7000       .debug$S                   0000000180000000     node:node.exe
 0000:fffb7000       .debug$S                   0000000180000000     node:node.exe
 0000:fffb7000       .debug$S                   0000000180000000     node:node.exe
 0000:fffb7000       .debug$S                   0000000180000000     node:node.exe
 0000:fffb7000       .debug$S                   0000000180000000     node:node.exe
 0000:fffb7000       .debug$S                   0000000180000000     node:node.exe
 0000:fffb7000       .debug$S                   0000000180000000     node:node.exe
 0000:fffb7000       .debug$S                   0000000180000000     node:node.exe
 0000:fffb7000       .debug$S                   0000000180000000     node:node.exe
 0000:fffb7000       .debug$S                   0000000180000000     node:node.exe
 0000:fffb7000       .debug$S                   0000000180000000     node:node.exe
 0000:fffb7000       .debug$S                   0000000180000000     node:node.exe
 0000:fffb7000       .debug$S                   0000000180000000     node:node.exe
 0000:fffb7000       .debug$S                   0000000180000000     node:node.exe
 0000:fffb7000       .debug$S                   0000000180000000     node:node.exe
 0000:fffb7000       .debug$S                   0000000180000000     node:node.exe
 0000:fffb7000       .debug$S                   0000000180000000     node:node.exe
 0000:fffb7000       .debug$S                   0000000180000000     node:node.exe
 0000:fffb7000       .debug$S                   0000000180000000     node:node.exe
 0000:fffb7000       .debug$S                   0000000180000000     node:node.exe
 0000:fffb7000       .debug$S                   0000000180000000     node:node.exe
 0000:fffb7000       .debug$S                   0000000180000000     node:node.exe
 0000:fffb7000       .debug$S                   0000000180000000     glew32:glew32.dll
 0000:fffb7000       .debug$S                   0000000180000000     glew32:glew32.dll
 0000:fffb7000       .debug$S                   0000000180000000     glew32:glew32.dll
 0000:fffb7000       .debug$S                   0000000180000000     glew32:glew32.dll
 0000:fffb7000       .debug$S                   0000000180000000     glew32:glew32.dll
 0000:fffb7000       .debug$S                   0000000180000000     glew32:glew32.dll
 0000:fffb7000       .debug$S                   0000000180000000     glew32:glew32.dll
 0000:fffb7000       .debug$S                   0000000180000000     glew32:glew32.dll
 0000:fffb7000       .debug$S                   0000000180000000     glew32:glew32.dll
 0000:fffb7000       .debug$S                   0000000180000000     glew32:glew32.dll
 0000:fffb7000       .debug$S                   0000000180000000     glew32:glew32.dll
 0000:fffb7000       .debug$S                   0000000180000000     glew32:glew32.dll
 0000:fffb7000       .debug$S                   0000000180000000     glew32:glew32.dll
 0000:fffb7000       .debug$S                   0000000180000000     glew32:glew32.dll
 0000:fffb7000       .debug$S                   0000000180000000     glew32:glew32.dll
 0000:fffb7000       .debug$S                   0000000180000000     glew32:glew32.dll
 0000:fffb7000       .debug$S                   0000000180000000     glew32:glew32.dll
 0000:fffb7000       .debug$S                   0000000180000000     glew32:glew32.dll
 0000:fffb7000       .debug$S                   0000000180000000     glew32:glew32.dll
 0000:fffb7000       .debug$S                   0000000180000000     glew32:glew32.dll
 0000:fffb7000       .debug$S                   0000000180000000     glew32:glew32.dll
 0000:fffb7000       .debug$S                   0000000180000000     glew32:glew32.dll
 0000:fffb7000       .debug$S                   0000000180000000     glew32:glew32.dll
 0000:fffb7000       .debug$S                   0000000180000000     glew32:glew32.dll
 0000:fffb7000       .debug$S                   0000000180000000     glew32:glew32.dll
 0000:fffb7000       .debug$S                   0000000180000000     glew32:glew32.dll
 0000:fffb7000       .debug$S                   0000000180000000     glew32:glew32.dll
 0000:fffb7000       .debug$S                   0000000180000000     glew32:glew32.dll
 0000:fffb7000       .debug$S                   0000000180000000     glew32:glew32.dll
 0000:fffb7000       .debug$S                   0000000180000000     glew32:glew32.dll
 0000:fffb7000       .debug$S                   0000000180000000     glew32:glew32.dll
 0000:fffb7000       .debug$S                   0000000180000000     glew32:glew32.dll
 0000:fffb7000       .debug$S                   0000000180000000     glew32:glew32.dll
 0000:fffb7000       .debug$S                   0000000180000000     glew32:glew32.dll
 0000:fffb7000       .debug$S                   0000000180000000     glew32:glew32.dll
 0000:fffb7000       .debug$S                   0000000180000000     glew32:glew32.dll
 0000:fffb7000       .debug$S                   0000000180000000     glew32:glew32.dll
 0000:fffb7000       .debug$S                   0000000180000000     glew32:glew32.dll
 0000:fffb7000       .debug$S                   0000000180000000     glew32:glew32.dll
 0000:fffb7000       .debug$S                   0000000180000000     glew32:glew32.dll
 0000:fffb7000       .debug$S                   0000000180000000     glew32:glew32.dll
 0000:fffb7000       .debug$S                   0000000180000000     glew32:glew32.dll
 0000:fffb7000       .debug$S                   0000000180000000     glew32:glew32.dll
 0000:fffb7000       .debug$S                   0000000180000000     glew32:glew32.dll
 0000:fffb7000       .debug$S                   0000000180000000     glew32:glew32.dll
 0000:fffb7000       .debug$S                   0000000180000000     glew32:glew32.dll
 0000:fffb7000       .debug$S                   0000000180000000     glew32:glew32.dll
 0000:fffb7000       .debug$S                   0000000180000000     glew32:glew32.dll
 0000:fffb7000       .debug$S                   0000000180000000     glew32:glew32.dll
 0000:fffb7000       .debug$S                   0000000180000000     glew32:glew32.dll
 0000:fffb7000       .debug$S                   0000000180000000     glew32:glew32.dll
 0000:fffb7000       .debug$S                   0000000180000000     glew32:glew32.dll
 0000:fffb7000       .debug$S                   0000000180000000     glew32:glew32.dll
 0000:fffb7000       .debug$S                   0000000180000000     glew32:glew32.dll
 0000:fffb7000       .debug$S                   0000000180000000     glew32:glew32.dll
 0000:fffb7000       .debug$S                   0000000180000000     glew32:glew32.dll
 0000:fffb7000       .debug$S                   0000000180000000     glew32:glew32.dll
 0000:fffb7000       .debug$S                   0000000180000000     glew32:glew32.dll
 0000:fffb7000       .debug$S                   0000000180000000     glew32:glew32.dll
 0000:fffb7000       .debug$S                   0000000180000000     glew32:glew32.dll
 0000:fffb7000       .debug$S                   0000000180000000     glew32:glew32.dll
 0000:fffb7000       .debug$S                   0000000180000000     glew32:glew32.dll
 0000:fffb7000       .debug$S                   0000000180000000     glew32:glew32.dll
 0000:fffb7000       .debug$S                   0000000180000000     glew32:glew32.dll
 0000:fffb7000       .debug$S                   0000000180000000     glew32:glew32.dll
 0000:fffb7000       .debug$S                   0000000180000000     glew32:glew32.dll
 0000:fffb7000       .debug$S                   0000000180000000     glew32:glew32.dll
 0000:fffb7000       .debug$S                   0000000180000000     glew32:glew32.dll
 0000:fffb7000       .debug$S                   0000000180000000     glew32:glew32.dll
 0000:fffb7000       .debug$S                   0000000180000000     glew32:glew32.dll
 0000:fffb7000       .debug$S                   0000000180000000     glew32:glew32.dll
 0000:fffb7000       .debug$S                   0000000180000000     glew32:glew32.dll
 0000:fffb7000       .debug$S                   0000000180000000     glew32:glew32.dll
 0000:fffb7000       .debug$S                   0000000180000000     glew32:glew32.dll
 0000:fffb7000       .debug$S                   0000000180000000     glew32:glew32.dll
 0000:fffb7000       .debug$S                   0000000180000000     glew32:glew32.dll
 0000:fffb7000       .debug$S                   0000000180000000     glew32:glew32.dll
 0000:fffb7000       .debug$S                   0000000180000000     glew32:glew32.dll
 0000:fffb7000       .debug$S                   0000000180000000     glew32:glew32.dll
 0000:fffb7000       .debug$S                   0000000180000000     glew32:glew32.dll
 0000:fffb7000       .debug$S                   0000000180000000     glew32:glew32.dll
 0000:fffb7000       .debug$S                   0000000180000000     glew32:glew32.dll
 0000:fffb7000       .debug$S                   0000000180000000     glew32:glew32.dll
 0000:fffb7000       .debug$S                   0000000180000000     glew32:glew32.dll
 0000:fffb7000       .debug$S                   0000000180000000     glew32:glew32.dll
 0000:fffb7000       .debug$S                   0000000180000000     glew32:glew32.dll
 0000:fffb7000       .debug$S                   0000000180000000     glew32:glew32.dll
 0000:fffb7000       .debug$S                   0000000180000000     glew32:glew32.dll
 0000:fffb7000       .debug$S                   0000000180000000     glew32:glew32.dll
 0000:fffb7000       .debug$S                   0000000180000000     glew32:glew32.dll
 0000:fffb7000       .debug$S                   0000000180000000     glew32:glew32.dll
 0000:fffb7000       .debug$S                   0000000180000000     opengl32:OPENGL32.dll
 0000:fffb7000       .debug$S                   0000000180000000     opengl32:OPENGL32.dll
 0000:fffb7000       .debug$S                   0000000180000000     opengl32:OPENGL32.dll
 0000:fffb7000       .debug$S                   0000000180000000     opengl32:OPENGL32.dll
 0000:fffb7000       .debug$S                   0000000180000000     opengl32:OPENGL32.dll
 0000:fffb7000       .debug$S                   0000000180000000     opengl32:OPENGL32.dll
 0000:fffb7000       .debug$S                   0000000180000000     opengl32:OPENGL32.dll
 0000:fffb7000       .debug$S                   0000000180000000     opengl32:OPENGL32.dll
 0000:fffb7000       .debug$S                   0000000180000000     opengl32:OPENGL32.dll
 0000:fffb7000       .debug$S                   0000000180000000     opengl32:OPENGL32.dll
 0000:fffb7000       .debug$S                   0000000180000000     opengl32:OPENGL32.dll
 0000:fffb7000       .debug$S                   0000000180000000     opengl32:OPENGL32.dll
 0000:fffb7000       .debug$S                   0000000180000000     opengl32:OPENGL32.dll
 0000:fffb7000       .debug$S                   0000000180000000     opengl32:OPENGL32.dll
 0000:fffb7000       .debug$S                   0000000180000000     opengl32:OPENGL32.dll
 0000:fffb7000       .debug$S                   0000000180000000     opengl32:OPENGL32.dll
 0000:fffb7000       .debug$S                   0000000180000000     opengl32:OPENGL32.dll
 0000:fffb7000       .debug$S                   0000000180000000     opengl32:OPENGL32.dll
 0000:fffb7000       .debug$S                   0000000180000000     opengl32:OPENGL32.dll
 0000:fffb7000       .debug$S                   0000000180000000     opengl32:OPENGL32.dll
 0000:fffb7000       .debug$S                   0000000180000000     opengl32:OPENGL32.dll
 0000:fffb7000       .debug$S                   0000000180000000     opengl32:OPENGL32.dll
 0000:fffb7000       .debug$S                   0000000180000000     opengl32:OPENGL32.dll
 0000:fffb7000       .debug$S                   0000000180000000     opengl32:OPENGL32.dll
 0000:fffb7000       .debug$S                   0000000180000000     opengl32:OPENGL32.dll
 0000:fffb7000       .debug$S                   0000000180000000     opengl32:OPENGL32.dll
 0000:fffb7000       .debug$S                   0000000180000000     opengl32:OPENGL32.dll
 0000:fffb7000       .debug$S                   0000000180000000     opengl32:OPENGL32.dll
 0000:fffb7000       .debug$S                   0000000180000000     opengl32:OPENGL32.dll
 0000:fffb7000       .debug$S                   0000000180000000     opengl32:OPENGL32.dll
 0000:fffb7000       .debug$S                   0000000180000000     opengl32:OPENGL32.dll
 0000:fffb7000       .debug$S                   0000000180000000     opengl32:OPENGL32.dll
 0000:fffb7000       .debug$S                   0000000180000000     opengl32:OPENGL32.dll
 0000:fffb7000       .debug$S                   0000000180000000     opengl32:OPENGL32.dll
 0000:fffb7000       .debug$S                   0000000180000000     opengl32:OPENGL32.dll
 0000:fffb7000       .debug$S                   0000000180000000     opengl32:OPENGL32.dll
 0000:fffb7000       .debug$S                   0000000180000000     opengl32:OPENGL32.dll
 0000:fffb7000       .debug$S                   0000000180000000     opengl32:OPENGL32.dll
 0000:fffb7000       .debug$S                   0000000180000000     opengl32:OPENGL32.dll
 0000:fffb7000       .debug$S                   0000000180000000     opengl32:OPENGL32.dll
 0000:fffb7000       .debug$S                   0000000180000000     opengl32:OPENGL32.dll
 0000:fffb7000       .debug$S                   0000000180000000     opengl32:OPENGL32.dll
 0000:fffb7000       .debug$S                   0000000180000000     opengl32:OPENGL32.dll
 0000:fffb7000       .debug$S                   0000000180000000     FreeImage:FreeImage.dll
 0000:fffb7000       .debug$S                   0000000180000000     FreeImage:FreeImage.dll
 0000:fffb7000       .debug$S                   0000000180000000     FreeImage:FreeImage.dll
 0000:fffb7000       .debug$S                   0000000180000000     FreeImage:FreeImage.dll
 0000:fffb7000       .debug$S                   0000000180000000     FreeImage:FreeImage.dll
 0000:fffb7000       .debug$S                   0000000180000000     FreeImage:FreeImage.dll
 0000:fffb7000       .debug$S                   0000000180000000     FreeImage:FreeImage.dll
 0000:fffb7000       .debug$S                   0000000180000000     FreeImage:FreeImage.dll
 0000:fffb7000       .debug$S                   0000000180000000     FreeImage:FreeImage.dll
 0000:fffb7000       .debug$S                   0000000180000000     FreeImage:FreeImage.dll
 0000:fffb7000       .debug$S                   0000000180000000     FreeImage:FreeImage.dll
 0000:fffb7000       .debug$S                   0000000180000000     FreeImage:FreeImage.dll
 0000:fffb7000       .debug$S                   0000000180000000     FreeImage:FreeImage.dll
 0000:fffb7000       .debug$S                   0000000180000000     FreeImage:FreeImage.dll
 0000:fffb7000       .debug$S                   0000000180000000     kernel32:KERNEL32.dll
 0001:00000000       ??__Eimages@@YAXXZ         0000000180001000 f   image.obj
 0001:00000030       ??__E?constructor_template@Image@@0V?$Persistent@VFunction@v8@@V?$NonCopyablePersistentTraits@VFunction@v8@@@2@@v8@@A@@YAXXZ 0000000180001030 f   image.obj
 0001:00000050       ??__Eglobjs@webgl@@YAXXZ   0000000180001050 f   webgl.obj
 0001:00000080       ?FunctionCallbackWrapper@imp@Nan@@YAXAEBV?$FunctionCallbackInfo@VValue@v8@@@v8@@@Z 0000000180001080 f   bindings.obj
 0001:0000b8d0       _register_webgl            000000018000c8d0 f   bindings.obj
 0001:0000bd40       ?GetterCallbackWrapper@imp@Nan@@YAXV?$Local@VName@v8@@@v8@@AEBV?$PropertyCallbackInfo@VValue@v8@@@4@@Z 000000018000cd40 f   image.obj
 0001:0000bdf0       ?SetterCallbackWrapper@imp@Nan@@YAXV?$Local@VName@v8@@@v8@@V?$Local@VValue@v8@@@4@AEBV?$PropertyCallbackInfo@X@4@@Z 000000018000cdf0 f   image.obj
 0001:0000c240       ?registerImage@@YAXPEAVImage@@@Z 000000018000d240 f   image.obj
 0001:0000f8b8       $LN139                     00000001800108b8     webgl.obj
 0001:000150ec       $LN810                     00000001800160ec     webgl.obj
 0001:00015100       $LN809                     0000000180016100     webgl.obj
 0001:00015d98       $LN112                     0000000180016d98     webgl.obj
 0001:000160e0       ?load_exe_hook@@YAP6A_JXZIPEAUDelayLoadInfo@@@Z 00000001800170e0 f   win_delay_load_hook.obj
 0001:00016720       $$000000                   0000000180017720     LIBCMT:_amdsecgs_.obj
 0001:00016b84       ?dllmain_crt_dispatch@@YAHQEAUHINSTANCE__@@KQEAX@Z 0000000180017b84 f   LIBCMT:dll_dllmain.obj
 0001:00016bd4       ?dllmain_crt_process_attach@@YAHQEAUHINSTANCE__@@QEAX@Z 0000000180017bd4 f   LIBCMT:dll_dllmain.obj
 0001:00016d00       ?dllmain_crt_process_detach@@YAH_N@Z 0000000180017d00 f   LIBCMT:dll_dllmain.obj
 0001:00016d84       ?dllmain_dispatch@@YAHQEAUHINSTANCE__@@KQEAX@Z 0000000180017d84 f   LIBCMT:dll_dllmain.obj
 0001:00016e7c       ?dllmain_raw@@YAHQEAUHINSTANCE__@@KQEAX@Z 0000000180017e7c f   LIBCMT:dll_dllmain.obj
 0001:000170f4       capture_current_context    00000001800180f4 f   LIBCMT:gs_report.obj
 0001:00017164       capture_previous_context   0000000180018164 f   LIBCMT:gs_report.obj
 0001:0001781c       ?CatchIt@@YAXPEAUEHExceptionRecord@@PEA_KPEAU_CONTEXT@@PEAU_xDISPATCHER_CONTEXT@@PEBU_s_FuncInfo@@PEBU_s_HandlerType@@PEBU_s_CatchableType@@PEBU_s_TryBlockMapEntry@@H1EE@Z 000000018001881c f   libvcruntime:frame.obj
 0001:000178e0       ?ExFilterRethrow@@YAHPEAU_EXCEPTION_POINTERS@@PEAUEHExceptionRecord@@PEAH@Z 00000001800188e0 f   libvcruntime:frame.obj
 0001:00017968       ?FindHandler@@YAXPEAUEHExceptionRecord@@PEA_KPEAU_CONTEXT@@PEAU_xDISPATCHER_CONTEXT@@PEBU_s_FuncInfo@@EH1@Z 0000000180018968 f   libvcruntime:frame.obj
 0001:00017e38       ?FindHandlerForForeignException@@YAXPEAUEHExceptionRecord@@PEA_KPEAU_CONTEXT@@PEAU_xDISPATCHER_CONTEXT@@PEBU_s_FuncInfo@@HH1@Z 0000000180018e38 f   libvcruntime:frame.obj
 0001:000180a4       ?IsInExceptionSpec@@YAEPEAUEHExceptionRecord@@PEBU_s_ESTypeList@@@Z 00000001800190a4 f   libvcruntime:frame.obj
 0001:00018bd0       $$000000                   0000000180019bd0     libvcruntime:memcpy.obj
 0001:00018c77       MoveSmall                  0000000180019c77     libvcruntime:memcpy.obj
 0001:00019630       $$000000                   000000018001a630     libvcruntime:memset.obj
 0001:0001971c       MsetTab                    000000018001a71c     libvcruntime:memset.obj
 0001:00019af0       $$000000                   000000018001aaf0     libvcruntime:handlers.obj
 0001:0001a1f0       $$000000                   000000018001b1f0     libvcruntime:_jmpuwind_.obj
 0001:0001a2e4       ?try_get_function@@YAPEAXW4function_id@?A0x679b24ab@@QEBDQEBW4module_id@2@2@Z 000000018001b2e4 f   libvcruntime:winapi_downlevel.obj
 0001:0001a738       ??$common_assert_to_message_box@_W@@YAXQEB_W0IQEAX@Z 000000018001b738 f   libucrt:assert.obj
 0001:0001a7fc       ??$common_assert_to_message_box_build_string@_W@@YAXQEA_W_KQEB_W2IQEAX@Z 000000018001b7fc f   libucrt:assert.obj
 0001:0001afd0       ??$common_assert_to_stderr@_W@@YAXQEB_W0I@Z 000000018001bfd0 f   libucrt:assert.obj
 0001:0001b140       ?get_assert_format@@YAPEB_W_W@Z 000000018001c140 f   libucrt:assert.obj
 0001:0001bc98       ??R<lambda_0a64b6a4deda75c01876f29c44fc5eb3>@@QEBAHXZ 000000018001cc98 f   libucrt:output.obj
 0001:0001bd88       ??R<lambda_dd75445284c072d0bd3768540cc698fa>@@QEBAHXZ 000000018001cd88 f   libucrt:output.obj
 0001:0001eb8c       ?atexit_exception_filter@@YAHK@Z 000000018001fb8c f   libucrt:exit.obj
 0001:0001eb98       ?common_exit@@YAXHW4_crt_exit_cleanup_mode@@W4_crt_exit_return_mode@@@Z 000000018001fb98 f   libucrt:exit.obj
 0001:0001ed04       ?exit_or_terminate_process@@YAXI@Z 000000018001fd04 f   libucrt:exit.obj
 0001:0001ed50       ?try_cor_exit_process@@YAXI@Z 000000018001fd50 f   libucrt:exit.obj
 0001:0001ede8       ??$parse_command_line@D@@YAXPEADPEAPEAD0PEA_K2@Z 000000018001fde8 f   libucrt:argv_parsing.obj
 0001:0001f180       ??$common_initialize_environment_nolock@D@@YAHXZ 0000000180020180 f   libucrt:environment_initialization.obj
 0001:0001f1ec       ??$create_environment@D@@YAQEAPEADQEAD@Z 00000001800201ec f   libucrt:environment_initialization.obj
 0001:0001f2e8       ??$free_environment@_W@@YAXQEAPEA_W@Z 00000001800202e8 f   libucrt:environment_initialization.obj
 0001:0001f2e8       ??$free_environment@D@@YAXQEAPEAD@Z 00000001800202e8 f   libucrt:environment_initialization.obj
 0001:0001f32c       ??$uninitialize_environment_internal@D@@YAXAEAPEAPEAD@Z 000000018002032c f   libucrt:environment_initialization.obj
 0001:0001f348       ??$uninitialize_environment_internal@_W@@YAXAEAPEAPEA_W@Z 0000000180020348 f   libucrt:environment_initialization.obj
 0001:0001f580       ??R<lambda_4e60a939b0d047cfe11ddc22648dfba9>@@QEBAHXZ 0000000180020580 f   libucrt:onexit.obj
 0001:0001f830       initialize_global_variables 0000000180020830 f   libucrt:initialization.obj
 0001:0001f844       initialize_c               0000000180020844 f   libucrt:initialization.obj
 0001:0001f868       uninitialize_environment   0000000180020868 f   libucrt:initialization.obj
 0001:0001f878       initialize_pointers        0000000180020878 f   libucrt:initialization.obj
 0001:0001f8cc       uninitialize_vcruntime     00000001800208cc f   libucrt:initialization.obj
 0001:0001f8d4       uninitialize_allocated_memory 00000001800208d4 f   libucrt:initialization.obj
 0001:0001fb38       ?_strupr_s_l_stat@@YAHQEAD_KQEAU__crt_locale_pointers@@@Z 0000000180020b38 f   libucrt:strupr.obj
 0001:00020acc       ??$common_xtox@K_W@@YAHKQEA_W_KI_N@Z 0000000180021acc f   libucrt:xtoa.obj
 0001:00020b78       ??$common_xtox_s@K_W@@YAHKQEA_W_KI_N@Z 0000000180021b78 f   libucrt:xtoa.obj
 0001:00020e3c       ??$message_box_wait_thread@_W@@YAKQEAX@Z 0000000180021e3c f   libucrt:crtmbox.obj
 0001:00021050       common_flush_all           0000000180022050 f   libucrt:fflush.obj
 0001:000211b8       ??R<lambda_b721fa326cdb32351d23dfa67958c160>@@QEBAHXZ 00000001800221b8 f   libucrt:setvbuf.obj
 0001:000217a4       ?construct_ptd_array@@YAXQEAU__acrt_ptd@@@Z 00000001800227a4 f   libucrt:per_thread_data.obj
 0001:00021874       ?destroy_fls@@YAXPEAX@Z    0000000180022874 f   libucrt:per_thread_data.obj
 0001:00021894       ?destroy_ptd_array@@YAXQEAU__acrt_ptd@@@Z 0000000180022894 f   libucrt:per_thread_data.obj
 0001:0002198c       ?replace_current_thread_locale_nolock@@YAXQEAU__acrt_ptd@@QEAU__crt_locale_data@@@Z 000000018002298c f   libucrt:per_thread_data.obj
 0001:00021bcc       ?try_get_function@@YAPEAXW4function_id@?A0x63058377@@QEBDQEBW4module_id@2@2@Z 0000000180022bcc f   libucrt:winapi_thunks.obj
 0001:000224ec       ?initialize_inherited_file_handles_nolock@@YAXXZ 00000001800234ec f   libucrt:ioinit.obj
 0001:000225d8       ?initialize_stdio_handles_nolock@@YAXXZ 00000001800235d8 f   libucrt:ioinit.obj
 0001:000227c4       ?internal_isupper_l@@YA_NHQEAU__crt_locale_pointers@@@Z 00000001800237c4 f   libucrt:tolower_toupper.obj
 0001:000230f8       ?fp_format_a@@YAHQEBNPEAD_KQEAD2H_NIQEAU__crt_locale_pointers@@@Z 00000001800240f8 f   libucrt:cvt.obj
 0001:00023458       ?fp_format_e@@YAHQEBNQEAD_K12H_NIQEAU__crt_locale_pointers@@@Z 0000000180024458 f   libucrt:cvt.obj
 0001:00023528       ?fp_format_e_internal@@YAHQEAD_KH_NIQEAU_strflt@@2QEAU__crt_locale_pointers@@@Z 0000000180024528 f   libucrt:cvt.obj
 0001:00023704       ?fp_format_f_internal@@YAHQEAD_KHQEAU_strflt@@_NQEAU__crt_locale_pointers@@@Z 0000000180024704 f   libucrt:cvt.obj
 0001:0002384c       ?fp_format_g@@YAHQEBNQEAD_K12H_NIQEAU__crt_locale_pointers@@@Z 000000018002484c f   libucrt:cvt.obj
 0001:00023984       ?fp_format_nan_or_infinity@@YAHW4__acrt_fp_class@@_NPEAD_K1@Z 0000000180024984 f   libucrt:cvt.obj
 0001:000240f8       ?<helper_func_cdecl>@<lambda_2feae5270eb4d0d5532525f423405775>@@CAHPEBX0@Z 00000001800250f8 f   libucrt:argv_wildcards.obj
 0001:0002410c       ??$common_expand_argv_wildcards@D@@YAHQEAPEADQEAPEAPEAD@Z 000000018002510c f   libucrt:argv_wildcards.obj
 0001:00024318       ??$copy_and_add_argument_to_buffer@D@@YAHQEBD0_KAEAV?$argument_list@D@?A0xca0879c4@@@Z 0000000180025318 f   libucrt:argv_wildcards.obj
 0001:00024428       ??$expand_argument_wildcards@D@@YAHQEAD0AEAV?$argument_list@D@?A0xca0879c4@@@Z 0000000180025428 f   libucrt:argv_wildcards.obj
 0001:000246dc       ??R<lambda_ad1ced32f4ac17aa236e5ef05d6b3b7c>@@QEBAXXZ 00000001800256dc f   libucrt:mbctype.obj
 0001:000248f4       ?getSystemCP@@YAHH@Z       00000001800258f4 f   libucrt:mbctype.obj
 0001:00024974       ?setSBCS@@YAXPEAU__crt_multibyte_data@@@Z 0000000180025974 f   libucrt:mbctype.obj
 0001:00024a04       ?setSBUpLow@@YAXPEAU__crt_multibyte_data@@@Z 0000000180025a04 f   libucrt:mbctype.obj
 0001:00024be8       ?setmbcp_internal@@YAHH_N@Z 0000000180025be8 f   libucrt:mbctype.obj
 0001:00025130       ?x_ismbbtype_l@@YAHPEAU__crt_locale_pointers@@IHH@Z 0000000180026130 f   libucrt:ismbbyte.obj
 0001:000251e4       initialize_environment     00000001800261e4 f   libucrt:initialization.obj
 0001:000251e4       uninitialize_global_state_isolation 00000001800261e4 f   libucrt:initialization.obj
 0001:000251e4       uninitialize_c             00000001800261e4 f   libucrt:initialization.obj
 0001:000251e4       initialize_global_state_isolation 00000001800261e4 f   libucrt:initialization.obj
 0001:000251e4       report_memory_leaks        00000001800261e4 f   libucrt:initialization.obj
 0001:00025508       ?__acrt_LCMapStringA_stat@@YAHPEAU__crt_locale_pointers@@PEB_WKPEBDHPEADHHH@Z 0000000180026508 f   libucrt:lcmapstringa.obj
 0001:00025bd4       ?write_double_translated_ansi_nolock@@YA?AUwrite_result@?A0x9c548279@@HQEBDI@Z 0000000180026bd4 f   libucrt:write.obj
 0001:00025ddc       ?write_text_ansi_nolock@@YA?AUwrite_result@?A0x9c548279@@HQEBDI@Z 0000000180026ddc f   libucrt:write.obj
 0001:00025ee4       ?write_text_utf16le_nolock@@YA?AUwrite_result@?A0x9c548279@@HQEBDI@Z 0000000180026ee4 f   libucrt:write.obj
 0001:00026000       ?write_text_utf8_nolock@@YA?AUwrite_result@?A0x9c548279@@HQEBDI@Z 0000000180027000 f   libucrt:write.obj
 0001:00026950       ?GetTableIndexFromLocaleName@@YAHPEB_W@Z 0000000180027950 f   libucrt:lcidtoname_downlevel.obj
 0001:0002879c       memcpy_s                   000000018002979c f   libucrt:cfout.obj
 0001:00028824       ??$write_buffer_nolock@D@@YA_NDV__crt_stdio_stream@@@Z 0000000180029824 f   libucrt:_flsbuf.obj
 0001:00028928       ??$write_buffer_nolock@_W@@YA_N_WV__crt_stdio_stream@@@Z 0000000180029928 f   libucrt:_flsbuf.obj
 0001:00028de0       ?free_crt_array_internal@@YAXQEAPEBX_K@Z 0000000180029de0 f   libucrt:inittime.obj
 0001:00029100       ?shortsort@@YAXPEAD0_KP6AHPEBX2@Z@Z 000000018002a100 f   libucrt:qsort.obj
 0001:00029718       ?initialize_multibyte@@YAHXZ 000000018002a718 f   libucrt:multibyte_initializer.obj
 0001:00029808       ??$common_lseek@_J@@YA_JH_JH@Z 000000018002a808 f   libucrt:lseek.obj
 0001:000298f8       ??$common_lseek_nolock@_J@@YA_JH_JH@Z 000000018002a8f8 f   libucrt:lseek.obj
 0001:00029da0       $$000000                   000000018002ada0     libucrt:log10.obj
 0001:0002a53c       common_control87           000000018002b53c f   libucrt:ieee.obj
 0001:0002a7d4       _call_matherr              000000018002b7d4 f   libucrt:libm_error.obj
 0001:0002a83c       _exception_enabled         000000018002b83c f   libucrt:libm_error.obj
 0001:0002aad0       _log_special_common        000000018002bad0 f   libucrt:log_special.obj
 0001:0002ab70       $$000000                   000000018002bb70     libucrt:fpsr.obj
 0001:0002b820       $$000000                   000000018002c820     LIBCMT:_chkstk_.obj
 0001:0002b9d0       $$000000                   000000018002c9d0     libvcruntime:memcmp.obj
 0001:0002bb30       $$000000                   000000018002cb30     LIBCMT:_guard_dispatch_.obj
 0001:0002bb50       ?dtor$0@?0??Get@Nan@@YA?AV?$MaybeLocal@VValue@v8@@@v8@@V?$Local@VObject@v8@@@3@V?$Local@VValue@v8@@@3@@Z@4HA 000000018002cb50 f   image.obj
 0001:0002bb50       ?dtor$0@?0??GetFunction@Nan@@YA?AV?$MaybeLocal@VFunction@v8@@@v8@@V?$Local@VFunctionTemplate@v8@@@3@@Z@4HA 000000018002cb50 f   bindings.obj
 0001:0002bb50       ?dtor$0@?0??NewInstance@Nan@@YA?AV?$MaybeLocal@VObject@v8@@@v8@@V?$Local@VObjectTemplate@v8@@@3@@Z@4HA 000000018002cb50 f   bindings.obj
 0001:0002bb50       ?dtor$0@?0??convert@?$ToFactory@VInteger@v8@@@imp@Nan@@SA?AV?$MaybeLocal@VInteger@v8@@@v8@@V?$Local@VValue@v8@@@5@@Z@4HA 000000018002cb50 f   bindings.obj
 0001:0002bb60       ?dtor$0@?0??Set@Nan@@YA?AV?$Maybe@_N@v8@@V?$Local@VObject@v8@@@3@V?$Local@VValue@v8@@@3@1@Z@4HA 000000018002cb60 f   image.obj
 0001:0002bb60       ?dtor$0@?0??ForceSet@Nan@@YA?AV?$Maybe@_N@v8@@V?$Local@VObject@v8@@@3@V?$Local@VValue@v8@@@3@1W4PropertyAttribute@3@@Z@4HA 000000018002cb60 f   bindings.obj
 0001:0002bb70       ?dtor$0@?0??New@?$Factory@VFunctionTemplate@v8@@@imp@Nan@@SA?AV?$Local@VFunctionTemplate@v8@@@v8@@P6AXAEBV?$FunctionCallbackInfo@VValue@v8@@@3@@ZV?$Local@VValue@v8@@@5@V?$Local@VSignature@v8@@@5@@Z@4HA 000000018002cb70 f   bindings.obj
 0001:0002bb80       ?dtor$0@?0??GetVertexAttrib@webgl@@YAXAEBV?$FunctionCallbackInfo@VValue@v8@@@Nan@@@Z@4HA 000000018002cb80 f   webgl.obj
 0001:0002bb80       ?dtor$0@?0???$SetMethod@VObject@v8@@VLocal@2@@Nan@@YAXV?$Local@VObject@v8@@@v8@@PEBDP6AXAEBV?$FunctionCallbackInfo@VValue@v8@@@0@@Z@Z@4HA 000000018002cb80 f   bindings.obj
 0001:0002bb90       ?dtor$0@?0??VertexAttrib4f@webgl@@YAXAEBV?$FunctionCallbackInfo@VValue@v8@@@Nan@@@Z@4HA 000000018002cb90 f   webgl.obj
 0001:0002bb90       ?dtor$0@?0??SetPrototypeMethod@Nan@@YAXV?$Local@VFunctionTemplate@v8@@@v8@@PEBDP6AXAEBV?$FunctionCallbackInfo@VValue@v8@@@1@@Z@Z@4HA 000000018002cb90 f   image.obj
 0001:0002bb90       ?dtor$0@?0??ThrowError@Nan@@YAXPEBD@Z@4HA 000000018002cb90 f   webgl.obj
 0001:0002bb90       ?dtor$0@?0??VertexAttrib2fv@webgl@@YAXAEBV?$FunctionCallbackInfo@VValue@v8@@@Nan@@@Z@4HA 000000018002cb90 f   webgl.obj
 0001:0002bb90       ?dtor$0@?0??FramebufferTexture2D@webgl@@YAXAEBV?$FunctionCallbackInfo@VValue@v8@@@Nan@@@Z@4HA 000000018002cb90 f   webgl.obj
 0001:0002bb90       ?dtor$0@?0??ThrowTypeError@Nan@@YAXPEBD@Z@4HA 000000018002cb90 f   webgl.obj
 0001:0002bb90       ?dtor$0@?0??VertexAttrib3fv@webgl@@YAXAEBV?$FunctionCallbackInfo@VValue@v8@@@Nan@@@Z@4HA 000000018002cb90 f   webgl.obj
 0001:0002bb90       ?dtor$0@?0??VertexAttribPointer@webgl@@YAXAEBV?$FunctionCallbackInfo@VValue@v8@@@Nan@@@Z@4HA 000000018002cb90 f   webgl.obj
 0001:0002bb90       ?dtor$0@?0??Uniform4f@webgl@@YAXAEBV?$FunctionCallbackInfo@VValue@v8@@@Nan@@@Z@4HA 000000018002cb90 f   webgl.obj
 0001:0002bb90       ?dtor$0@?0??VertexAttrib1fv@webgl@@YAXAEBV?$FunctionCallbackInfo@VValue@v8@@@Nan@@@Z@4HA 000000018002cb90 f   webgl.obj
 0001:0002bb90       ?dtor$0@?0??GetShaderSource@webgl@@YAXAEBV?$FunctionCallbackInfo@VValue@v8@@@Nan@@@Z@4HA 000000018002cb90 f   webgl.obj
 0001:0002bb90       ?dtor$0@?0??SrcGetter@Image@@KAXV?$Local@VString@v8@@@v8@@AEBV?$PropertyCallbackInfo@VValue@v8@@@Nan@@@Z@4HA 000000018002cb90 f   image.obj
 0001:0002bb90       ?dtor$0@?0??BufferData@webgl@@YAXAEBV?$FunctionCallbackInfo@VValue@v8@@@Nan@@@Z@4HA 000000018002cb90 f   webgl.obj
 0001:0002bb90       ?dtor$0@?0??BufferSubData@webgl@@YAXAEBV?$FunctionCallbackInfo@VValue@v8@@@Nan@@@Z@4HA 000000018002cb90 f   webgl.obj
 0001:0002bb90       ?dtor$0@?0??VertexAttrib4fv@webgl@@YAXAEBV?$FunctionCallbackInfo@VValue@v8@@@Nan@@@Z@4HA 000000018002cb90 f   webgl.obj
 0001:0002bb90       ?dtor$0@?0??Uniform4i@webgl@@YAXAEBV?$FunctionCallbackInfo@VValue@v8@@@Nan@@@Z@4HA 000000018002cb90 f   webgl.obj
 0001:0002bb90       ?dtor$0@?0??GetSupportedExtensions@webgl@@YAXAEBV?$FunctionCallbackInfo@VValue@v8@@@Nan@@@Z@4HA 000000018002cb90 f   webgl.obj
 0001:0002bba0       ?dtor$0@?0??TexSubImage2D@webgl@@YAXAEBV?$FunctionCallbackInfo@VValue@v8@@@Nan@@@Z@4HA 000000018002cba0 f   webgl.obj
 0001:0002bba0       ?dtor$0@?0??SetAccessor@Nan@@YAXV?$Local@VObjectTemplate@v8@@@v8@@V?$Local@VString@v8@@@3@P6AX1AEBV?$PropertyCallbackInfo@VValue@v8@@@1@@ZP6AX1V?$Local@VValue@v8@@@3@AEBV?$PropertyCallbackInfo@X@1@@Z4W4AccessControl@3@W4PropertyAttribute@3@V?$Local@VAccessorSignature@v8@@@3@@Z@4HA 000000018002cba0 f   image.obj
 0001:0002bba0       ?dtor$0@?0??GetParameter@webgl@@YAXAEBV?$FunctionCallbackInfo@VValue@v8@@@Nan@@@Z@4HA 000000018002cba0 f   webgl.obj
 0001:0002bba0       ?dtor$0@?0??Initialize@Image@@SAXV?$Local@VObject@v8@@@v8@@@Z@4HA 000000018002cba0 f   image.obj
 0001:0002bba0       ?dtor$0@?0??TexImage2D@webgl@@YAXAEBV?$FunctionCallbackInfo@VValue@v8@@@Nan@@@Z@4HA 000000018002cba0 f   webgl.obj
 0001:0002bbb0       ?dtor$0@?0??TexParameterf@webgl@@YAXAEBV?$FunctionCallbackInfo@VValue@v8@@@Nan@@@Z@4HA 000000018002cbb0 f   webgl.obj
 0001:0002bbb0       ?dtor$0@?0??CompileShader@webgl@@YAXAEBV?$FunctionCallbackInfo@VValue@v8@@@Nan@@@Z@4HA 000000018002cbb0 f   webgl.obj
 0001:0002bbb0       ?dtor$0@?0??CreateBuffer@webgl@@YAXAEBV?$FunctionCallbackInfo@VValue@v8@@@Nan@@@Z@4HA 000000018002cbb0 f   webgl.obj
 0001:0002bbb0       ?dtor$0@?0??CreateFramebuffer@webgl@@YAXAEBV?$FunctionCallbackInfo@VValue@v8@@@Nan@@@Z@4HA 000000018002cbb0 f   webgl.obj
 0001:0002bbb0       ?dtor$0@?0??CreateProgram@webgl@@YAXAEBV?$FunctionCallbackInfo@VValue@v8@@@Nan@@@Z@4HA 000000018002cbb0 f   webgl.obj
 0001:0002bbb0       ?dtor$0@?0??CreateRenderbuffer@webgl@@YAXAEBV?$FunctionCallbackInfo@VValue@v8@@@Nan@@@Z@4HA 000000018002cbb0 f   webgl.obj
 0001:0002bbb0       ?dtor$0@?0??CreateShader@webgl@@YAXAEBV?$FunctionCallbackInfo@VValue@v8@@@Nan@@@Z@4HA 000000018002cbb0 f   webgl.obj
 0001:0002bbb0       ?dtor$0@?0??CreateTexture@webgl@@YAXAEBV?$FunctionCallbackInfo@VValue@v8@@@Nan@@@Z@4HA 000000018002cbb0 f   webgl.obj
 0001:0002bbb0       ?dtor$0@?0??StencilOpSeparate@webgl@@YAXAEBV?$FunctionCallbackInfo@VValue@v8@@@Nan@@@Z@4HA 000000018002cbb0 f   webgl.obj
 0001:0002bbb0       ?dtor$0@?0??CullFace@webgl@@YAXAEBV?$FunctionCallbackInfo@VValue@v8@@@Nan@@@Z@4HA 000000018002cbb0 f   webgl.obj
 0001:0002bbb0       ?dtor$0@?0??DeleteBuffer@webgl@@YAXAEBV?$FunctionCallbackInfo@VValue@v8@@@Nan@@@Z@4HA 000000018002cbb0 f   webgl.obj
 0001:0002bbb0       ?dtor$0@?0??ClearColor@webgl@@YAXAEBV?$FunctionCallbackInfo@VValue@v8@@@Nan@@@Z@4HA 000000018002cbb0 f   webgl.obj
 0001:0002bbb0       ?dtor$0@?0??Clear@webgl@@YAXAEBV?$FunctionCallbackInfo@VValue@v8@@@Nan@@@Z@4HA 000000018002cbb0 f   webgl.obj
 0001:0002bbb0       ?dtor$0@?0??DeleteFramebuffer@webgl@@YAXAEBV?$FunctionCallbackInfo@VValue@v8@@@Nan@@@Z@4HA 000000018002cbb0 f   webgl.obj
 0001:0002bbb0       ?dtor$0@?0??StencilOp@webgl@@YAXAEBV?$FunctionCallbackInfo@VValue@v8@@@Nan@@@Z@4HA 000000018002cbb0 f   webgl.obj
 0001:0002bbb0       ?dtor$0@?0??DeleteProgram@webgl@@YAXAEBV?$FunctionCallbackInfo@VValue@v8@@@Nan@@@Z@4HA 000000018002cbb0 f   webgl.obj
 0001:0002bbb0       ?dtor$0@?0??StencilMaskSeparate@webgl@@YAXAEBV?$FunctionCallbackInfo@VValue@v8@@@Nan@@@Z@4HA 000000018002cbb0 f   webgl.obj
 0001:0002bbb0       ?dtor$0@?0??DeleteRenderbuffer@webgl@@YAXAEBV?$FunctionCallbackInfo@VValue@v8@@@Nan@@@Z@4HA 000000018002cbb0 f   webgl.obj
 0001:0002bbb0       ?dtor$0@?0??StencilMask@webgl@@YAXAEBV?$FunctionCallbackInfo@VValue@v8@@@Nan@@@Z@4HA 000000018002cbb0 f   webgl.obj
 0001:0002bbb0       ?dtor$0@?0??StencilFuncSeparate@webgl@@YAXAEBV?$FunctionCallbackInfo@VValue@v8@@@Nan@@@Z@4HA 000000018002cbb0 f   webgl.obj
 0001:0002bbb0       ?dtor$0@?0??DeleteShader@webgl@@YAXAEBV?$FunctionCallbackInfo@VValue@v8@@@Nan@@@Z@4HA 000000018002cbb0 f   webgl.obj
 0001:0002bbb0       ?dtor$0@?0??DeleteTexture@webgl@@YAXAEBV?$FunctionCallbackInfo@VValue@v8@@@Nan@@@Z@4HA 000000018002cbb0 f   webgl.obj
 0001:0002bbb0       ?dtor$0@?0??DepthFunc@webgl@@YAXAEBV?$FunctionCallbackInfo@VValue@v8@@@Nan@@@Z@4HA 000000018002cbb0 f   webgl.obj
 0001:0002bbb0       ?dtor$0@?0??StencilFunc@webgl@@YAXAEBV?$FunctionCallbackInfo@VValue@v8@@@Nan@@@Z@4HA 000000018002cbb0 f   webgl.obj
 0001:0002bbb0       ?dtor$0@?0??Scissor@webgl@@YAXAEBV?$FunctionCallbackInfo@VValue@v8@@@Nan@@@Z@4HA 000000018002cbb0 f   webgl.obj
 0001:0002bbb0       ?dtor$0@?0??DepthMask@webgl@@YAXAEBV?$FunctionCallbackInfo@VValue@v8@@@Nan@@@Z@4HA 000000018002cbb0 f   webgl.obj
 0001:0002bbb0       ?dtor$0@?0??RenderbufferStorage@webgl@@YAXAEBV?$FunctionCallbackInfo@VValue@v8@@@Nan@@@Z@4HA 000000018002cbb0 f   webgl.obj
 0001:0002bbb0       ?dtor$0@?0??DepthRange@webgl@@YAXAEBV?$FunctionCallbackInfo@VValue@v8@@@Nan@@@Z@4HA 000000018002cbb0 f   webgl.obj
 0001:0002bbb0       ?dtor$0@?0??PolygonOffset@webgl@@YAXAEBV?$FunctionCallbackInfo@VValue@v8@@@Nan@@@Z@4HA 000000018002cbb0 f   webgl.obj
 0001:0002bbb0       ?dtor$0@?0??PixelStorei@webgl@@YAXAEBV?$FunctionCallbackInfo@VValue@v8@@@Nan@@@Z@4HA 000000018002cbb0 f   webgl.obj
 0001:0002bbb0       ?dtor$0@?0??DetachShader@webgl@@YAXAEBV?$FunctionCallbackInfo@VValue@v8@@@Nan@@@Z@4HA 000000018002cbb0 f   webgl.obj
 0001:0002bbb0       ?dtor$0@?0??Disable@webgl@@YAXAEBV?$FunctionCallbackInfo@VValue@v8@@@Nan@@@Z@4HA 000000018002cbb0 f   webgl.obj
 0001:0002bbb0       ?dtor$0@?0??CheckFramebufferStatus@webgl@@YAXAEBV?$FunctionCallbackInfo@VValue@v8@@@Nan@@@Z@4HA 000000018002cbb0 f   webgl.obj
 0001:0002bbb0       ?dtor$0@?0??LinkProgram@webgl@@YAXAEBV?$FunctionCallbackInfo@VValue@v8@@@Nan@@@Z@4HA 000000018002cbb0 f   webgl.obj
 0001:0002bbb0       ?dtor$0@?0??BlendFuncSeparate@webgl@@YAXAEBV?$FunctionCallbackInfo@VValue@v8@@@Nan@@@Z@4HA 000000018002cbb0 f   webgl.obj
 0001:0002bbb0       ?dtor$0@?0??DisableVertexAttribArray@webgl@@YAXAEBV?$FunctionCallbackInfo@VValue@v8@@@Nan@@@Z@4HA 000000018002cbb0 f   webgl.obj
 0001:0002bbb0       ?dtor$0@?0??LineWidth@webgl@@YAXAEBV?$FunctionCallbackInfo@VValue@v8@@@Nan@@@Z@4HA 000000018002cbb0 f   webgl.obj
 0001:0002bbb0       ?dtor$0@?0??DrawArrays@webgl@@YAXAEBV?$FunctionCallbackInfo@VValue@v8@@@Nan@@@Z@4HA 000000018002cbb0 f   webgl.obj
 0001:0002bbb0       ?dtor$0@?0??DrawElements@webgl@@YAXAEBV?$FunctionCallbackInfo@VValue@v8@@@Nan@@@Z@4HA 000000018002cbb0 f   webgl.obj
 0001:0002bbb0       ?dtor$0@?0??BlendFunc@webgl@@YAXAEBV?$FunctionCallbackInfo@VValue@v8@@@Nan@@@Z@4HA 000000018002cbb0 f   webgl.obj
 0001:0002bbb0       ?dtor$0@?0??Enable@webgl@@YAXAEBV?$FunctionCallbackInfo@VValue@v8@@@Nan@@@Z@4HA 000000018002cbb0 f   webgl.obj
 0001:0002bbb0       ?dtor$0@?0??EnableVertexAttribArray@webgl@@YAXAEBV?$FunctionCallbackInfo@VValue@v8@@@Nan@@@Z@4HA 000000018002cbb0 f   webgl.obj
 0001:0002bbb0       ?dtor$0@?0??IsTexture@webgl@@YAXAEBV?$FunctionCallbackInfo@VValue@v8@@@Nan@@@Z@4HA 000000018002cbb0 f   webgl.obj
 0001:0002bbb0       ?dtor$0@?0??IsShader@webgl@@YAXAEBV?$FunctionCallbackInfo@VValue@v8@@@Nan@@@Z@4HA 000000018002cbb0 f   webgl.obj
 0001:0002bbb0       ?dtor$0@?0??BlendEquationSeparate@webgl@@YAXAEBV?$FunctionCallbackInfo@VValue@v8@@@Nan@@@Z@4HA 000000018002cbb0 f   webgl.obj
 0001:0002bbb0       ?dtor$0@?0??Finish@webgl@@YAXAEBV?$FunctionCallbackInfo@VValue@v8@@@Nan@@@Z@4HA 000000018002cbb0 f   webgl.obj
 0001:0002bbb0       ?dtor$0@?0??TexParameteri@webgl@@YAXAEBV?$FunctionCallbackInfo@VValue@v8@@@Nan@@@Z@4HA 000000018002cbb0 f   webgl.obj
 0001:0002bbb0       ?dtor$0@?0??BlendEquation@webgl@@YAXAEBV?$FunctionCallbackInfo@VValue@v8@@@Nan@@@Z@4HA 000000018002cbb0 f   webgl.obj
 0001:0002bbb0       ?dtor$0@?0??BlendColor@webgl@@YAXAEBV?$FunctionCallbackInfo@VValue@v8@@@Nan@@@Z@4HA 000000018002cbb0 f   webgl.obj
 0001:0002bbb0       ?dtor$0@?0??BindTexture@webgl@@YAXAEBV?$FunctionCallbackInfo@VValue@v8@@@Nan@@@Z@4HA 000000018002cbb0 f   webgl.obj
 0001:0002bbb0       ?dtor$0@?0??Flush@webgl@@YAXAEBV?$FunctionCallbackInfo@VValue@v8@@@Nan@@@Z@4HA 000000018002cbb0 f   webgl.obj
 0001:0002bbb0       ?dtor$0@?0??BindRenderbuffer@webgl@@YAXAEBV?$FunctionCallbackInfo@VValue@v8@@@Nan@@@Z@4HA 000000018002cbb0 f   webgl.obj
 0001:0002bbb0       ?dtor$0@?0??BindFramebuffer@webgl@@YAXAEBV?$FunctionCallbackInfo@VValue@v8@@@Nan@@@Z@4HA 000000018002cbb0 f   webgl.obj
 0001:0002bbb0       ?dtor$0@?0??AttachShader@webgl@@YAXAEBV?$FunctionCallbackInfo@VValue@v8@@@Nan@@@Z@4HA 000000018002cbb0 f   webgl.obj
 0001:0002bbb0       ?dtor$0@?0??Uniform1f@webgl@@YAXAEBV?$FunctionCallbackInfo@VValue@v8@@@Nan@@@Z@4HA 000000018002cbb0 f   webgl.obj
 0001:0002bbb0       ?dtor$0@?0??FramebufferRenderbuffer@webgl@@YAXAEBV?$FunctionCallbackInfo@VValue@v8@@@Nan@@@Z@4HA 000000018002cbb0 f   webgl.obj
 0001:0002bbb0       ?dtor$0@?0??Uniform1fv@webgl@@YAXAEBV?$FunctionCallbackInfo@VValue@v8@@@Nan@@@Z@4HA 000000018002cbb0 f   webgl.obj
 0001:0002bbb0       ?dtor$0@?0??Uniform1i@webgl@@YAXAEBV?$FunctionCallbackInfo@VValue@v8@@@Nan@@@Z@4HA 000000018002cbb0 f   webgl.obj
 0001:0002bbb0       ?dtor$0@?0??ActiveTexture@webgl@@YAXAEBV?$FunctionCallbackInfo@VValue@v8@@@Nan@@@Z@4HA 000000018002cbb0 f   webgl.obj
 0001:0002bbb0       ?dtor$0@?0??Uniform1iv@webgl@@YAXAEBV?$FunctionCallbackInfo@VValue@v8@@@Nan@@@Z@4HA 000000018002cbb0 f   webgl.obj
 0001:0002bbb0       ?dtor$0@?0??Uniform2f@webgl@@YAXAEBV?$FunctionCallbackInfo@VValue@v8@@@Nan@@@Z@4HA 000000018002cbb0 f   webgl.obj
 0001:0002bbb0       ?dtor$0@?0??Uniform2i@webgl@@YAXAEBV?$FunctionCallbackInfo@VValue@v8@@@Nan@@@Z@4HA 000000018002cbb0 f   webgl.obj
 0001:0002bbb0       ?dtor$0@?0??Uniform2iv@webgl@@YAXAEBV?$FunctionCallbackInfo@VValue@v8@@@Nan@@@Z@4HA 000000018002cbb0 f   webgl.obj
 0001:0002bbb0       ?dtor$0@?0??Uniform3f@webgl@@YAXAEBV?$FunctionCallbackInfo@VValue@v8@@@Nan@@@Z@4HA 000000018002cbb0 f   webgl.obj
 0001:0002bbb0       ?dtor$0@?0??Uniform3fv@webgl@@YAXAEBV?$FunctionCallbackInfo@VValue@v8@@@Nan@@@Z@4HA 000000018002cbb0 f   webgl.obj
 0001:0002bbb0       ?dtor$0@?0??FrontFace@webgl@@YAXAEBV?$FunctionCallbackInfo@VValue@v8@@@Nan@@@Z@4HA 000000018002cbb0 f   webgl.obj
 0001:0002bbb0       ?dtor$0@?0??GenerateMipmap@webgl@@YAXAEBV?$FunctionCallbackInfo@VValue@v8@@@Nan@@@Z@4HA 000000018002cbb0 f   webgl.obj
 0001:0002bbb0       ?dtor$0@?0??Uniform3i@webgl@@YAXAEBV?$FunctionCallbackInfo@VValue@v8@@@Nan@@@Z@4HA 000000018002cbb0 f   webgl.obj
 0001:0002bbb0       ?dtor$0@?0??Uniform3iv@webgl@@YAXAEBV?$FunctionCallbackInfo@VValue@v8@@@Nan@@@Z@4HA 000000018002cbb0 f   webgl.obj
 0001:0002bbb0       ?dtor$0@?0??IsRenderbuffer@webgl@@YAXAEBV?$FunctionCallbackInfo@VValue@v8@@@Nan@@@Z@4HA 000000018002cbb0 f   webgl.obj
 0001:0002bbb0       ?dtor$0@?0??Uniform4fv@webgl@@YAXAEBV?$FunctionCallbackInfo@VValue@v8@@@Nan@@@Z@4HA 000000018002cbb0 f   webgl.obj
 0001:0002bbb0       ?dtor$0@?0??Uniform4iv@webgl@@YAXAEBV?$FunctionCallbackInfo@VValue@v8@@@Nan@@@Z@4HA 000000018002cbb0 f   webgl.obj
 0001:0002bbb0       ?dtor$0@?0??UniformMatrix2fv@webgl@@YAXAEBV?$FunctionCallbackInfo@VValue@v8@@@Nan@@@Z@4HA 000000018002cbb0 f   webgl.obj
 0001:0002bbb0       ?dtor$0@?0??UniformMatrix3fv@webgl@@YAXAEBV?$FunctionCallbackInfo@VValue@v8@@@Nan@@@Z@4HA 000000018002cbb0 f   webgl.obj
 0001:0002bbb0       ?dtor$0@?0??UniformMatrix4fv@webgl@@YAXAEBV?$FunctionCallbackInfo@VValue@v8@@@Nan@@@Z@4HA 000000018002cbb0 f   webgl.obj
 0001:0002bbb0       ?dtor$0@?0??UseProgram@webgl@@YAXAEBV?$FunctionCallbackInfo@VValue@v8@@@Nan@@@Z@4HA 000000018002cbb0 f   webgl.obj
 0001:0002bbb0       ?dtor$0@?0??IsProgram@webgl@@YAXAEBV?$FunctionCallbackInfo@VValue@v8@@@Nan@@@Z@4HA 000000018002cbb0 f   webgl.obj
 0001:0002bbb0       ?dtor$0@?0??IsFramebuffer@webgl@@YAXAEBV?$FunctionCallbackInfo@VValue@v8@@@Nan@@@Z@4HA 000000018002cbb0 f   webgl.obj
 0001:0002bbb0       ?dtor$0@?0??ValidateProgram@webgl@@YAXAEBV?$FunctionCallbackInfo@VValue@v8@@@Nan@@@Z@4HA 000000018002cbb0 f   webgl.obj
 0001:0002bbb0       ?dtor$0@?0??VertexAttrib1f@webgl@@YAXAEBV?$FunctionCallbackInfo@VValue@v8@@@Nan@@@Z@4HA 000000018002cbb0 f   webgl.obj
 0001:0002bbb0       ?dtor$0@?0??GetBufferParameter@webgl@@YAXAEBV?$FunctionCallbackInfo@VValue@v8@@@Nan@@@Z@4HA 000000018002cbb0 f   webgl.obj
 0001:0002bbb0       ?dtor$0@?0??GetError@webgl@@YAXAEBV?$FunctionCallbackInfo@VValue@v8@@@Nan@@@Z@4HA 000000018002cbb0 f   webgl.obj
 0001:0002bbb0       ?dtor$0@?0??IsEnabled@webgl@@YAXAEBV?$FunctionCallbackInfo@VValue@v8@@@Nan@@@Z@4HA 000000018002cbb0 f   webgl.obj
 0001:0002bbb0       ?dtor$0@?0??WidthGetter@Image@@KAXV?$Local@VString@v8@@@v8@@AEBV?$PropertyCallbackInfo@VValue@v8@@@Nan@@@Z@4HA 000000018002cbb0 f   image.obj
 0001:0002bbb0       ?dtor$0@?0??VertexAttrib2f@webgl@@YAXAEBV?$FunctionCallbackInfo@VValue@v8@@@Nan@@@Z@4HA 000000018002cbb0 f   webgl.obj
 0001:0002bbb0       ?dtor$0@?0??GetFramebufferAttachmentParameter@webgl@@YAXAEBV?$FunctionCallbackInfo@VValue@v8@@@Nan@@@Z@4HA 000000018002cbb0 f   webgl.obj
 0001:0002bbb0       ?dtor$0@?0??ColorMask@webgl@@YAXAEBV?$FunctionCallbackInfo@VValue@v8@@@Nan@@@Z@4HA 000000018002cbb0 f   webgl.obj
 0001:0002bbb0       ?dtor$0@?0??ClearStencil@webgl@@YAXAEBV?$FunctionCallbackInfo@VValue@v8@@@Nan@@@Z@4HA 000000018002cbb0 f   webgl.obj
 0001:0002bbb0       ?dtor$0@?0??IsBuffer@webgl@@YAXAEBV?$FunctionCallbackInfo@VValue@v8@@@Nan@@@Z@4HA 000000018002cbb0 f   webgl.obj
 0001:0002bbb0       ?dtor$0@?0??Init@webgl@@YAXAEBV?$FunctionCallbackInfo@VValue@v8@@@Nan@@@Z@4HA 000000018002cbb0 f   webgl.obj
 0001:0002bbb0       ?dtor$0@?0??GetProgramParameter@webgl@@YAXAEBV?$FunctionCallbackInfo@VValue@v8@@@Nan@@@Z@4HA 000000018002cbb0 f   webgl.obj
 0001:0002bbb0       ?dtor$0@?0??GetRenderbufferParameter@webgl@@YAXAEBV?$FunctionCallbackInfo@VValue@v8@@@Nan@@@Z@4HA 000000018002cbb0 f   webgl.obj
 0001:0002bbb0       ?dtor$0@?0??Hint@webgl@@YAXAEBV?$FunctionCallbackInfo@VValue@v8@@@Nan@@@Z@4HA 000000018002cbb0 f   webgl.obj
 0001:0002bbb0       ?dtor$0@?0??PitchGetter@Image@@KAXV?$Local@VString@v8@@@v8@@AEBV?$PropertyCallbackInfo@VValue@v8@@@Nan@@@Z@4HA 000000018002cbb0 f   image.obj
 0001:0002bbb0       ?dtor$0@?0??GetVertexAttribOffset@webgl@@YAXAEBV?$FunctionCallbackInfo@VValue@v8@@@Nan@@@Z@4HA 000000018002cbb0 f   webgl.obj
 0001:0002bbb0       ?dtor$0@?0??GetShaderParameter@webgl@@YAXAEBV?$FunctionCallbackInfo@VValue@v8@@@Nan@@@Z@4HA 000000018002cbb0 f   webgl.obj
 0001:0002bbb0       ?dtor$0@?0??New@Image@@KAXAEBV?$FunctionCallbackInfo@VValue@v8@@@Nan@@@Z@4HA 000000018002cbb0 f   image.obj
 0001:0002bbb0       ?dtor$0@?0??ClearDepth@webgl@@YAXAEBV?$FunctionCallbackInfo@VValue@v8@@@Nan@@@Z@4HA 000000018002cbb0 f   webgl.obj
 0001:0002bbb0       ?dtor$0@?0??HeightGetter@Image@@KAXV?$Local@VString@v8@@@v8@@AEBV?$PropertyCallbackInfo@VValue@v8@@@Nan@@@Z@4HA 000000018002cbb0 f   image.obj
 0001:0002bbb0       ?dtor$0@?0??VertexAttrib3f@webgl@@YAXAEBV?$FunctionCallbackInfo@VValue@v8@@@Nan@@@Z@4HA 000000018002cbb0 f   webgl.obj
 0001:0002bbb0       ?dtor$0@?0??GetTexParameter@webgl@@YAXAEBV?$FunctionCallbackInfo@VValue@v8@@@Nan@@@Z@4HA 000000018002cbb0 f   webgl.obj
 0001:0002bbb0       ?dtor$0@?0??Viewport@webgl@@YAXAEBV?$FunctionCallbackInfo@VValue@v8@@@Nan@@@Z@4HA 000000018002cbb0 f   webgl.obj
 0001:0002bbb0       ?dtor$0@?0??BindBuffer@webgl@@YAXAEBV?$FunctionCallbackInfo@VValue@v8@@@Nan@@@Z@4HA 000000018002cbb0 f   webgl.obj
 0001:0002bbb0       ?dtor$0@?0??Uniform2fv@webgl@@YAXAEBV?$FunctionCallbackInfo@VValue@v8@@@Nan@@@Z@4HA 000000018002cbb0 f   webgl.obj
 0001:0002bbc0       ?dtor$0@?0??SrcSetter@Image@@KAXV?$Local@VString@v8@@@v8@@V?$Local@VValue@v8@@@3@AEBV?$PropertyCallbackInfo@X@Nan@@@Z@4HA 000000018002cbc0 f   image.obj
 0001:0002bbcc       ?dtor$1@?0??SrcSetter@Image@@KAXV?$Local@VString@v8@@@v8@@V?$Local@VValue@v8@@@3@AEBV?$PropertyCallbackInfo@X@Nan@@@Z@4HA 000000018002cbcc f   image.obj
 0001:0002bbda       ?dtor$2@?0??SrcSetter@Image@@KAXV?$Local@VString@v8@@@v8@@V?$Local@VValue@v8@@@3@AEBV?$PropertyCallbackInfo@X@Nan@@@Z@4HA 000000018002cbda f   image.obj
 0001:0002bbf0       ?dtor$0@?0??save@Image@@KAXAEBV?$FunctionCallbackInfo@VValue@v8@@@Nan@@@Z@4HA 000000018002cbf0 f   image.obj
 0001:0002bbfc       ?dtor$1@?0??save@Image@@KAXAEBV?$FunctionCallbackInfo@VValue@v8@@@Nan@@@Z@4HA 000000018002cbfc f   image.obj
 0001:0002bc10       ?dtor$0@?0??BindAttribLocation@webgl@@YAXAEBV?$FunctionCallbackInfo@VValue@v8@@@Nan@@@Z@4HA 000000018002cc10 f   webgl.obj
 0001:0002bc10       ?dtor$0@?0??GetUniformLocation@webgl@@YAXAEBV?$FunctionCallbackInfo@VValue@v8@@@Nan@@@Z@4HA 000000018002cc10 f   webgl.obj
 0001:0002bc10       ?dtor$0@?0??ShaderSource@webgl@@YAXAEBV?$FunctionCallbackInfo@VValue@v8@@@Nan@@@Z@4HA 000000018002cc10 f   webgl.obj
 0001:0002bc10       ?dtor$0@?0??GetAttribLocation@webgl@@YAXAEBV?$FunctionCallbackInfo@VValue@v8@@@Nan@@@Z@4HA 000000018002cc10 f   webgl.obj
 0001:0002bc1c       ?dtor$1@?0??GetAttribLocation@webgl@@YAXAEBV?$FunctionCallbackInfo@VValue@v8@@@Nan@@@Z@4HA 000000018002cc1c f   webgl.obj
 0001:0002bc1c       ?dtor$1@?0??ShaderSource@webgl@@YAXAEBV?$FunctionCallbackInfo@VValue@v8@@@Nan@@@Z@4HA 000000018002cc1c f   webgl.obj
 0001:0002bc1c       ?dtor$1@?0??GetUniformLocation@webgl@@YAXAEBV?$FunctionCallbackInfo@VValue@v8@@@Nan@@@Z@4HA 000000018002cc1c f   webgl.obj
 0001:0002bc1c       ?dtor$1@?0??BindAttribLocation@webgl@@YAXAEBV?$FunctionCallbackInfo@VValue@v8@@@Nan@@@Z@4HA 000000018002cc1c f   webgl.obj
 0001:0002bc30       ?dtor$0@?0??GetProgramInfoLog@webgl@@YAXAEBV?$FunctionCallbackInfo@VValue@v8@@@Nan@@@Z@4HA 000000018002cc30 f   webgl.obj
 0001:0002bc30       ?dtor$0@?0??CopyTexSubImage2D@webgl@@YAXAEBV?$FunctionCallbackInfo@VValue@v8@@@Nan@@@Z@4HA 000000018002cc30 f   webgl.obj
 0001:0002bc30       ?dtor$0@?0??GetAttachedShaders@webgl@@YAXAEBV?$FunctionCallbackInfo@VValue@v8@@@Nan@@@Z@4HA 000000018002cc30 f   webgl.obj
 0001:0002bc30       ?dtor$0@?0??ReadPixels@webgl@@YAXAEBV?$FunctionCallbackInfo@VValue@v8@@@Nan@@@Z@4HA 000000018002cc30 f   webgl.obj
 0001:0002bc30       ?dtor$0@?0??CopyTexImage2D@webgl@@YAXAEBV?$FunctionCallbackInfo@VValue@v8@@@Nan@@@Z@4HA 000000018002cc30 f   webgl.obj
 0001:0002bc30       ?dtor$0@?0??GetShaderInfoLog@webgl@@YAXAEBV?$FunctionCallbackInfo@VValue@v8@@@Nan@@@Z@4HA 000000018002cc30 f   webgl.obj
 0001:0002bc40       ?dtor$0@?0??GetActiveUniform@webgl@@YAXAEBV?$FunctionCallbackInfo@VValue@v8@@@Nan@@@Z@4HA 000000018002cc40 f   webgl.obj
 0001:0002bc40       ?dtor$0@?0??GetActiveAttrib@webgl@@YAXAEBV?$FunctionCallbackInfo@VValue@v8@@@Nan@@@Z@4HA 000000018002cc40 f   webgl.obj
 0001:0002bc50       ?dtor$0@?0??GetExtension@webgl@@YAXAEBV?$FunctionCallbackInfo@VValue@v8@@@Nan@@@Z@4HA 000000018002cc50 f   webgl.obj
 0001:0002bc5c       ?dtor$1@?0??GetExtension@webgl@@YAXAEBV?$FunctionCallbackInfo@VValue@v8@@@Nan@@@Z@4HA 000000018002cc5c f   webgl.obj
 0001:0002bc6a       __scrt_is_nonwritable_in_current_image$filt$0 000000018002cc6a f   LIBCMT:utility.obj
 0001:0002bc82       ?fin$0@?0??dllmain_crt_process_attach@@YAHQEAUHINSTANCE__@@QEAX@Z@4HA 000000018002cc82 f   LIBCMT:dll_dllmain.obj
 0001:0002bc99       ?fin$0@?0??dllmain_crt_process_detach@@YAH_N@Z@4HA 000000018002cc99 f   LIBCMT:dll_dllmain.obj
 0001:0002bcb5       ?filt$0@?0??dllmain_dispatch@@YAHQEAUHINSTANCE__@@KQEAX@Z@4HA 000000018002ccb5 f   LIBCMT:dll_dllmain.obj
 0001:0002bceb       __CxxCallCatchBlock$filt$0 000000018002cceb f   libvcruntime:frame.obj
 0001:0002bd10       __CxxCallCatchBlock$fin$1  000000018002cd10 f   libvcruntime:frame.obj
 0001:0002bd88       __DestructExceptionObject$filt$0 000000018002cd88 f   libvcruntime:frame.obj
 0001:0002bda0       __FrameUnwindToState$filt$0 000000018002cda0 f   libvcruntime:frame.obj
 0001:0002bdb6       __FrameUnwindToState$fin$1 000000018002cdb6 f   libvcruntime:frame.obj
 0001:0002bdd9       _CallSETranslator$filt$0   000000018002cdd9 f   libvcruntime:trnsctrl.obj
 0001:0002be25       ?fin$0@?0???$?RV<lambda_7a5ef57ff966f610505f1d28a3d40618>@@AEAV<lambda_b721fa326cdb32351d23dfa67958c160>@@V<lambda_5e0fb27672408a07956fe59e48ccb2aa>@@@?$__crt_seh_guarded_call@H@@QEAAH$$QEAV<lambda_7a5ef57ff966f610505f1d28a3d40618>@@AEAV<lambda_b721fa326cdb32351d23dfa67958c160>@@$$QEAV<lambda_5e0fb27672408a07956fe59e48ccb2aa>@@@Z@4HA 000000018002ce25 f   libucrt:setvbuf.obj
 0001:0002be25       ?fin$0@?0???$?RV<lambda_aa279a7bcb127014629d5b1d62c7325d>@@AEAV<lambda_0a64b6a4deda75c01876f29c44fc5eb3>@@V<lambda_3323e69fbefe9d1a11713e670d47cdfa>@@@?$__crt_seh_guarded_call@H@@QEAAH$$QEAV<lambda_aa279a7bcb127014629d5b1d62c7325d>@@AEAV<lambda_0a64b6a4deda75c01876f29c44fc5eb3>@@$$QEAV<lambda_3323e69fbefe9d1a11713e670d47cdfa>@@@Z@4HA 000000018002ce25 f   libucrt:output.obj
 0001:0002be25       ?fin$0@?0???$?RV<lambda_7b91131dde12e1c3dfc74ff76b3f2eac>@@AEAV<lambda_dd75445284c072d0bd3768540cc698fa>@@V<lambda_16bc4ecb55b4718497c16bceaea2ceaf>@@@?$__crt_seh_guarded_call@H@@QEAAH$$QEAV<lambda_7b91131dde12e1c3dfc74ff76b3f2eac>@@AEAV<lambda_dd75445284c072d0bd3768540cc698fa>@@$$QEAV<lambda_16bc4ecb55b4718497c16bceaea2ceaf>@@@Z@4HA 000000018002ce25 f   libucrt:output.obj
 0001:0002be40       ?filt$0@?0??common_exit@@YAXHW4_crt_exit_cleanup_mode@@W4_crt_exit_return_mode@@@Z@4HA 000000018002ce40 f   libucrt:exit.obj
 0001:0002be5b       ?fin$1@?0??common_exit@@YAXHW4_crt_exit_cleanup_mode@@W4_crt_exit_return_mode@@@Z@4HA 000000018002ce5b f   libucrt:exit.obj
 0001:0002be74       ?fin$0@?0???$?RV<lambda_e24bbb7b643b32fcea6fa61b31d4c984>@@AEAV<lambda_275893d493268fdec8709772e3fcec0e>@@V<lambda_9d71df4d7cf3f480f8d633942495c3b0>@@@?$__crt_seh_guarded_call@H@@QEAAH$$QEAV<lambda_e24bbb7b643b32fcea6fa61b31d4c984>@@AEAV<lambda_275893d493268fdec8709772e3fcec0e>@@$$QEAV<lambda_9d71df4d7cf3f480f8d633942495c3b0>@@@Z@4HA 000000018002ce74 f   libucrt:onexit.obj
 0001:0002be91       _query_new_handler$fin$0   000000018002ce91 f   libucrt:new_handler.obj
 0001:0002bea7       common_flush_all$fin$0     000000018002cea7 f   libucrt:fflush.obj
 0001:0002bec1       common_flush_all$fin$1     000000018002cec1 f   libucrt:fflush.obj
 0001:0002beda       raise$fin$0                000000018002ceda f   libucrt:signal.obj
 0001:0002befe       ?fin$0@?0???$?RV<lambda_c36588078e9f5dfd39652860aa6b3aaf>@@AEAV<lambda_ec61778202f4f5fc7e7711acc23c3bca>@@V<lambda_dc9d2797ccde5d239b4a0efae8ebd7db>@@@?$__crt_seh_guarded_call@P6AXH@Z@@QEAAP6AXH@Z$$QEAV<lambda_c36588078e9f5dfd39652860aa6b3aaf>@@AEAV<lambda_ec61778202f4f5fc7e7711acc23c3bca>@@$$QEAV<lambda_dc9d2797ccde5d239b4a0efae8ebd7db>@@@Z@4HA 000000018002cefe f   libucrt:signal.obj
 0001:0002befe       ?fin$0@?0???$?RV<lambda_72d1df2b273a38828b1ce30cbf4cdab5>@@AEAV<lambda_876a65b173b8412d3a47c70a915b0cf4>@@V<lambda_41932305e351933ebe8f8be3ed8bb5dc>@@@?$__crt_seh_guarded_call@X@@QEAAX$$QEAV<lambda_72d1df2b273a38828b1ce30cbf4cdab5>@@AEAV<lambda_876a65b173b8412d3a47c70a915b0cf4>@@$$QEAV<lambda_41932305e351933ebe8f8be3ed8bb5dc>@@@Z@4HA 000000018002cefe f   libucrt:per_thread_data.obj
 0001:0002befe       ?fin$0@?0???$?RV<lambda_46352004c1216016012b18bd6f87e700>@@AEAV<lambda_3bd07e1a1191394380780325891bf33f>@@V<lambda_334532d3f185bcaa59b5be82d7d22bff>@@@?$__crt_seh_guarded_call@X@@QEAAX$$QEAV<lambda_46352004c1216016012b18bd6f87e700>@@AEAV<lambda_3bd07e1a1191394380780325891bf33f>@@$$QEAV<lambda_334532d3f185bcaa59b5be82d7d22bff>@@@Z@4HA 000000018002cefe f   libucrt:per_thread_data.obj
 0001:0002befe       ?fin$0@?0???$?RV<lambda_b8c45f8f788dd370798f47cfe8ac3a86>@@AEAV<lambda_4e60a939b0d047cfe11ddc22648dfba9>@@V<lambda_332c3edc96d0294ec56c57d38c1cdfd5>@@@?$__crt_seh_guarded_call@H@@QEAAH$$QEAV<lambda_b8c45f8f788dd370798f47cfe8ac3a86>@@AEAV<lambda_4e60a939b0d047cfe11ddc22648dfba9>@@$$QEAV<lambda_332c3edc96d0294ec56c57d38c1cdfd5>@@@Z@4HA 000000018002cefe f   libucrt:onexit.obj
 0001:0002befe       ?fin$0@?0???$?RV<lambda_99476a1ad63dd22509b5d3e65b0ffc95>@@AEAV<lambda_ad1ced32f4ac17aa236e5ef05d6b3b7c>@@V<lambda_f7424dd8d45958661754dc4f2697e9c3>@@@?$__crt_seh_guarded_call@X@@QEAAX$$QEAV<lambda_99476a1ad63dd22509b5d3e65b0ffc95>@@AEAV<lambda_ad1ced32f4ac17aa236e5ef05d6b3b7c>@@$$QEAV<lambda_f7424dd8d45958661754dc4f2697e9c3>@@@Z@4HA 000000018002cefe f   libucrt:mbctype.obj
 0001:0002befe       ?fin$0@?0???$?RV<lambda_5e887d1dcbef67a5eb4283622ba103bf>@@AEAV<lambda_4466841279450cc726390878d4a41900>@@V<lambda_341c25c0346d94847f1f3c463c57e077>@@@?$__crt_seh_guarded_call@X@@QEAAX$$QEAV<lambda_5e887d1dcbef67a5eb4283622ba103bf>@@AEAV<lambda_4466841279450cc726390878d4a41900>@@$$QEAV<lambda_341c25c0346d94847f1f3c463c57e077>@@@Z@4HA 000000018002cefe f   libucrt:per_thread_data.obj
 0001:0002befe       ?fin$0@?0???$?RV<lambda_fb3a7dec4e47f37f22dae91bb15c9095>@@AEAV<lambda_698284760c8add0bfb0756c19673e34b>@@V<lambda_dfb8eca1e75fef3034a8fb18dd509707>@@@?$__crt_seh_guarded_call@X@@QEAAX$$QEAV<lambda_fb3a7dec4e47f37f22dae91bb15c9095>@@AEAV<lambda_698284760c8add0bfb0756c19673e34b>@@$$QEAV<lambda_dfb8eca1e75fef3034a8fb18dd509707>@@@Z@4HA 000000018002cefe f   libucrt:per_thread_data.obj
 0001:0002bf18       _fcloseall$fin$0           000000018002cf18 f   libucrt:closeall.obj
 0001:0002bf31       __acrt_lowio_ensure_fh_exists$fin$0 000000018002cf31 f   libucrt:osfinfo.obj
 0001:0002bf31       __acrt_initialize_lowio$fin$0 000000018002cf31 f   libucrt:ioinit.obj
 0001:0002bf4a       __acrt_uninitialize_locale$fin$0 000000018002cf4a f   libucrt:wsetlocale.obj
 0001:0002bf4a       __acrt_update_thread_locale_data$fin$0 000000018002cf4a f   libucrt:locale_refcounting.obj
 0001:0002bf63       __acrt_update_thread_multibyte_data$fin$0 000000018002cf63 f   libucrt:mbctype.obj
 0001:0002bf7c       ?fin$0@?0???$common_lseek@_J@@YA_JH_JH@Z@4HA 000000018002cf7c f   libucrt:lseek.obj
 0001:0002bf7c       _write$fin$0               000000018002cf7c f   libucrt:write.obj
 0001:0002bf93       fflush$fin$0               000000018002cf93 f   libucrt:fflush.obj
 0001:0002bf93       fclose$fin$0               000000018002cf93 f   libucrt:fclose.obj
 0001:0002bfab       ?fin$0@?0???$?RV<lambda_bfedae4ebbf01fab1bb6dcc6a9e276e0>@@AEAV<lambda_2fe9b910cf3cbf4a0ab98a02ba45b3ec>@@V<lambda_237c231691f317818eb88cc1d5d642d6>@@@?$__crt_seh_guarded_call@H@@QEAAH$$QEAV<lambda_bfedae4ebbf01fab1bb6dcc6a9e276e0>@@AEAV<lambda_2fe9b910cf3cbf4a0ab98a02ba45b3ec>@@$$QEAV<lambda_237c231691f317818eb88cc1d5d642d6>@@@Z@4HA 000000018002cfab f   libucrt:close.obj
 0001:0002bfab       ?fin$0@?0???$?RV<lambda_b521505b218e5242e90febf6bfebc422>@@AEAV<lambda_6978c1fb23f02e42e1d9e99668cc68aa>@@V<lambda_314360699dd331753a4119843814e9a7>@@@?$__crt_seh_guarded_call@H@@QEAAH$$QEAV<lambda_b521505b218e5242e90febf6bfebc422>@@AEAV<lambda_6978c1fb23f02e42e1d9e99668cc68aa>@@$$QEAV<lambda_314360699dd331753a4119843814e9a7>@@@Z@4HA 000000018002cfab f   libucrt:commit.obj
 0001:0002bfc5       _ctrlfp$filt$0             000000018002cfc5 f   libucrt:fpctrl.obj
 0001:0002bfc5       common_control87$filt$0    000000018002cfc5 f   libucrt:ieee.obj
 0001:0002c000       _IsNonwritableInCurrentImage$filt$0 000000018002d000 f   LIBCMT:pesect.obj
 0001:0002c020       ??__Fimages@@YAXXZ         000000018002d020 f   image.obj
 0001:0002c070       ??__F?constructor_template@Image@@0V?$Persistent@VFunction@v8@@V?$NonCopyablePersistentTraits@VFunction@v8@@@2@@v8@@A@@YAXXZ 000000018002d070 f   image.obj
 0001:0002c090       ??__Fglobjs@webgl@@YAXXZ   000000018002d090 f   webgl.obj
 0002:00000738       ?images$initializer$@@3P6AXXZEA 000000018002e738     image.obj
 0002:00000740       ??constructor_template$initializer$@Image@@0P6AXXZEA@@3P6AXXZEA 000000018002e740     image.obj
 0002:00000748       ?globjs$initializer$@webgl@@3P6AXXZEA 000000018002e748     webgl.obj
 0002:00000870       GS_ExceptionPointers       000000018002e870     LIBCMT:gs_report.obj
 0002:000008e0       ?ExceptionTemplate@?1??_CxxThrowException@@9@4UEHExceptionRecord@@B 000000018002e8e0     libvcruntime:throw.obj
 0002:00000920       ?ExceptionTemplate@?1??_UnwindNestedFrames@@9@4U_EXCEPTION_RECORD@@B 000000018002e920     libvcruntime:trnsctrl.obj
 0002:000009b8       ?module_names@?A0x679b24ab@@3QBQEB_WB 000000018002e9b8     libvcruntime:winapi_downlevel.obj
 0002:00000a88       ?candidate_modules@?1??try_get_FlsAlloc@@YAP6AKP6AXPEAX@Z@ZXZ@4QBW4module_id@?A0x679b24ab@@B 000000018002ea88     libvcruntime:winapi_downlevel.obj
 0002:00000aa0       ?candidate_modules@?1??try_get_FlsFree@@YAP6AHK@ZXZ@4QBW4module_id@?A0x679b24ab@@B 000000018002eaa0     libvcruntime:winapi_downlevel.obj
 0002:00000ab0       ?candidate_modules@?1??try_get_FlsGetValue@@YAP6APEAXK@ZXZ@4QBW4module_id@?A0x679b24ab@@B 000000018002eab0     libvcruntime:winapi_downlevel.obj
 0002:00000ac8       ?candidate_modules@?1??try_get_FlsSetValue@@YAP6AHKPEAX@ZXZ@4QBW4module_id@?A0x679b24ab@@B 000000018002eac8     libvcruntime:winapi_downlevel.obj
 0002:00000ae0       ?candidate_modules@?1??try_get_InitializeCriticalSectionEx@@YAP6AHPEAU_RTL_CRITICAL_SECTION@@KK@ZXZ@4QBW4module_id@?A0x679b24ab@@B 000000018002eae0     libvcruntime:winapi_downlevel.obj
 0002:00000b10       ?tokenTable@@3QBQEBDB      000000018002eb10     libvcruntime:undname.obj
 0002:00000b80       ?nameTable@@3QBQEBDB       000000018002eb80     libvcruntime:undname.obj
 0002:00000e08       ?rttiTable@@3QBQEBDB       000000018002ee08     libvcruntime:undname.obj
 0002:000018f0       __acrt_initializers        000000018002f8f0     libucrt:initialization.obj
 0002:000019e0       errtable                   000000018002f9e0     libucrt:errno.obj
 0002:00001b50       module_names               000000018002fb50     libucrt:winapi_thunks.obj
 0002:00002080       ?candidate_modules@?1??try_get_FlsAlloc@@YAP6AKP6AXPEAX@Z@ZXZ@4QBW4module_id@?A0x63058377@@B 0000000180030080     libucrt:winapi_thunks.obj
 0002:00002088       ?candidate_modules@?1??try_get_FlsFree@@YAP6AHK@ZXZ@4QBW4module_id@?A0x63058377@@B 0000000180030088     libucrt:winapi_thunks.obj
 0002:00002090       ?candidate_modules@?1??try_get_FlsGetValue@@YAP6APEAXK@ZXZ@4QBW4module_id@?A0x63058377@@B 0000000180030090     libucrt:winapi_thunks.obj
 0002:00002098       ?candidate_modules@?1??try_get_FlsSetValue@@YAP6AHKPEAX@ZXZ@4QBW4module_id@?A0x63058377@@B 0000000180030098     libucrt:winapi_thunks.obj
 0002:000020a0       ?candidate_modules@?1??try_get_GetActiveWindow@@YAP6APEAUHWND__@@XZXZ@4QBW4module_id@?A0x63058377@@B 00000001800300a0     libucrt:winapi_thunks.obj
 0002:000020b8       ?candidate_modules@?1??try_get_GetCurrentPackageId@@YAP6AJPEAIPEAE@ZXZ@4QBW4module_id@?A0x63058377@@B 00000001800300b8     libucrt:winapi_thunks.obj
 0002:000020d8       ?candidate_modules@?1??try_get_GetLastActivePopup@@YAP6APEAUHWND__@@PEAU2@@ZXZ@4QBW4module_id@?A0x63058377@@B 00000001800300d8     libucrt:winapi_thunks.obj
 0002:000020f8       ?candidate_modules@?1??try_get_GetProcessWindowStation@@YAP6APEAUHWINSTA__@@XZXZ@4QBW4module_id@?A0x63058377@@B 00000001800300f8     libucrt:winapi_thunks.obj
 0002:00002118       ?candidate_modules@?1??try_get_GetUserObjectInformationW@@YAP6AHPEAXH0KPEAK@ZXZ@4QBW4module_id@?A0x63058377@@B 0000000180030118     libucrt:winapi_thunks.obj
 0002:00002140       ?candidate_modules@?1??try_get_InitializeCriticalSectionEx@@YAP6AHPEAU_RTL_CRITICAL_SECTION@@KK@ZXZ@4QBW4module_id@?A0x63058377@@B 0000000180030140     libucrt:winapi_thunks.obj
 0002:00002148       ?candidate_modules@?1??try_get_LCMapStringEx@@YAP6AHPEB_WK0HPEA_WHPEAU_nlsversioninfo@@PEAX_J@ZXZ@4QBW4module_id@?A0x63058377@@B 0000000180030148     libucrt:winapi_thunks.obj
 0002:00002160       ?candidate_modules@?1??try_get_LocaleNameToLCID@@YAP6AKPEB_WK@ZXZ@4QBW4module_id@?A0x63058377@@B 0000000180030160     libucrt:winapi_thunks.obj
 0002:00002180       ?candidate_modules@?1??try_get_MessageBoxA@@YAP6AHPEAUHWND__@@PEBD1I@ZXZ@4QBW4module_id@?A0x63058377@@B 0000000180030180     libucrt:winapi_thunks.obj
 0002:00002198       ?candidate_modules@?1??try_get_MessageBoxW@@YAP6AHPEAUHWND__@@PEB_W1I@ZXZ@4QBW4module_id@?A0x63058377@@B 0000000180030198     libucrt:winapi_thunks.obj
 0002:00002890       _mb_locale_names           0000000180030890     libucrt:mbctype.obj
 0002:00003100       LcidToLocaleNameTable      0000000180031100     libucrt:lcidtoname_downlevel.obj
 0002:00004b60       LocaleNameToIndexTable     0000000180032b60     libucrt:lcidtoname_downlevel.obj
 0002:00006e00       __real_ninf                0000000180034e00     libucrt:log10.obj
 0002:00006e10       __real_inf                 0000000180034e10     libucrt:log10.obj
 0002:00006e20       __real_neg_qnan            0000000180034e20     libucrt:log10.obj
 0002:00006e30       __real_qnanbit             0000000180034e30     libucrt:log10.obj
 0002:00006e40       __int_1023                 0000000180034e40     libucrt:log10.obj
 0002:00006e50       __mask_001                 0000000180034e50     libucrt:log10.obj
 0002:00006e60       __mask_mant                0000000180034e60     libucrt:log10.obj
 0002:00006e70       __mask_mant_top8           0000000180034e70     libucrt:log10.obj
 0002:00006e80       __mask_mant9               0000000180034e80     libucrt:log10.obj
 0002:00006e90       __real_log10_e             0000000180034e90     libucrt:log10.obj
 0002:00006ea0       __real_log10_e_lead        0000000180034ea0     libucrt:log10.obj
 0002:00006eb0       __real_log10_e_tail        0000000180034eb0     libucrt:log10.obj
 0002:00006ec0       __real_log10_2_lead        0000000180034ec0     libucrt:log10.obj
 0002:00006ed0       __real_log10_2_tail        0000000180034ed0     libucrt:log10.obj
 0002:00006ee0       __real_two                 0000000180034ee0     libucrt:log10.obj
 0002:00006ef0       __real_one                 0000000180034ef0     libucrt:log10.obj
 0002:00006f00       __real_half                0000000180034f00     libucrt:log10.obj
 0002:00006f10       __mask_100                 0000000180034f10     libucrt:log10.obj
 0002:00006f20       __real_1_over_512          0000000180034f20     libucrt:log10.obj
 0002:00006f30       __real_1_over_2            0000000180034f30     libucrt:log10.obj
 0002:00006f40       __real_1_over_3            0000000180034f40     libucrt:log10.obj
 0002:00006f50       __real_1_over_4            0000000180034f50     libucrt:log10.obj
 0002:00006f60       __real_1_over_5            0000000180034f60     libucrt:log10.obj
 0002:00006f70       __real_1_over_6            0000000180034f70     libucrt:log10.obj
 0002:00006f80       __real_neg_1023            0000000180034f80     libucrt:log10.obj
 0002:00006f90       __mask_2045                0000000180034f90     libucrt:log10.obj
 0002:00006fa0       __real_threshold           0000000180034fa0     libucrt:log10.obj
 0002:00006fb0       __real_near_one_lt         0000000180034fb0     libucrt:log10.obj
 0002:00006fc0       __real_near_one_gt         0000000180034fc0     libucrt:log10.obj
 0002:00006fd0       __real_min_norm            0000000180034fd0     libucrt:log10.obj
 0002:00006fe0       __real_notsign             0000000180034fe0     libucrt:log10.obj
 0002:00006ff0       __real_ca1                 0000000180034ff0     libucrt:log10.obj
 0002:00007000       __real_ca2                 0000000180035000     libucrt:log10.obj
 0002:00007010       __real_ca3                 0000000180035010     libucrt:log10.obj
 0002:00007020       __real_ca4                 0000000180035020     libucrt:log10.obj
 0002:00007030       __mask_lower               0000000180035030     libucrt:log10.obj
 0002:00007040       __flag_x_zero              0000000180035040     libucrt:log10.obj
 0002:00007044       __flag_x_neg               0000000180035044     libucrt:log10.obj
 0002:00007048       __flag_x_nan               0000000180035048     libucrt:log10.obj
 0002:000088a0       __real@433fffffffffffff    00000001800368a0     libucrt:fpsr.obj
 0002:000088a8       __real@c33fffffffffffff    00000001800368a8     libucrt:fpsr.obj
 0002:0000b050       $cppxdata$??$SetMethod@VObject@v8@@VLocal@2@@Nan@@YAXV?$Local@VObject@v8@@@v8@@PEBDP6AXAEBV?$FunctionCallbackInfo@VValue@v8@@@0@@Z@Z 0000000180039050     bindings.obj
 0002:0000b078       $cppxdata$?New@?$Factory@VFunctionTemplate@v8@@@imp@Nan@@SA?AV?$Local@VFunctionTemplate@v8@@@v8@@P6AXAEBV?$FunctionCallbackInfo@VValue@v8@@@3@@ZV?$Local@VValue@v8@@@5@V?$Local@VSignature@v8@@@5@@Z 0000000180039078     bindings.obj
 0002:0000b0a0       $cppxdata$?convert@?$ToFactory@VInteger@v8@@@imp@Nan@@SA?AV?$MaybeLocal@VInteger@v8@@@v8@@V?$Local@VValue@v8@@@5@@Z 00000001800390a0     bindings.obj
 0002:0000b0c8       $cppxdata$?ForceSet@Nan@@YA?AV?$Maybe@_N@v8@@V?$Local@VObject@v8@@@3@V?$Local@VValue@v8@@@3@1W4PropertyAttribute@3@@Z 00000001800390c8     bindings.obj
 0002:0000b0f0       $cppxdata$?GetFunction@Nan@@YA?AV?$MaybeLocal@VFunction@v8@@@v8@@V?$Local@VFunctionTemplate@v8@@@3@@Z 00000001800390f0     bindings.obj
 0002:0000b118       $cppxdata$?NewInstance@Nan@@YA?AV?$MaybeLocal@VObject@v8@@@v8@@V?$Local@VObjectTemplate@v8@@@3@@Z 0000000180039118     bindings.obj
 0002:0000b140       $cppxdata$?save@Image@@KAXAEBV?$FunctionCallbackInfo@VValue@v8@@@Nan@@@Z 0000000180039140     image.obj
 0002:0000b168       $cppxdata$?SrcSetter@Image@@KAXV?$Local@VString@v8@@@v8@@V?$Local@VValue@v8@@@3@AEBV?$PropertyCallbackInfo@X@Nan@@@Z 0000000180039168     image.obj
 0002:0000b190       $cppxdata$?SrcGetter@Image@@KAXV?$Local@VString@v8@@@v8@@AEBV?$PropertyCallbackInfo@VValue@v8@@@Nan@@@Z 0000000180039190     image.obj
 0002:0000b1b8       $cppxdata$?PitchGetter@Image@@KAXV?$Local@VString@v8@@@v8@@AEBV?$PropertyCallbackInfo@VValue@v8@@@Nan@@@Z 00000001800391b8     image.obj
 0002:0000b1e0       $cppxdata$?HeightGetter@Image@@KAXV?$Local@VString@v8@@@v8@@AEBV?$PropertyCallbackInfo@VValue@v8@@@Nan@@@Z 00000001800391e0     image.obj
 0002:0000b208       $cppxdata$?WidthGetter@Image@@KAXV?$Local@VString@v8@@@v8@@AEBV?$PropertyCallbackInfo@VValue@v8@@@Nan@@@Z 0000000180039208     image.obj
 0002:0000b230       $cppxdata$?New@Image@@KAXAEBV?$FunctionCallbackInfo@VValue@v8@@@Nan@@@Z 0000000180039230     image.obj
 0002:0000b258       $cppxdata$??__F?constructor_template@Image@@0V?$Persistent@VFunction@v8@@V?$NonCopyablePersistentTraits@VFunction@v8@@@2@@v8@@A@@YAXXZ 0000000180039258     image.obj
 0002:0000b280       $cppxdata$?SetAccessor@Nan@@YAXV?$Local@VObjectTemplate@v8@@@v8@@V?$Local@VString@v8@@@3@P6AX1AEBV?$PropertyCallbackInfo@VValue@v8@@@1@@ZP6AX1V?$Local@VValue@v8@@@3@AEBV?$PropertyCallbackInfo@X@1@@Z4W4AccessControl@3@W4PropertyAttribute@3@V?$Local@VAccessorSignature@v8@@@3@@Z 0000000180039280     image.obj
 0002:0000b2a8       $cppxdata$?SetPrototypeMethod@Nan@@YAXV?$Local@VFunctionTemplate@v8@@@v8@@PEBDP6AXAEBV?$FunctionCallbackInfo@VValue@v8@@@1@@Z@Z 00000001800392a8     image.obj
 0002:0000b2d0       $cppxdata$?Get@Nan@@YA?AV?$MaybeLocal@VValue@v8@@@v8@@V?$Local@VObject@v8@@@3@V?$Local@VValue@v8@@@3@@Z 00000001800392d0     image.obj
 0002:0000b2f8       $cppxdata$?Set@Nan@@YA?AV?$Maybe@_N@v8@@V?$Local@VObject@v8@@@3@V?$Local@VValue@v8@@@3@1@Z 00000001800392f8     image.obj
 0002:0000b320       $cppxdata$??1ObjectWrap@node@@UEAA@XZ 0000000180039320     image.obj
 0002:0000b348       $cppxdata$?Initialize@Image@@SAXV?$Local@VObject@v8@@@v8@@@Z 0000000180039348     image.obj
 0002:0000b370       $cppxdata$?ThrowTypeError@Nan@@YAXPEBD@Z 0000000180039370     webgl.obj
 0002:0000b398       $cppxdata$?ThrowError@Nan@@YAXPEBD@Z 0000000180039398     webgl.obj
 0002:0000b3c0       $cppxdata$?BlendEquation@webgl@@YAXAEBV?$FunctionCallbackInfo@VValue@v8@@@Nan@@@Z 00000001800393c0     webgl.obj
 0002:0000b3e8       $cppxdata$?AttachShader@webgl@@YAXAEBV?$FunctionCallbackInfo@VValue@v8@@@Nan@@@Z 00000001800393e8     webgl.obj
 0002:0000b410       $cppxdata$?GetShaderInfoLog@webgl@@YAXAEBV?$FunctionCallbackInfo@VValue@v8@@@Nan@@@Z 0000000180039410     webgl.obj
 0002:0000b438       $cppxdata$?GetRenderbufferParameter@webgl@@YAXAEBV?$FunctionCallbackInfo@VValue@v8@@@Nan@@@Z 0000000180039438     webgl.obj
 0002:0000b460       $cppxdata$?UniformMatrix2fv@webgl@@YAXAEBV?$FunctionCallbackInfo@VValue@v8@@@Nan@@@Z 0000000180039460     webgl.obj
 0002:0000b488       $cppxdata$?DepthRange@webgl@@YAXAEBV?$FunctionCallbackInfo@VValue@v8@@@Nan@@@Z 0000000180039488     webgl.obj
 0002:0000b4b0       $cppxdata$?UniformMatrix3fv@webgl@@YAXAEBV?$FunctionCallbackInfo@VValue@v8@@@Nan@@@Z 00000001800394b0     webgl.obj
 0002:0000b4d8       $cppxdata$?Flush@webgl@@YAXAEBV?$FunctionCallbackInfo@VValue@v8@@@Nan@@@Z 00000001800394d8     webgl.obj
 0002:0000b500       $cppxdata$?TexImage2D@webgl@@YAXAEBV?$FunctionCallbackInfo@VValue@v8@@@Nan@@@Z 0000000180039500     webgl.obj
 0002:0000b528       $cppxdata$?Uniform1iv@webgl@@YAXAEBV?$FunctionCallbackInfo@VValue@v8@@@Nan@@@Z 0000000180039528     webgl.obj
 0002:0000b550       $cppxdata$?ShaderSource@webgl@@YAXAEBV?$FunctionCallbackInfo@VValue@v8@@@Nan@@@Z 0000000180039550     webgl.obj
 0002:0000b578       $cppxdata$?Uniform4iv@webgl@@YAXAEBV?$FunctionCallbackInfo@VValue@v8@@@Nan@@@Z 0000000180039578     webgl.obj
 0002:0000b5a0       $cppxdata$?ClearStencil@webgl@@YAXAEBV?$FunctionCallbackInfo@VValue@v8@@@Nan@@@Z 00000001800395a0     webgl.obj
 0002:0000b5c8       $cppxdata$?IsTexture@webgl@@YAXAEBV?$FunctionCallbackInfo@VValue@v8@@@Nan@@@Z 00000001800395c8     webgl.obj
 0002:0000b5f0       $cppxdata$?UniformMatrix4fv@webgl@@YAXAEBV?$FunctionCallbackInfo@VValue@v8@@@Nan@@@Z 00000001800395f0     webgl.obj
 0002:0000b618       $cppxdata$?GetFramebufferAttachmentParameter@webgl@@YAXAEBV?$FunctionCallbackInfo@VValue@v8@@@Nan@@@Z 0000000180039618     webgl.obj
 0002:0000b640       $cppxdata$?BlendFunc@webgl@@YAXAEBV?$FunctionCallbackInfo@VValue@v8@@@Nan@@@Z 0000000180039640     webgl.obj
 0002:0000b668       $cppxdata$?RenderbufferStorage@webgl@@YAXAEBV?$FunctionCallbackInfo@VValue@v8@@@Nan@@@Z 0000000180039668     webgl.obj
 0002:0000b690       $cppxdata$?Uniform3i@webgl@@YAXAEBV?$FunctionCallbackInfo@VValue@v8@@@Nan@@@Z 0000000180039690     webgl.obj
 0002:0000b6b8       $cppxdata$?FramebufferTexture2D@webgl@@YAXAEBV?$FunctionCallbackInfo@VValue@v8@@@Nan@@@Z 00000001800396b8     webgl.obj
 0002:0000b6e0       $cppxdata$?GetActiveAttrib@webgl@@YAXAEBV?$FunctionCallbackInfo@VValue@v8@@@Nan@@@Z 00000001800396e0     webgl.obj
 0002:0000b708       $cppxdata$?Uniform1f@webgl@@YAXAEBV?$FunctionCallbackInfo@VValue@v8@@@Nan@@@Z 0000000180039708     webgl.obj
 0002:0000b730       $cppxdata$?DeleteBuffer@webgl@@YAXAEBV?$FunctionCallbackInfo@VValue@v8@@@Nan@@@Z 0000000180039730     webgl.obj
 0002:0000b758       $cppxdata$?PixelStorei@webgl@@YAXAEBV?$FunctionCallbackInfo@VValue@v8@@@Nan@@@Z 0000000180039758     webgl.obj
 0002:0000b780       $cppxdata$?BufferSubData@webgl@@YAXAEBV?$FunctionCallbackInfo@VValue@v8@@@Nan@@@Z 0000000180039780     webgl.obj
 0002:0000b7a8       $cppxdata$?DeleteFramebuffer@webgl@@YAXAEBV?$FunctionCallbackInfo@VValue@v8@@@Nan@@@Z 00000001800397a8     webgl.obj
 0002:0000b7d0       $cppxdata$?Uniform1fv@webgl@@YAXAEBV?$FunctionCallbackInfo@VValue@v8@@@Nan@@@Z 00000001800397d0     webgl.obj
 0002:0000b7f8       $cppxdata$?Finish@webgl@@YAXAEBV?$FunctionCallbackInfo@VValue@v8@@@Nan@@@Z 00000001800397f8     webgl.obj
 0002:0000b820       $cppxdata$?Uniform3iv@webgl@@YAXAEBV?$FunctionCallbackInfo@VValue@v8@@@Nan@@@Z 0000000180039820     webgl.obj
 0002:0000b848       $cppxdata$?CopyTexImage2D@webgl@@YAXAEBV?$FunctionCallbackInfo@VValue@v8@@@Nan@@@Z 0000000180039848     webgl.obj
 0002:0000b870       $cppxdata$?VertexAttrib2f@webgl@@YAXAEBV?$FunctionCallbackInfo@VValue@v8@@@Nan@@@Z 0000000180039870     webgl.obj
 0002:0000b898       $cppxdata$?VertexAttrib3fv@webgl@@YAXAEBV?$FunctionCallbackInfo@VValue@v8@@@Nan@@@Z 0000000180039898     webgl.obj
 0002:0000b8c0       $cppxdata$?Disable@webgl@@YAXAEBV?$FunctionCallbackInfo@VValue@v8@@@Nan@@@Z 00000001800398c0     webgl.obj
 0002:0000b8e8       $cppxdata$?BufferData@webgl@@YAXAEBV?$FunctionCallbackInfo@VValue@v8@@@Nan@@@Z 00000001800398e8     webgl.obj
 0002:0000b910       $cppxdata$?GetError@webgl@@YAXAEBV?$FunctionCallbackInfo@VValue@v8@@@Nan@@@Z 0000000180039910     webgl.obj
 0002:0000b938       $cppxdata$?IsFramebuffer@webgl@@YAXAEBV?$FunctionCallbackInfo@VValue@v8@@@Nan@@@Z 0000000180039938     webgl.obj
 0002:0000b960       $cppxdata$?Init@webgl@@YAXAEBV?$FunctionCallbackInfo@VValue@v8@@@Nan@@@Z 0000000180039960     webgl.obj
 0002:0000b988       $cppxdata$?BlendEquationSeparate@webgl@@YAXAEBV?$FunctionCallbackInfo@VValue@v8@@@Nan@@@Z 0000000180039988     webgl.obj
 0002:0000b9b0       $cppxdata$?GenerateMipmap@webgl@@YAXAEBV?$FunctionCallbackInfo@VValue@v8@@@Nan@@@Z 00000001800399b0     webgl.obj
 0002:0000b9d8       $cppxdata$?CreateBuffer@webgl@@YAXAEBV?$FunctionCallbackInfo@VValue@v8@@@Nan@@@Z 00000001800399d8     webgl.obj
 0002:0000ba00       $cppxdata$?Uniform4f@webgl@@YAXAEBV?$FunctionCallbackInfo@VValue@v8@@@Nan@@@Z 0000000180039a00     webgl.obj
 0002:0000ba28       $cppxdata$?Uniform2iv@webgl@@YAXAEBV?$FunctionCallbackInfo@VValue@v8@@@Nan@@@Z 0000000180039a28     webgl.obj
 0002:0000ba50       $cppxdata$?ActiveTexture@webgl@@YAXAEBV?$FunctionCallbackInfo@VValue@v8@@@Nan@@@Z 0000000180039a50     webgl.obj
 0002:0000ba78       $cppxdata$?CreateFramebuffer@webgl@@YAXAEBV?$FunctionCallbackInfo@VValue@v8@@@Nan@@@Z 0000000180039a78     webgl.obj
 0002:0000baa0       $cppxdata$?StencilOpSeparate@webgl@@YAXAEBV?$FunctionCallbackInfo@VValue@v8@@@Nan@@@Z 0000000180039aa0     webgl.obj
 0002:0000bac8       $cppxdata$?GetVertexAttrib@webgl@@YAXAEBV?$FunctionCallbackInfo@VValue@v8@@@Nan@@@Z 0000000180039ac8     webgl.obj
 0002:0000baf0       $cppxdata$?Enable@webgl@@YAXAEBV?$FunctionCallbackInfo@VValue@v8@@@Nan@@@Z 0000000180039af0     webgl.obj
 0002:0000bb18       $cppxdata$?EnableVertexAttribArray@webgl@@YAXAEBV?$FunctionCallbackInfo@VValue@v8@@@Nan@@@Z 0000000180039b18     webgl.obj
 0002:0000bb40       $cppxdata$?VertexAttrib2fv@webgl@@YAXAEBV?$FunctionCallbackInfo@VValue@v8@@@Nan@@@Z 0000000180039b40     webgl.obj
 0002:0000bb68       $cppxdata$?BindBuffer@webgl@@YAXAEBV?$FunctionCallbackInfo@VValue@v8@@@Nan@@@Z 0000000180039b68     webgl.obj
 0002:0000bb90       $cppxdata$?GetTexParameter@webgl@@YAXAEBV?$FunctionCallbackInfo@VValue@v8@@@Nan@@@Z 0000000180039b90     webgl.obj
 0002:0000bbb8       $cppxdata$?TexSubImage2D@webgl@@YAXAEBV?$FunctionCallbackInfo@VValue@v8@@@Nan@@@Z 0000000180039bb8     webgl.obj
 0002:0000bbe0       $cppxdata$?FramebufferRenderbuffer@webgl@@YAXAEBV?$FunctionCallbackInfo@VValue@v8@@@Nan@@@Z 0000000180039be0     webgl.obj
 0002:0000bc08       $cppxdata$?ClearColor@webgl@@YAXAEBV?$FunctionCallbackInfo@VValue@v8@@@Nan@@@Z 0000000180039c08     webgl.obj
 0002:0000bc30       $cppxdata$?StencilMaskSeparate@webgl@@YAXAEBV?$FunctionCallbackInfo@VValue@v8@@@Nan@@@Z 0000000180039c30     webgl.obj
 0002:0000bc58       $cppxdata$?DetachShader@webgl@@YAXAEBV?$FunctionCallbackInfo@VValue@v8@@@Nan@@@Z 0000000180039c58     webgl.obj
 0002:0000bc80       $cppxdata$?DeleteTexture@webgl@@YAXAEBV?$FunctionCallbackInfo@VValue@v8@@@Nan@@@Z 0000000180039c80     webgl.obj
 0002:0000bca8       $cppxdata$?Uniform4fv@webgl@@YAXAEBV?$FunctionCallbackInfo@VValue@v8@@@Nan@@@Z 0000000180039ca8     webgl.obj
 0002:0000bcd0       $cppxdata$?IsEnabled@webgl@@YAXAEBV?$FunctionCallbackInfo@VValue@v8@@@Nan@@@Z 0000000180039cd0     webgl.obj
 0002:0000bcf8       $cppxdata$?Scissor@webgl@@YAXAEBV?$FunctionCallbackInfo@VValue@v8@@@Nan@@@Z 0000000180039cf8     webgl.obj
 0002:0000bd20       $cppxdata$?DisableVertexAttribArray@webgl@@YAXAEBV?$FunctionCallbackInfo@VValue@v8@@@Nan@@@Z 0000000180039d20     webgl.obj
 0002:0000bd48       $cppxdata$?GetAttribLocation@webgl@@YAXAEBV?$FunctionCallbackInfo@VValue@v8@@@Nan@@@Z 0000000180039d48     webgl.obj
 0002:0000bd70       $cppxdata$?BindTexture@webgl@@YAXAEBV?$FunctionCallbackInfo@VValue@v8@@@Nan@@@Z 0000000180039d70     webgl.obj
 0002:0000bd98       $cppxdata$?UseProgram@webgl@@YAXAEBV?$FunctionCallbackInfo@VValue@v8@@@Nan@@@Z 0000000180039d98     webgl.obj
 0002:0000bdc0       $cppxdata$?GetSupportedExtensions@webgl@@YAXAEBV?$FunctionCallbackInfo@VValue@v8@@@Nan@@@Z 0000000180039dc0     webgl.obj
 0002:0000bde8       $cppxdata$?ReadPixels@webgl@@YAXAEBV?$FunctionCallbackInfo@VValue@v8@@@Nan@@@Z 0000000180039de8     webgl.obj
 0002:0000be10       $cppxdata$?BindRenderbuffer@webgl@@YAXAEBV?$FunctionCallbackInfo@VValue@v8@@@Nan@@@Z 0000000180039e10     webgl.obj
 0002:0000be38       $cppxdata$?CullFace@webgl@@YAXAEBV?$FunctionCallbackInfo@VValue@v8@@@Nan@@@Z 0000000180039e38     webgl.obj
 0002:0000be60       $cppxdata$?DepthMask@webgl@@YAXAEBV?$FunctionCallbackInfo@VValue@v8@@@Nan@@@Z 0000000180039e60     webgl.obj
 0002:0000be88       $cppxdata$?StencilMask@webgl@@YAXAEBV?$FunctionCallbackInfo@VValue@v8@@@Nan@@@Z 0000000180039e88     webgl.obj
 0002:0000beb0       $cppxdata$?IsBuffer@webgl@@YAXAEBV?$FunctionCallbackInfo@VValue@v8@@@Nan@@@Z 0000000180039eb0     webgl.obj
 0002:0000bed8       $cppxdata$?Uniform2f@webgl@@YAXAEBV?$FunctionCallbackInfo@VValue@v8@@@Nan@@@Z 0000000180039ed8     webgl.obj
 0002:0000bf00       $cppxdata$?TexParameterf@webgl@@YAXAEBV?$FunctionCallbackInfo@VValue@v8@@@Nan@@@Z 0000000180039f00     webgl.obj
 0002:0000bf28       $cppxdata$?ValidateProgram@webgl@@YAXAEBV?$FunctionCallbackInfo@VValue@v8@@@Nan@@@Z 0000000180039f28     webgl.obj
 0002:0000bf50       $cppxdata$?DeleteShader@webgl@@YAXAEBV?$FunctionCallbackInfo@VValue@v8@@@Nan@@@Z 0000000180039f50     webgl.obj
 0002:0000bf78       $cppxdata$?VertexAttrib4fv@webgl@@YAXAEBV?$FunctionCallbackInfo@VValue@v8@@@Nan@@@Z 0000000180039f78     webgl.obj
 0002:0000bfa0       $cppxdata$?CreateRenderbuffer@webgl@@YAXAEBV?$FunctionCallbackInfo@VValue@v8@@@Nan@@@Z 0000000180039fa0     webgl.obj
 0002:0000bfc8       $cppxdata$?Uniform2fv@webgl@@YAXAEBV?$FunctionCallbackInfo@VValue@v8@@@Nan@@@Z 0000000180039fc8     webgl.obj
 0002:0000bff0       $cppxdata$?LineWidth@webgl@@YAXAEBV?$FunctionCallbackInfo@VValue@v8@@@Nan@@@Z 0000000180039ff0     webgl.obj
 0002:0000c018       $cppxdata$?PolygonOffset@webgl@@YAXAEBV?$FunctionCallbackInfo@VValue@v8@@@Nan@@@Z 000000018003a018     webgl.obj
 0002:0000c040       $cppxdata$?Clear@webgl@@YAXAEBV?$FunctionCallbackInfo@VValue@v8@@@Nan@@@Z 000000018003a040     webgl.obj
 0002:0000c068       $cppxdata$?IsProgram@webgl@@YAXAEBV?$FunctionCallbackInfo@VValue@v8@@@Nan@@@Z 000000018003a068     webgl.obj
 0002:0000c090       $cppxdata$?VertexAttribPointer@webgl@@YAXAEBV?$FunctionCallbackInfo@VValue@v8@@@Nan@@@Z 000000018003a090     webgl.obj
 0002:0000c0b8       $cppxdata$?BindAttribLocation@webgl@@YAXAEBV?$FunctionCallbackInfo@VValue@v8@@@Nan@@@Z 000000018003a0b8     webgl.obj
 0002:0000c0e0       $cppxdata$?VertexAttrib3f@webgl@@YAXAEBV?$FunctionCallbackInfo@VValue@v8@@@Nan@@@Z 000000018003a0e0     webgl.obj
 0002:0000c108       $cppxdata$?DrawElements@webgl@@YAXAEBV?$FunctionCallbackInfo@VValue@v8@@@Nan@@@Z 000000018003a108     webgl.obj
 0002:0000c130       $cppxdata$?GetParameter@webgl@@YAXAEBV?$FunctionCallbackInfo@VValue@v8@@@Nan@@@Z 000000018003a130     webgl.obj
 0002:0000c158       $cppxdata$?CompileShader@webgl@@YAXAEBV?$FunctionCallbackInfo@VValue@v8@@@Nan@@@Z 000000018003a158     webgl.obj
 0002:0000c180       $cppxdata$?BlendColor@webgl@@YAXAEBV?$FunctionCallbackInfo@VValue@v8@@@Nan@@@Z 000000018003a180     webgl.obj
 0002:0000c1a8       $cppxdata$?DeleteProgram@webgl@@YAXAEBV?$FunctionCallbackInfo@VValue@v8@@@Nan@@@Z 000000018003a1a8     webgl.obj
 0002:0000c1d0       $cppxdata$?TexParameteri@webgl@@YAXAEBV?$FunctionCallbackInfo@VValue@v8@@@Nan@@@Z 000000018003a1d0     webgl.obj
 0002:0000c1f8       $cppxdata$?CreateTexture@webgl@@YAXAEBV?$FunctionCallbackInfo@VValue@v8@@@Nan@@@Z 000000018003a1f8     webgl.obj
 0002:0000c220       $cppxdata$?StencilFunc@webgl@@YAXAEBV?$FunctionCallbackInfo@VValue@v8@@@Nan@@@Z 000000018003a220     webgl.obj
 0002:0000c248       $cppxdata$?StencilOp@webgl@@YAXAEBV?$FunctionCallbackInfo@VValue@v8@@@Nan@@@Z 000000018003a248     webgl.obj
 0002:0000c270       $cppxdata$?GetActiveUniform@webgl@@YAXAEBV?$FunctionCallbackInfo@VValue@v8@@@Nan@@@Z 000000018003a270     webgl.obj
 0002:0000c298       $cppxdata$?ColorMask@webgl@@YAXAEBV?$FunctionCallbackInfo@VValue@v8@@@Nan@@@Z 000000018003a298     webgl.obj
 0002:0000c2c0       $cppxdata$?BindFramebuffer@webgl@@YAXAEBV?$FunctionCallbackInfo@VValue@v8@@@Nan@@@Z 000000018003a2c0     webgl.obj
 0002:0000c2e8       $cppxdata$?GetExtension@webgl@@YAXAEBV?$FunctionCallbackInfo@VValue@v8@@@Nan@@@Z 000000018003a2e8     webgl.obj
 0002:0000c310       $cppxdata$?GetProgramParameter@webgl@@YAXAEBV?$FunctionCallbackInfo@VValue@v8@@@Nan@@@Z 000000018003a310     webgl.obj
 0002:0000c338       $cppxdata$?VertexAttrib1f@webgl@@YAXAEBV?$FunctionCallbackInfo@VValue@v8@@@Nan@@@Z 000000018003a338     webgl.obj
 0002:0000c360       $cppxdata$?IsShader@webgl@@YAXAEBV?$FunctionCallbackInfo@VValue@v8@@@Nan@@@Z 000000018003a360     webgl.obj
 0002:0000c388       $cppxdata$?CreateProgram@webgl@@YAXAEBV?$FunctionCallbackInfo@VValue@v8@@@Nan@@@Z 000000018003a388     webgl.obj
 0002:0000c3b0       $cppxdata$?DrawArrays@webgl@@YAXAEBV?$FunctionCallbackInfo@VValue@v8@@@Nan@@@Z 000000018003a3b0     webgl.obj
 0002:0000c3d8       $cppxdata$?GetBufferParameter@webgl@@YAXAEBV?$FunctionCallbackInfo@VValue@v8@@@Nan@@@Z 000000018003a3d8     webgl.obj
 0002:0000c400       $cppxdata$?VertexAttrib1fv@webgl@@YAXAEBV?$FunctionCallbackInfo@VValue@v8@@@Nan@@@Z 000000018003a400     webgl.obj
 0002:0000c428       $cppxdata$?GetProgramInfoLog@webgl@@YAXAEBV?$FunctionCallbackInfo@VValue@v8@@@Nan@@@Z 000000018003a428     webgl.obj
 0002:0000c450       $cppxdata$?Uniform1i@webgl@@YAXAEBV?$FunctionCallbackInfo@VValue@v8@@@Nan@@@Z 000000018003a450     webgl.obj
 0002:0000c478       $cppxdata$?GetShaderParameter@webgl@@YAXAEBV?$FunctionCallbackInfo@VValue@v8@@@Nan@@@Z 000000018003a478     webgl.obj
 0002:0000c4a0       $cppxdata$?DeleteRenderbuffer@webgl@@YAXAEBV?$FunctionCallbackInfo@VValue@v8@@@Nan@@@Z 000000018003a4a0     webgl.obj
 0002:0000c4c8       $cppxdata$?FrontFace@webgl@@YAXAEBV?$FunctionCallbackInfo@VValue@v8@@@Nan@@@Z 000000018003a4c8     webgl.obj
 0002:0000c4f0       $cppxdata$?LinkProgram@webgl@@YAXAEBV?$FunctionCallbackInfo@VValue@v8@@@Nan@@@Z 000000018003a4f0     webgl.obj
 0002:0000c518       $cppxdata$?Hint@webgl@@YAXAEBV?$FunctionCallbackInfo@VValue@v8@@@Nan@@@Z 000000018003a518     webgl.obj
 0002:0000c540       $cppxdata$?Uniform3fv@webgl@@YAXAEBV?$FunctionCallbackInfo@VValue@v8@@@Nan@@@Z 000000018003a540     webgl.obj
 0002:0000c568       $cppxdata$?ClearDepth@webgl@@YAXAEBV?$FunctionCallbackInfo@VValue@v8@@@Nan@@@Z 000000018003a568     webgl.obj
 0002:0000c590       $cppxdata$?GetShaderSource@webgl@@YAXAEBV?$FunctionCallbackInfo@VValue@v8@@@Nan@@@Z 000000018003a590     webgl.obj
 0002:0000c5b8       $cppxdata$?CopyTexSubImage2D@webgl@@YAXAEBV?$FunctionCallbackInfo@VValue@v8@@@Nan@@@Z 000000018003a5b8     webgl.obj
 0002:0000c5e0       $cppxdata$?CreateShader@webgl@@YAXAEBV?$FunctionCallbackInfo@VValue@v8@@@Nan@@@Z 000000018003a5e0     webgl.obj
 0002:0000c608       $cppxdata$?BlendFuncSeparate@webgl@@YAXAEBV?$FunctionCallbackInfo@VValue@v8@@@Nan@@@Z 000000018003a608     webgl.obj
 0002:0000c630       $cppxdata$?GetVertexAttribOffset@webgl@@YAXAEBV?$FunctionCallbackInfo@VValue@v8@@@Nan@@@Z 000000018003a630     webgl.obj
 0002:0000c658       $cppxdata$?IsRenderbuffer@webgl@@YAXAEBV?$FunctionCallbackInfo@VValue@v8@@@Nan@@@Z 000000018003a658     webgl.obj
 0002:0000c680       $cppxdata$?GetUniformLocation@webgl@@YAXAEBV?$FunctionCallbackInfo@VValue@v8@@@Nan@@@Z 000000018003a680     webgl.obj
 0002:0000c6a8       $cppxdata$?Uniform2i@webgl@@YAXAEBV?$FunctionCallbackInfo@VValue@v8@@@Nan@@@Z 000000018003a6a8     webgl.obj
 0002:0000c6d0       $cppxdata$?VertexAttrib4f@webgl@@YAXAEBV?$FunctionCallbackInfo@VValue@v8@@@Nan@@@Z 000000018003a6d0     webgl.obj
 0002:0000c6f8       $cppxdata$?StencilFuncSeparate@webgl@@YAXAEBV?$FunctionCallbackInfo@VValue@v8@@@Nan@@@Z 000000018003a6f8     webgl.obj
 0002:0000c720       $cppxdata$?GetAttachedShaders@webgl@@YAXAEBV?$FunctionCallbackInfo@VValue@v8@@@Nan@@@Z 000000018003a720     webgl.obj
 0002:0000c748       $cppxdata$?Viewport@webgl@@YAXAEBV?$FunctionCallbackInfo@VValue@v8@@@Nan@@@Z 000000018003a748     webgl.obj
 0002:0000c770       $cppxdata$?Uniform4i@webgl@@YAXAEBV?$FunctionCallbackInfo@VValue@v8@@@Nan@@@Z 000000018003a770     webgl.obj
 0002:0000c798       $cppxdata$?Uniform3f@webgl@@YAXAEBV?$FunctionCallbackInfo@VValue@v8@@@Nan@@@Z 000000018003a798     webgl.obj
 0002:0000c7c0       $cppxdata$?CheckFramebufferStatus@webgl@@YAXAEBV?$FunctionCallbackInfo@VValue@v8@@@Nan@@@Z 000000018003a7c0     webgl.obj
 0002:0000c7e8       $cppxdata$?DepthFunc@webgl@@YAXAEBV?$FunctionCallbackInfo@VValue@v8@@@Nan@@@Z 000000018003a7e8     webgl.obj
 0002:0000d010       $unwind$?FunctionCallbackWrapper@imp@Nan@@YAXAEBV?$FunctionCallbackInfo@VValue@v8@@@v8@@@Z 000000018003b010     bindings.obj
 0002:0000d020       $unwind$?NewInstance@Nan@@YA?AV?$MaybeLocal@VObject@v8@@@v8@@V?$Local@VObjectTemplate@v8@@@3@@Z 000000018003b020     bindings.obj
 0002:0000d034       $stateUnwindMap$?convert@?$ToFactory@VInteger@v8@@@imp@Nan@@SA?AV?$MaybeLocal@VInteger@v8@@@v8@@V?$Local@VValue@v8@@@5@@Z 000000018003b034     bindings.obj
 0002:0000d034       $stateUnwindMap$?Get@Nan@@YA?AV?$MaybeLocal@VValue@v8@@@v8@@V?$Local@VObject@v8@@@3@V?$Local@VValue@v8@@@3@@Z 000000018003b034     image.obj
 0002:0000d034       $stateUnwindMap$?NewInstance@Nan@@YA?AV?$MaybeLocal@VObject@v8@@@v8@@V?$Local@VObjectTemplate@v8@@@3@@Z 000000018003b034     bindings.obj
 0002:0000d034       $stateUnwindMap$?GetFunction@Nan@@YA?AV?$MaybeLocal@VFunction@v8@@@v8@@V?$Local@VFunctionTemplate@v8@@@3@@Z 000000018003b034     bindings.obj
 0002:0000d040       $ip2state$?NewInstance@Nan@@YA?AV?$MaybeLocal@VObject@v8@@@v8@@V?$Local@VObjectTemplate@v8@@@3@@Z 000000018003b040     bindings.obj
 0002:0000d058       $unwind$?GetFunction@Nan@@YA?AV?$MaybeLocal@VFunction@v8@@@v8@@V?$Local@VFunctionTemplate@v8@@@3@@Z 000000018003b058     bindings.obj
 0002:0000d070       $ip2state$?GetFunction@Nan@@YA?AV?$MaybeLocal@VFunction@v8@@@v8@@V?$Local@VFunctionTemplate@v8@@@3@@Z 000000018003b070     bindings.obj
 0002:0000d088       $unwind$?ForceSet@Nan@@YA?AV?$Maybe@_N@v8@@V?$Local@VObject@v8@@@3@V?$Local@VValue@v8@@@3@1W4PropertyAttribute@3@@Z 000000018003b088     bindings.obj
 0002:0000d09c       $stateUnwindMap$?ForceSet@Nan@@YA?AV?$Maybe@_N@v8@@V?$Local@VObject@v8@@@3@V?$Local@VValue@v8@@@3@1W4PropertyAttribute@3@@Z 000000018003b09c     bindings.obj
 0002:0000d09c       $stateUnwindMap$?Set@Nan@@YA?AV?$Maybe@_N@v8@@V?$Local@VObject@v8@@@3@V?$Local@VValue@v8@@@3@1@Z 000000018003b09c     image.obj
 0002:0000d0a8       $ip2state$?ForceSet@Nan@@YA?AV?$Maybe@_N@v8@@V?$Local@VObject@v8@@@3@V?$Local@VValue@v8@@@3@1W4PropertyAttribute@3@@Z 000000018003b0a8     bindings.obj
 0002:0000d0c0       $unwind$?convert@?$ToFactory@VInteger@v8@@@imp@Nan@@SA?AV?$MaybeLocal@VInteger@v8@@@v8@@V?$Local@VValue@v8@@@5@@Z 000000018003b0c0     bindings.obj
 0002:0000d0d8       $ip2state$?convert@?$ToFactory@VInteger@v8@@@imp@Nan@@SA?AV?$MaybeLocal@VInteger@v8@@@v8@@V?$Local@VValue@v8@@@5@@Z 000000018003b0d8     bindings.obj
 0002:0000d0f0       $unwind$?New@?$Factory@VFunctionTemplate@v8@@@imp@Nan@@SA?AV?$Local@VFunctionTemplate@v8@@@v8@@P6AXAEBV?$FunctionCallbackInfo@VValue@v8@@@3@@ZV?$Local@VValue@v8@@@5@V?$Local@VSignature@v8@@@5@@Z 000000018003b0f0     bindings.obj
 0002:0000d108       $stateUnwindMap$?New@?$Factory@VFunctionTemplate@v8@@@imp@Nan@@SA?AV?$Local@VFunctionTemplate@v8@@@v8@@P6AXAEBV?$FunctionCallbackInfo@VValue@v8@@@3@@ZV?$Local@VValue@v8@@@5@V?$Local@VSignature@v8@@@5@@Z 000000018003b108     bindings.obj
 0002:0000d110       $ip2state$?New@?$Factory@VFunctionTemplate@v8@@@imp@Nan@@SA?AV?$Local@VFunctionTemplate@v8@@@v8@@P6AXAEBV?$FunctionCallbackInfo@VValue@v8@@@3@@ZV?$Local@VValue@v8@@@5@V?$Local@VSignature@v8@@@5@@Z 000000018003b110     bindings.obj
 0002:0000d128       $unwind$init               000000018003b128     bindings.obj
 0002:0000d13c       $unwind$??$SetMethod@VObject@v8@@VLocal@2@@Nan@@YAXV?$Local@VObject@v8@@@v8@@PEBDP6AXAEBV?$FunctionCallbackInfo@VValue@v8@@@0@@Z@Z 000000018003b13c     bindings.obj
 0002:0000d150       $stateUnwindMap$??$SetMethod@VObject@v8@@VLocal@2@@Nan@@YAXV?$Local@VObject@v8@@@v8@@PEBDP6AXAEBV?$FunctionCallbackInfo@VValue@v8@@@0@@Z@Z 000000018003b150     bindings.obj
 0002:0000d150       $stateUnwindMap$?GetVertexAttrib@webgl@@YAXAEBV?$FunctionCallbackInfo@VValue@v8@@@Nan@@@Z 000000018003b150     webgl.obj
 0002:0000d158       $ip2state$??$SetMethod@VObject@v8@@VLocal@2@@Nan@@YAXV?$Local@VObject@v8@@@v8@@PEBDP6AXAEBV?$FunctionCallbackInfo@VValue@v8@@@0@@Z@Z 000000018003b158     bindings.obj
 0002:0000d170       $unwind$?_Reallocate@?$vector@PEAUGLObj@webgl@@V?$allocator@PEAUGLObj@webgl@@@std@@@std@@IEAAX_K@Z 000000018003b170     webgl.obj
 0002:0000d170       $unwind$__acrt_is_packaged_app 000000018003b170     libucrt:winapi_thunks.obj
 0002:0000d170       $unwind$?_Reallocate@?$vector@PEAVImage@@V?$allocator@PEAVImage@@@std@@@std@@IEAAX_K@Z 000000018003b170     image.obj
 0002:0000d170       $unwind$??$New@VInteger@v8@@H@Nan@@YA?AV?$Local@VInteger@v8@@@v8@@H@Z 000000018003b170     bindings.obj
 0002:0000d170       $unwind$iswctype           000000018003b170     libucrt:iswctype.obj
 0002:0000d17c       $unwind$??$SetMethodAux@V?$Local@VObject@v8@@@v8@@@imp@Nan@@YAXV?$Local@VObject@v8@@@v8@@V?$Local@VString@v8@@@3@V?$Local@VFunctionTemplate@v8@@@3@ZZ 000000018003b17c     bindings.obj
 0002:0000d184       $unwind$??1ObjectWrap@node@@UEAA@XZ 000000018003b184     image.obj
 0002:0000d194       $stateUnwindMap$??1ObjectWrap@node@@UEAA@XZ 000000018003b194     image.obj
 0002:0000d194       $stateUnwindMap$??__F?constructor_template@Image@@0V?$Persistent@VFunction@v8@@V?$NonCopyablePersistentTraits@VFunction@v8@@@2@@v8@@A@@YAXXZ 000000018003b194     image.obj
 0002:0000d1a0       $ip2state$??1ObjectWrap@node@@UEAA@XZ 000000018003b1a0     image.obj
 0002:0000d1a8       $unwind$??$free_environment@_W@@YAXQEAPEA_W@Z 000000018003b1a8     libucrt:environment_initialization.obj
 0002:0000d1a8       $unwind$??$free_environment@D@@YAXQEAPEAD@Z 000000018003b1a8     libucrt:environment_initialization.obj
 0002:0000d1a8       $unwind$?Wrap@ObjectWrap@node@@IEAAXV?$Local@VObject@v8@@@v8@@@Z 000000018003b1a8     image.obj
 0002:0000d1b4       $unwind$??0?$output_processor@_WV?$string_output_adapter@_W@__crt_stdio_output@@V?$standard_base@_WV?$string_output_adapter@_W@__crt_stdio_output@@@2@@__crt_stdio_output@@QEAA@AEBV?$string_output_adapter@_W@1@_KQEB_WQEAU__crt_locale_pointers@@QEAD@Z 000000018003b1b4     libucrt:output.obj
 0002:0000d1b4       $unwind$wcscpy_s           000000018003b1b4     libucrt:wcscpy_s.obj
 0002:0000d1b4       $unwind$__acrt_fp_strflt_to_string 000000018003b1b4     libucrt:_fptostr.obj
 0002:0000d1b4       $unwind$??0bad_exception@std@@QEAA@AEBV01@@Z 000000018003b1b4     libvcruntime:frame.obj
 0002:0000d1b4       $unwind$strcpy_s           000000018003b1b4     libucrt:strcpy_s.obj
 0002:0000d1b4       $unwind$?__StateFromIp@@YAHPEBU_s_FuncInfo@@PEAU_xDISPATCHER_CONTEXT@@_J@Z 000000018003b1b4     libvcruntime:ehstate.obj
 0002:0000d1b4       $unwind$_clearfp           000000018003b1b4     libucrt:ieee.obj
 0002:0000d1b4       $unwind$?Unref@ObjectWrap@node@@MEAAXXZ 000000018003b1b4     image.obj
 0002:0000d1b4       $unwind$??_Gtype_info@@UEAAPEAXI@Z 000000018003b1b4     LIBCMT:std_type_info_static.obj
 0002:0000d1b4       $unwind$?state_case_normal_tchar@?$output_processor@DV?$stream_output_adapter@D@__crt_stdio_output@@V?$standard_base@DV?$stream_output_adapter@D@__crt_stdio_output@@@2@@__crt_stdio_output@@AEAA_ND@Z 000000018003b1b4     libucrt:output.obj
 0002:0000d1b4       $unwind$?type_case_integer@?$output_processor@_WV?$stream_output_adapter@_W@__crt_stdio_output@@V?$standard_base@_WV?$stream_output_adapter@_W@__crt_stdio_output@@@2@@__crt_stdio_output@@AEAA_NI_N@Z 000000018003b1b4     libucrt:output.obj
 0002:0000d1b4       $unwind$?WeakCallback@ObjectWrap@node@@CAXAEBV?$WeakCallbackInfo@VObjectWrap@node@@@v8@@@Z 000000018003b1b4     image.obj
 0002:0000d1b4       $unwind$_strupr            000000018003b1b4     libucrt:strupr.obj
 0002:0000d1b4       $unwind$?load_exe_hook@@YAP6A_JXZIPEAUDelayLoadInfo@@@Z 000000018003b1b4     win_delay_load_hook.obj
 0002:0000d1b4       $unwind$??0exception@std@@QEAA@AEBV01@@Z 000000018003b1b4     libcpmt:xthrow.obj
 0002:0000d1b4       $unwind$__acrt_uninitialize_locks 000000018003b1b4     libucrt:locks.obj
 0002:0000d1b4       $unwind$??$message_box_wait_thread@_W@@YAKQEAX@Z 000000018003b1b4     libucrt:crtmbox.obj
 0002:0000d1b4       $unwind$?exit_or_terminate_process@@YAXI@Z 000000018003b1b4     libucrt:exit.obj
 0002:0000d1b4       $unwind$?state_case_normal@?$output_processor@DV?$stream_output_adapter@D@__crt_stdio_output@@V?$standard_base@DV?$stream_output_adapter@D@__crt_stdio_output@@@2@@__crt_stdio_output@@AEAA_NXZ 000000018003b1b4     libucrt:output.obj
 0002:0000d1b4       $unwind$_clrfp             000000018003b1b4     libucrt:fpctrl.obj
 0002:0000d1b4       $unwind$??2@YAPEAX_K@Z     000000018003b1b4     LIBCMT:new_scalar.obj
 0002:0000d1b4       $unwind$_fflush_nolock     000000018003b1b4     libucrt:fflush.obj
 0002:0000d1b4       $unwind$?AtExit@Image@@SAXXZ 000000018003b1b4     image.obj
 0002:0000d1b4       $unwind$?type_case_integer@?$output_processor@DV?$stream_output_adapter@D@__crt_stdio_output@@V?$standard_base@DV?$stream_output_adapter@D@__crt_stdio_output@@@2@@__crt_stdio_output@@AEAA_NI_N@Z 000000018003b1b4     libucrt:output.obj
 0002:0000d1b4       $unwind$?DloadReleaseSectionWriteAccess@@YAXXZ 000000018003b1b4     DelayImp:delayhlp.obj
 0002:0000d1b4       $unwind$__std_exception_destroy 000000018003b1b4     libvcruntime:std_exception.obj
 0002:0000d1b4       $unwind$?type_case_integer@?$output_processor@_WV?$string_output_adapter@_W@__crt_stdio_output@@V?$standard_base@_WV?$string_output_adapter@_W@__crt_stdio_output@@@2@@__crt_stdio_output@@AEAA_NI_N@Z 000000018003b1b4     libucrt:output.obj
 0002:0000d1b4       $unwind$__raise_securityfailure 000000018003b1b4     LIBCMT:gs_report.obj
 0002:0000d1b4       $unwind$_SetImageBase      000000018003b1b4     libvcruntime:trnsctrl.obj
 0002:0000d1b4       $unwind$__vcrt_uninitialize_locks 000000018003b1b4     libvcruntime:locks.obj
 0002:0000d1b4       $unwind$__std_type_info_destroy_list 000000018003b1b4     libvcruntime:std_type_info.obj
 0002:0000d1b4       $unwind$__scrt_uninitialize_crt 000000018003b1b4     LIBCMT:utility.obj
 0002:0000d1b4       $unwind$__scrt_initialize_crt 000000018003b1b4     LIBCMT:utility.obj
 0002:0000d1b4       $unwind$_SetThrowImageBase 000000018003b1b4     libvcruntime:trnsctrl.obj
 0002:0000d1b4       $unwind$uninitialize_allocated_memory 000000018003b1b4     libucrt:initialization.obj
 0002:0000d1b4       $unwind$fegetenv           000000018003b1b4     libucrt:fegetenv.obj
 0002:0000d1b4       $unwind$wcscat_s           000000018003b1b4     libucrt:wcscat_s.obj
 0002:0000d1b4       $unwind$_calloc_base       000000018003b1b4     libucrt:calloc_base.obj
 0002:0000d1b4       $unwind$??0bad_alloc@std@@QEAA@AEBV01@@Z 000000018003b1b4     libcpmt:xthrow.obj
 0002:0000d1b4       $unwind$__vcrt_initialize_locks 000000018003b1b4     libvcruntime:locks.obj
 0002:0000d1b4       $unwind$__scrt_release_startup_lock 000000018003b1b4     LIBCMT:utility.obj
 0002:0000d1b4       $unwind$?__GetUnwindTryBlock@@YAHPEA_KPEAU_xDISPATCHER_CONTEXT@@PEBU_s_FuncInfo@@@Z 000000018003b1b4     libvcruntime:ehstate.obj
 0002:0000d1b4       $unwind$__acrt_can_show_message_box 000000018003b1b4     libucrt:winapi_thunks.obj
 0002:0000d1b4       $unwind$??0logic_error@std@@QEAA@AEBV01@@Z 000000018003b1b4     libcpmt:xthrow.obj
 0002:0000d1b4       $unwind$__acrt_uninitialize_stdio 000000018003b1b4     libucrt:_file.obj
 0002:0000d1b4       $unwind$_malloc_base       000000018003b1b4     libucrt:malloc_base.obj
 0002:0000d1b4       $unwind$??0bad_array_new_length@std@@QEAA@AEBV01@@Z 000000018003b1b4     LIBCMT:throw_bad_alloc.obj
 0002:0000d1b4       $unwind$_onexit            000000018003b1b4     LIBCMT:utility.obj
 0002:0000d1b4       $unwind$_set_statfp        000000018003b1b4     libucrt:fpctrl.obj
 0002:0000d1b4       $unwind$_setfpstatusword   000000018003b1b4     libucrt:_fenvutils.obj
 0002:0000d1b4       $unwind$feholdexcept       000000018003b1b4     libucrt:feholdexcept.obj
 0002:0000d1b4       $unwind$__acrt_update_locale_info 000000018003b1b4     libucrt:locale_update.obj
 0002:0000d1b4       $unwind$fesetenv           000000018003b1b4     libucrt:fesetenv.obj
 0002:0000d1b4       $unwind$__acrt_stdio_allocate_buffer_nolock 000000018003b1b4     libucrt:_getbuf.obj
 0002:0000d1b4       $unwind$initialize_pointers 000000018003b1b4     libucrt:initialization.obj
 0002:0000d1b4       $unwind$__acrt_stdio_free_buffer_nolock 000000018003b1b4     libucrt:_freebuf.obj
 0002:0000d1b4       $unwind$__vcrt_freeptd     000000018003b1b4     libvcruntime:per_thread_data.obj
 0002:0000d1b4       $unwind$??0length_error@std@@QEAA@AEBV01@@Z 000000018003b1b4     libcpmt:xthrow.obj
 0002:0000d1b4       $unwind$_IsExceptionObjectToBeDestroyed 000000018003b1b4     libvcruntime:trnsctrl.obj
 0002:0000d1b4       $unwind$__acrt_initialize_locks 000000018003b1b4     libucrt:locks.obj
 0002:0000d1b4       $unwind$?AtExit@webgl@@YAXXZ 000000018003b1b4     webgl.obj
 0002:0000d1b4       $unwind$_CreateFrameInfo   000000018003b1b4     libvcruntime:trnsctrl.obj
 0002:0000d1b4       $unwind$__acrt_update_multibyte_info 000000018003b1b4     libucrt:locale_update.obj
 0002:0000d1b4       $unwind$__acrt_allocate_buffer_for_argv 000000018003b1b4     libucrt:argv_parsing.obj
 0002:0000d1b4       $unwind$__acrt_freeptd     000000018003b1b4     libucrt:per_thread_data.obj
 0002:0000d1b4       $unwind$??1Image@@MEAA@XZ  000000018003b1b4     image.obj
 0002:0000d1b4       $unwind$??0?$output_processor@_WV?$stream_output_adapter@_W@__crt_stdio_output@@V?$standard_base@_WV?$stream_output_adapter@_W@__crt_stdio_output@@@2@@__crt_stdio_output@@QEAA@AEBV?$stream_output_adapter@_W@1@_KQEB_WQEAU__crt_locale_pointers@@QEAD@Z 000000018003b1b4     libucrt:output.obj
 0002:0000d1b4       $unwind$__acrt_uninitialize_winapi_thunks 000000018003b1b4     libucrt:winapi_thunks.obj
 0002:0000d1b4       $unwind$??0?$output_processor@DV?$stream_output_adapter@D@__crt_stdio_output@@V?$standard_base@DV?$stream_output_adapter@D@__crt_stdio_output@@@2@@__crt_stdio_output@@QEAA@AEBV?$stream_output_adapter@D@1@_KQEBDQEAU__crt_locale_pointers@@QEAD@Z 000000018003b1b4     libucrt:output.obj
 0002:0000d1b4       $unwind$?Ref@ObjectWrap@node@@MEAAXXZ 000000018003b1b4     image.obj
 0002:0000d1bc       $unwind$??_Glength_error@std@@UEAAPEAXI@Z 000000018003b1bc     libcpmt:xthrow.obj
 0002:0000d1bc       $unwind$?force_decimal_point@__crt_stdio_output@@YAXPEADQEAU__crt_locale_pointers@@@Z 000000018003b1bc     libucrt:output.obj
 0002:0000d1bc       $unwind$_updatetlocinfoEx_nolock 000000018003b1bc     libucrt:locale_refcounting.obj
 0002:0000d1bc       $unwind$_FindAndUnlinkFrame 000000018003b1bc     libvcruntime:trnsctrl.obj
 0002:0000d1bc       $unwind$?internal_isupper_l@@YA_NHQEAU__crt_locale_pointers@@@Z 000000018003b1bc     libucrt:tolower_toupper.obj
 0002:0000d1bc       $unwind$??_GImage@@MEAAPEAXI@Z 000000018003b1bc     image.obj
 0002:0000d1bc       $unwind$__acrt_stdio_begin_temporary_buffering_nolock 000000018003b1bc     libucrt:_sftbuf.obj
 0002:0000d1bc       $unwind$??0_LocaleUpdate@@QEAA@QEAU__crt_locale_pointers@@@Z 000000018003b1bc     libucrt:output.obj
 0002:0000d1bc       $unwind$??_Glogic_error@std@@UEAAPEAXI@Z 000000018003b1bc     libcpmt:xthrow.obj
 0002:0000d1bc       $unwind$??_Gbad_alloc@std@@UEAAPEAXI@Z 000000018003b1bc     libcpmt:xthrow.obj
 0002:0000d1bc       $unwind$??$common_initialize_environment_nolock@D@@YAHXZ 000000018003b1bc     libucrt:environment_initialization.obj
 0002:0000d1bc       $unwind$??$common_xtox@K_W@@YAHKQEA_W_KI_N@Z 000000018003b1bc     libucrt:xtoa.obj
 0002:0000d1bc       $unwind$??_Gexception@std@@UEAAPEAXI@Z 000000018003b1bc     libcpmt:xthrow.obj
 0002:0000d1bc       $unwind$wcsncat_s          000000018003b1bc     libucrt:wcsncat_s.obj
 0002:0000d1bc       $unwind$?try_cor_exit_process@@YAXI@Z 000000018003b1bc     libucrt:exit.obj
 0002:0000d1bc       $unwind$??_GObjectWrap@node@@UEAAPEAXI@Z 000000018003b1bc     image.obj
 0002:0000d1bc       $unwind$__acrt_FlsGetValue 000000018003b1bc     libucrt:winapi_thunks.obj
 0002:0000d1bc       $unwind$?__SetUnwindTryBlock@@YAXPEA_KPEAU_xDISPATCHER_CONTEXT@@PEBU_s_FuncInfo@@H@Z 000000018003b1bc     libvcruntime:ehstate.obj
 0002:0000d1bc       $unwind$__acrt_FlsFree     000000018003b1bc     libucrt:winapi_thunks.obj
 0002:0000d1bc       $unwind$__acrt_uninitialize_lowio 000000018003b1bc     libucrt:ioinit.obj
 0002:0000d1bc       $unwind$??_Gbad_exception@std@@UEAAPEAXI@Z 000000018003b1bc     libvcruntime:frame.obj
 0002:0000d1bc       $unwind$_fclose_nolock     000000018003b1bc     libucrt:fclose.obj
 0002:0000d1bc       $unwind$__acrt_get_parent_window 000000018003b1bc     libucrt:winapi_thunks.obj
 0002:0000d1bc       $unwind$?type_case_c_tchar@?$output_processor@DV?$stream_output_adapter@D@__crt_stdio_output@@V?$standard_base@DV?$stream_output_adapter@D@__crt_stdio_output@@@2@@__crt_stdio_output@@AEAA_ND@Z 000000018003b1bc     libucrt:output.obj
 0002:0000d1bc       $unwind$?ExFilterRethrow@@YAHPEAU_EXCEPTION_POINTERS@@PEAUEHExceptionRecord@@PEAH@Z 000000018003b1bc     libvcruntime:frame.obj
 0002:0000d1bc       $unwind$__acrt_errno_map_os_error 000000018003b1bc     libucrt:errno.obj
 0002:0000d1bc       $unwind$__vcrt_FlsGetValue 000000018003b1bc     libvcruntime:winapi_downlevel.obj
 0002:0000d1bc       $unwind$?replace_current_thread_locale_nolock@@YAXQEAU__acrt_ptd@@QEAU__crt_locale_data@@@Z 000000018003b1bc     libucrt:per_thread_data.obj
 0002:0000d1bc       $unwind$__vcrt_FlsFree     000000018003b1bc     libvcruntime:winapi_downlevel.obj
 0002:0000d1bc       $unwind$__vcrt_FlsAlloc    000000018003b1bc     libvcruntime:winapi_downlevel.obj
 0002:0000d1bc       $unwind$__acrt_FlsAlloc    000000018003b1bc     libucrt:winapi_thunks.obj
 0002:0000d1bc       $unwind$strncpy_s          000000018003b1bc     libucrt:strncpy_s.obj
 0002:0000d1bc       $unwind$_close_nolock      000000018003b1bc     libucrt:close.obj
 0002:0000d1bc       $unwind$?DloadGetSRWLockFunctionPointers@@YAEXZ 000000018003b1bc     DelayImp:delayhlp.obj
 0002:0000d1bc       $unwind$_realloc_base      000000018003b1bc     libucrt:realloc_base.obj
 0002:0000d1bc       $unwind$__acrt_getptd      000000018003b1bc     libucrt:per_thread_data.obj
 0002:0000d1bc       $unwind$__acrt_invoke_user_matherr 000000018003b1bc     libucrt:matherr.obj
 0002:0000d1bc       $unwind$??_Gbad_array_new_length@std@@UEAAPEAXI@Z 000000018003b1bc     LIBCMT:throw_bad_alloc.obj
 0002:0000d1bc       $unwind$?DloadAcquireSectionWriteAccess@@YAXXZ 000000018003b1bc     DelayImp:delayhlp.obj
 0002:0000d1bc       $unwind$_callnewh          000000018003b1bc     libucrt:new_handler.obj
 0002:0000d1c8       $unwind$?GetterCallbackWrapper@imp@Nan@@YAXV?$Local@VName@v8@@@v8@@AEBV?$PropertyCallbackInfo@VValue@v8@@@4@@Z 000000018003b1c8     image.obj
 0002:0000d1d4       $unwind$?SetterCallbackWrapper@imp@Nan@@YAXV?$Local@VName@v8@@@v8@@V?$Local@VValue@v8@@@4@AEBV?$PropertyCallbackInfo@X@4@@Z 000000018003b1d4     image.obj
 0002:0000d1e0       $unwind$?Set@Nan@@YA?AV?$Maybe@_N@v8@@V?$Local@VObject@v8@@@3@V?$Local@VValue@v8@@@3@1@Z 000000018003b1e0     image.obj
 0002:0000d1f8       $ip2state$?Set@Nan@@YA?AV?$Maybe@_N@v8@@V?$Local@VObject@v8@@@3@V?$Local@VValue@v8@@@3@1@Z 000000018003b1f8     image.obj
 0002:0000d210       $unwind$?Get@Nan@@YA?AV?$MaybeLocal@VValue@v8@@@v8@@V?$Local@VObject@v8@@@3@V?$Local@VValue@v8@@@3@@Z 000000018003b210     image.obj
 0002:0000d228       $ip2state$?Get@Nan@@YA?AV?$MaybeLocal@VValue@v8@@@v8@@V?$Local@VObject@v8@@@3@V?$Local@VValue@v8@@@3@@Z 000000018003b228     image.obj
 0002:0000d240       $unwind$?SetPrototypeMethod@Nan@@YAXV?$Local@VFunctionTemplate@v8@@@v8@@PEBDP6AXAEBV?$FunctionCallbackInfo@VValue@v8@@@1@@Z@Z 000000018003b240     image.obj
 0002:0000d254       $stateUnwindMap$?GetSupportedExtensions@webgl@@YAXAEBV?$FunctionCallbackInfo@VValue@v8@@@Nan@@@Z 000000018003b254     webgl.obj
 0002:0000d254       $stateUnwindMap$?VertexAttribPointer@webgl@@YAXAEBV?$FunctionCallbackInfo@VValue@v8@@@Nan@@@Z 000000018003b254     webgl.obj
 0002:0000d254       $stateUnwindMap$?FramebufferTexture2D@webgl@@YAXAEBV?$FunctionCallbackInfo@VValue@v8@@@Nan@@@Z 000000018003b254     webgl.obj
 0002:0000d254       $stateUnwindMap$?VertexAttrib2fv@webgl@@YAXAEBV?$FunctionCallbackInfo@VValue@v8@@@Nan@@@Z 000000018003b254     webgl.obj
 0002:0000d254       $stateUnwindMap$?Uniform4i@webgl@@YAXAEBV?$FunctionCallbackInfo@VValue@v8@@@Nan@@@Z 000000018003b254     webgl.obj
 0002:0000d254       $stateUnwindMap$?VertexAttrib1fv@webgl@@YAXAEBV?$FunctionCallbackInfo@VValue@v8@@@Nan@@@Z 000000018003b254     webgl.obj
 0002:0000d254       $stateUnwindMap$?VertexAttrib4f@webgl@@YAXAEBV?$FunctionCallbackInfo@VValue@v8@@@Nan@@@Z 000000018003b254     webgl.obj
 0002:0000d254       $stateUnwindMap$?BufferData@webgl@@YAXAEBV?$FunctionCallbackInfo@VValue@v8@@@Nan@@@Z 000000018003b254     webgl.obj
 0002:0000d254       $stateUnwindMap$?VertexAttrib4fv@webgl@@YAXAEBV?$FunctionCallbackInfo@VValue@v8@@@Nan@@@Z 000000018003b254     webgl.obj
 0002:0000d254       $stateUnwindMap$?SrcGetter@Image@@KAXV?$Local@VString@v8@@@v8@@AEBV?$PropertyCallbackInfo@VValue@v8@@@Nan@@@Z 000000018003b254     image.obj
 0002:0000d254       $stateUnwindMap$?VertexAttrib3fv@webgl@@YAXAEBV?$FunctionCallbackInfo@VValue@v8@@@Nan@@@Z 000000018003b254     webgl.obj
 0002:0000d254       $stateUnwindMap$?SetPrototypeMethod@Nan@@YAXV?$Local@VFunctionTemplate@v8@@@v8@@PEBDP6AXAEBV?$FunctionCallbackInfo@VValue@v8@@@1@@Z@Z 000000018003b254     image.obj
 0002:0000d254       $stateUnwindMap$?ThrowTypeError@Nan@@YAXPEBD@Z 000000018003b254     webgl.obj
 0002:0000d254       $stateUnwindMap$?ThrowError@Nan@@YAXPEBD@Z 000000018003b254     webgl.obj
 0002:0000d254       $stateUnwindMap$?Uniform4f@webgl@@YAXAEBV?$FunctionCallbackInfo@VValue@v8@@@Nan@@@Z 000000018003b254     webgl.obj
 0002:0000d254       $stateUnwindMap$?BufferSubData@webgl@@YAXAEBV?$FunctionCallbackInfo@VValue@v8@@@Nan@@@Z 000000018003b254     webgl.obj
 0002:0000d254       $stateUnwindMap$?GetShaderSource@webgl@@YAXAEBV?$FunctionCallbackInfo@VValue@v8@@@Nan@@@Z 000000018003b254     webgl.obj
 0002:0000d260       $ip2state$?SetPrototypeMethod@Nan@@YAXV?$Local@VFunctionTemplate@v8@@@v8@@PEBDP6AXAEBV?$FunctionCallbackInfo@VValue@v8@@@1@@Z@Z 000000018003b260     image.obj
 0002:0000d278       $unwind$?SetAccessor@Nan@@YAXV?$Local@VObjectTemplate@v8@@@v8@@V?$Local@VString@v8@@@3@P6AX1AEBV?$PropertyCallbackInfo@VValue@v8@@@1@@ZP6AX1V?$Local@VValue@v8@@@3@AEBV?$PropertyCallbackInfo@X@1@@Z4W4AccessControl@3@W4PropertyAttribute@3@V?$Local@VAccessorSignature@v8@@@3@@Z 000000018003b278     image.obj
 0002:0000d290       $stateUnwindMap$?SetAccessor@Nan@@YAXV?$Local@VObjectTemplate@v8@@@v8@@V?$Local@VString@v8@@@3@P6AX1AEBV?$PropertyCallbackInfo@VValue@v8@@@1@@ZP6AX1V?$Local@VValue@v8@@@3@AEBV?$PropertyCallbackInfo@X@1@@Z4W4AccessControl@3@W4PropertyAttribute@3@V?$Local@VAccessorSignature@v8@@@3@@Z 000000018003b290     image.obj
 0002:0000d290       $stateUnwindMap$?TexImage2D@webgl@@YAXAEBV?$FunctionCallbackInfo@VValue@v8@@@Nan@@@Z 000000018003b290     webgl.obj
 0002:0000d290       $stateUnwindMap$?TexSubImage2D@webgl@@YAXAEBV?$FunctionCallbackInfo@VValue@v8@@@Nan@@@Z 000000018003b290     webgl.obj
 0002:0000d290       $stateUnwindMap$?GetParameter@webgl@@YAXAEBV?$FunctionCallbackInfo@VValue@v8@@@Nan@@@Z 000000018003b290     webgl.obj
 0002:0000d290       $stateUnwindMap$?Initialize@Image@@SAXV?$Local@VObject@v8@@@v8@@@Z 000000018003b290     image.obj
 0002:0000d298       $ip2state$?SetAccessor@Nan@@YAXV?$Local@VObjectTemplate@v8@@@v8@@V?$Local@VString@v8@@@3@P6AX1AEBV?$PropertyCallbackInfo@VValue@v8@@@1@@ZP6AX1V?$Local@VValue@v8@@@3@AEBV?$PropertyCallbackInfo@X@1@@Z4W4AccessControl@3@W4PropertyAttribute@3@V?$Local@VAccessorSignature@v8@@@3@@Z 000000018003b298     image.obj
 0002:0000d2b0       $unwind$_set_errno_from_matherr 000000018003b2b0     libucrt:fpexcept.obj
 0002:0000d2b0       $unwind$??__Eimages@@YAXXZ 000000018003b2b0     image.obj
 0002:0000d2b0       $unwind$?deallocate@?$_Wrap_alloc@V?$allocator@PEAVImage@@@std@@@std@@QEAAXPEAPEAVImage@@_K@Z 000000018003b2b0     image.obj
 0002:0000d2b0       $unwind$__dcrt_uninitialize_environments_nolock 000000018003b2b0     libucrt:environment_initialization.obj
 0002:0000d2b0       $unwind$?_Reserve@?$vector@PEAVImage@@V?$allocator@PEAVImage@@@std@@@std@@IEAAX_K@Z 000000018003b2b0     image.obj
 0002:0000d2b0       $unwind$__acrt_initialize_multibyte 000000018003b2b0     libucrt:mbctype.obj
 0002:0000d2b0       $unwind$__scrt_acquire_startup_lock 000000018003b2b0     LIBCMT:utility.obj
 0002:0000d2b0       $unwind$?dllmain_crt_dispatch@@YAHQEAUHINSTANCE__@@KQEAX@Z 000000018003b2b0     LIBCMT:dll_dllmain.obj
 0002:0000d2b0       $unwind$?state_case_size@?$output_processor@_WV?$stream_output_adapter@_W@__crt_stdio_output@@V?$standard_base@_WV?$stream_output_adapter@_W@__crt_stdio_output@@@2@@__crt_stdio_output@@AEAA_NXZ 000000018003b2b0     libucrt:output.obj
 0002:0000d2b0       $unwind$??$uninitialize_environment_internal@D@@YAXAEAPEAPEAD@Z 000000018003b2b0     libucrt:environment_initialization.obj
 0002:0000d2b0       $unwind$??__Eglobjs@webgl@@YAXXZ 000000018003b2b0     webgl.obj
 0002:0000d2b0       $unwind$??__Fglobjs@webgl@@YAXXZ 000000018003b2b0     webgl.obj
 0002:0000d2b0       $unwind$??$uninitialize_environment_internal@_W@@YAXAEAPEAPEA_W@Z 000000018003b2b0     libucrt:environment_initialization.obj
 0002:0000d2b0       $unwind$__acrt_uninitialize_critical 000000018003b2b0     libucrt:initialization.obj
 0002:0000d2b0       $unwind$?_Reserve@?$vector@PEAUGLObj@webgl@@V?$allocator@PEAUGLObj@webgl@@@std@@@std@@IEAAX_K@Z 000000018003b2b0     webgl.obj
 0002:0000d2b0       $unwind$__acrt_thread_attach 000000018003b2b0     libucrt:initialization.obj
 0002:0000d2b0       $unwind$?deallocate@?$_Wrap_alloc@V?$allocator@PEAUGLObj@webgl@@@std@@@std@@QEAAXPEAPEAUGLObj@webgl@@_K@Z 000000018003b2b0     webgl.obj
 0002:0000d2b0       $unwind$__acrt_thread_detach 000000018003b2b0     libucrt:initialization.obj
 0002:0000d2b0       $unwind$__acrt_initialize_command_line 000000018003b2b0     libucrt:argv_data.obj
 0002:0000d2b0       $unwind$initialize_c       000000018003b2b0     libucrt:initialization.obj
 0002:0000d2b0       $unwind$atexit             000000018003b2b0     LIBCMT:utility.obj
 0002:0000d2b0       $unwind$abort              000000018003b2b0     libucrt:abort.obj
 0002:0000d2b0       $unwind$_stricmp           000000018003b2b0     libucrt:stricmp.obj
 0002:0000d2b0       $unwind$_get_osfhandle     000000018003b2b0     libucrt:osfinfo.obj
 0002:0000d2b0       $unwind$__vcrt_uninitialize_critical 000000018003b2b0     libvcruntime:initialization.obj
 0002:0000d2b0       $unwind$__scrt_dllmain_before_initialize_c 000000018003b2b0     LIBCMT:utility.obj
 0002:0000d2b0       $unwind$_statfp            000000018003b2b0     libucrt:fpctrl.obj
 0002:0000d2b0       $unwind$__scrt_initialize_default_local_stdio_options 000000018003b2b0     LIBCMT:default_local_stdio_options.obj
 0002:0000d2b0       $unwind$_set_error_mode    000000018003b2b0     libucrt:set_error_mode.obj
 0002:0000d2b0       $unwind$_GetThrowImageBase 000000018003b2b0     libvcruntime:trnsctrl.obj
 0002:0000d2b0       $unwind$_isatty            000000018003b2b0     libucrt:isatty.obj
 0002:0000d2b0       $unwind$uninitialize_environment 000000018003b2b0     libucrt:initialization.obj
 0002:0000d2b0       $unwind$?state_case_size@?$output_processor@DV?$stream_output_adapter@D@__crt_stdio_output@@V?$standard_base@DV?$stream_output_adapter@D@__crt_stdio_output@@@2@@__crt_stdio_output@@AEAA_NXZ 000000018003b2b0     libucrt:output.obj
 0002:0000d2b0       $unwind$_GetImageBase      000000018003b2b0     libvcruntime:trnsctrl.obj
 0002:0000d2b0       $unwind$__scrt_dllmain_uninitialize_c 000000018003b2b0     LIBCMT:utility.obj
 0002:0000d2b0       $unwind$__GSHandlerCheck   000000018003b2b0     LIBCMT:_gshandler_.obj
 0002:0000d2b0       $unwind$__scrt_dllmain_uninitialize_critical 000000018003b2b0     LIBCMT:utility.obj
 0002:0000d2b0       $unwind$__acrt_release_locale_ref 000000018003b2b0     libucrt:locale_refcounting.obj
 0002:0000d2b0       $unwind$__doserrno         000000018003b2b0     libucrt:errno.obj
 0002:0000d2b0       $unwind$__scrt_dllmain_crt_thread_attach 000000018003b2b0     LIBCMT:utility.obj
 0002:0000d2b0       $unwind$_invoke_watson     000000018003b2b0     libucrt:invalid_parameter.obj
 0002:0000d2b0       $unwind$__scrt_dllmain_crt_thread_detach 000000018003b2b0     LIBCMT:utility.obj
 0002:0000d2b0       $unwind$__acrt_DownlevelLocaleNameToLCID 000000018003b2b0     libucrt:lcidtoname_downlevel.obj
 0002:0000d2b0       $unwind$__acrt_initialize_heap 000000018003b2b0     libucrt:heap_handle.obj
 0002:0000d2b0       $unwind$_msize             000000018003b2b0     libucrt:msize.obj
 0002:0000d2b0       $unwind$??__Fimages@@YAXXZ 000000018003b2b0     image.obj
 0002:0000d2b0       $unwind$__std_terminate    000000018003b2b0     libvcruntime:frame.obj
 0002:0000d2b0       $unwind$tolower            000000018003b2b0     libucrt:tolower_toupper.obj
 0002:0000d2b0       $unwind$__report_rangecheckfailure 000000018003b2b0     LIBCMT:gs_report.obj
 0002:0000d2b0       $unwind$?__GetCurrentState@@YAHPEA_KPEAU_xDISPATCHER_CONTEXT@@PEBU_s_FuncInfo@@@Z 000000018003b2b0     libvcruntime:ehstate.obj
 0002:0000d2b0       $unwind$__FrameUnwindFilter 000000018003b2b0     libvcruntime:frame.obj
 0002:0000d2b0       $unwind$?state_case_size@?$output_processor@_WV?$string_output_adapter@_W@__crt_stdio_output@@V?$standard_base@_WV?$string_output_adapter@_W@__crt_stdio_output@@@2@@__crt_stdio_output@@AEAA_NXZ 000000018003b2b0     libucrt:output.obj
 0002:0000d2b0       $unwind$__acrt_initialize_ptd 000000018003b2b0     libucrt:per_thread_data.obj
 0002:0000d2b0       $unwind$__vcrt_freefls     000000018003b2b0     libvcruntime:per_thread_data.obj
 0002:0000d2b0       $unwind$__vcrt_initialize  000000018003b2b0     libvcruntime:initialization.obj
 0002:0000d2b0       $unwind$?validate_stream_is_ansi_if_required@?$__acrt_stdio_char_traits@D@@SA_NQEAU_iobuf@@@Z 000000018003b2b0     libucrt:output.obj
 0002:0000d2b0       $unwind$__vcrt_getptd      000000018003b2b0     libvcruntime:per_thread_data.obj
 0002:0000d2b0       $unwind$__vcrt_uninitialize_ptd 000000018003b2b0     libvcruntime:per_thread_data.obj
 0002:0000d2b0       $unwind$__vcrt_initialize_ptd 000000018003b2b0     libvcruntime:per_thread_data.obj
 0002:0000d2b0       $unwind$__acrt_uninitialize_ptd 000000018003b2b0     libucrt:per_thread_data.obj
 0002:0000d2b0       $unwind$__vcrt_thread_detach 000000018003b2b0     libvcruntime:initialization.obj
 0002:0000d2b0       $unwind$?initialize_multibyte@@YAHXZ 000000018003b2b0     libucrt:multibyte_initializer.obj
 0002:0000d2b0       $unwind$__dcrt_terminate_console_output 000000018003b2b0     libucrt:initcon.obj
 0002:0000d2b0       $unwind$_fileno            000000018003b2b0     libucrt:fileno.obj
 0002:0000d2b0       $unwind$_getfpcontrolword  000000018003b2b0     libucrt:_fenvutils.obj
 0002:0000d2b0       $unwind$__vcrt_thread_attach 000000018003b2b0     libvcruntime:initialization.obj
 0002:0000d2b0       $unwind$_getfpstatusword   000000018003b2b0     libucrt:_fenvutils.obj
 0002:0000d2b0       $unwind$__vcrt_uninitialize 000000018003b2b0     libvcruntime:initialization.obj
 0002:0000d2b0       $unwind$_errno             000000018003b2b0     libucrt:errno.obj
 0002:0000d2b0       $unwind$__pctype_func      000000018003b2b0     libucrt:ctype.obj
 0002:0000d2b0       $unwind$__scrt_dllmain_after_initialize_c 000000018003b2b0     LIBCMT:utility.obj
 0002:0000d2b8       $unwind$__acrt_locale_free_lc_time_if_unreferenced 000000018003b2b8     libucrt:locale_refcounting.obj
 0002:0000d2b8       $unwind$?registerImage@@YAXPEAVImage@@@Z 000000018003b2b8     image.obj
 0002:0000d2b8       $unwind$?destroy_fls@@YAXPEAX@Z 000000018003b2b8     libucrt:per_thread_data.obj
 0002:0000d2b8       $unwind$__acrt_locale_free_numeric 000000018003b2b8     libucrt:initnum.obj
 0002:0000d2b8       $unwind$_free_base         000000018003b2b8     libucrt:free_base.obj
 0002:0000d2c0       $unwind$??__F?constructor_template@Image@@0V?$Persistent@VFunction@v8@@V?$NonCopyablePersistentTraits@VFunction@v8@@@2@@v8@@A@@YAXXZ 000000018003b2c0     image.obj
 0002:0000d2d0       $ip2state$??__F?constructor_template@Image@@0V?$Persistent@VFunction@v8@@V?$NonCopyablePersistentTraits@VFunction@v8@@@2@@v8@@A@@YAXXZ 000000018003b2d0     image.obj
 0002:0000d2d8       $unwind$?Initialize@Image@@SAXV?$Local@VObject@v8@@@v8@@@Z 000000018003b2d8     image.obj
 0002:0000d2f0       $ip2state$?Initialize@Image@@SAXV?$Local@VObject@v8@@@v8@@@Z 000000018003b2f0     image.obj
 0002:0000d308       $unwind$?New@Image@@KAXAEBV?$FunctionCallbackInfo@VValue@v8@@@Nan@@@Z 000000018003b308     image.obj
 0002:0000d31c       $stateUnwindMap$?CheckFramebufferStatus@webgl@@YAXAEBV?$FunctionCallbackInfo@VValue@v8@@@Nan@@@Z 000000018003b31c     webgl.obj
 0002:0000d31c       $stateUnwindMap$?GetError@webgl@@YAXAEBV?$FunctionCallbackInfo@VValue@v8@@@Nan@@@Z 000000018003b31c     webgl.obj
 0002:0000d31c       $stateUnwindMap$?IsFramebuffer@webgl@@YAXAEBV?$FunctionCallbackInfo@VValue@v8@@@Nan@@@Z 000000018003b31c     webgl.obj
 0002:0000d31c       $stateUnwindMap$?Init@webgl@@YAXAEBV?$FunctionCallbackInfo@VValue@v8@@@Nan@@@Z 000000018003b31c     webgl.obj
 0002:0000d31c       $stateUnwindMap$?Uniform3f@webgl@@YAXAEBV?$FunctionCallbackInfo@VValue@v8@@@Nan@@@Z 000000018003b31c     webgl.obj
 0002:0000d31c       $stateUnwindMap$?Uniform1f@webgl@@YAXAEBV?$FunctionCallbackInfo@VValue@v8@@@Nan@@@Z 000000018003b31c     webgl.obj
 0002:0000d31c       $stateUnwindMap$?BlendEquationSeparate@webgl@@YAXAEBV?$FunctionCallbackInfo@VValue@v8@@@Nan@@@Z 000000018003b31c     webgl.obj
 0002:0000d31c       $stateUnwindMap$?GenerateMipmap@webgl@@YAXAEBV?$FunctionCallbackInfo@VValue@v8@@@Nan@@@Z 000000018003b31c     webgl.obj
 0002:0000d31c       $stateUnwindMap$?CreateBuffer@webgl@@YAXAEBV?$FunctionCallbackInfo@VValue@v8@@@Nan@@@Z 000000018003b31c     webgl.obj
 0002:0000d31c       $stateUnwindMap$?Uniform3i@webgl@@YAXAEBV?$FunctionCallbackInfo@VValue@v8@@@Nan@@@Z 000000018003b31c     webgl.obj
 0002:0000d31c       $stateUnwindMap$?RenderbufferStorage@webgl@@YAXAEBV?$FunctionCallbackInfo@VValue@v8@@@Nan@@@Z 000000018003b31c     webgl.obj
 0002:0000d31c       $stateUnwindMap$?Uniform2iv@webgl@@YAXAEBV?$FunctionCallbackInfo@VValue@v8@@@Nan@@@Z 000000018003b31c     webgl.obj
 0002:0000d31c       $stateUnwindMap$?BlendFunc@webgl@@YAXAEBV?$FunctionCallbackInfo@VValue@v8@@@Nan@@@Z 000000018003b31c     webgl.obj
 0002:0000d31c       $stateUnwindMap$?GetFramebufferAttachmentParameter@webgl@@YAXAEBV?$FunctionCallbackInfo@VValue@v8@@@Nan@@@Z 000000018003b31c     webgl.obj
 0002:0000d31c       $stateUnwindMap$?PitchGetter@Image@@KAXV?$Local@VString@v8@@@v8@@AEBV?$PropertyCallbackInfo@VValue@v8@@@Nan@@@Z 000000018003b31c     image.obj
 0002:0000d31c       $stateUnwindMap$?ActiveTexture@webgl@@YAXAEBV?$FunctionCallbackInfo@VValue@v8@@@Nan@@@Z 000000018003b31c     webgl.obj
 0002:0000d31c       $stateUnwindMap$?Disable@webgl@@YAXAEBV?$FunctionCallbackInfo@VValue@v8@@@Nan@@@Z 000000018003b31c     webgl.obj
 0002:0000d31c       $stateUnwindMap$?CreateFramebuffer@webgl@@YAXAEBV?$FunctionCallbackInfo@VValue@v8@@@Nan@@@Z 000000018003b31c     webgl.obj
 0002:0000d31c       $stateUnwindMap$?HeightGetter@Image@@KAXV?$Local@VString@v8@@@v8@@AEBV?$PropertyCallbackInfo@VValue@v8@@@Nan@@@Z 000000018003b31c     image.obj
 0002:0000d31c       $stateUnwindMap$?StencilOpSeparate@webgl@@YAXAEBV?$FunctionCallbackInfo@VValue@v8@@@Nan@@@Z 000000018003b31c     webgl.obj
 0002:0000d31c       $stateUnwindMap$?UniformMatrix4fv@webgl@@YAXAEBV?$FunctionCallbackInfo@VValue@v8@@@Nan@@@Z 000000018003b31c     webgl.obj
 0002:0000d31c       $stateUnwindMap$?Enable@webgl@@YAXAEBV?$FunctionCallbackInfo@VValue@v8@@@Nan@@@Z 000000018003b31c     webgl.obj
 0002:0000d31c       $stateUnwindMap$?Viewport@webgl@@YAXAEBV?$FunctionCallbackInfo@VValue@v8@@@Nan@@@Z 000000018003b31c     webgl.obj
 0002:0000d31c       $stateUnwindMap$?EnableVertexAttribArray@webgl@@YAXAEBV?$FunctionCallbackInfo@VValue@v8@@@Nan@@@Z 000000018003b31c     webgl.obj
 0002:0000d31c       $stateUnwindMap$?IsTexture@webgl@@YAXAEBV?$FunctionCallbackInfo@VValue@v8@@@Nan@@@Z 000000018003b31c     webgl.obj
 0002:0000d31c       $stateUnwindMap$?ClearStencil@webgl@@YAXAEBV?$FunctionCallbackInfo@VValue@v8@@@Nan@@@Z 000000018003b31c     webgl.obj
 0002:0000d31c       $stateUnwindMap$?Uniform4iv@webgl@@YAXAEBV?$FunctionCallbackInfo@VValue@v8@@@Nan@@@Z 000000018003b31c     webgl.obj
 0002:0000d31c       $stateUnwindMap$?WidthGetter@Image@@KAXV?$Local@VString@v8@@@v8@@AEBV?$PropertyCallbackInfo@VValue@v8@@@Nan@@@Z 000000018003b31c     image.obj
 0002:0000d31c       $stateUnwindMap$?BindBuffer@webgl@@YAXAEBV?$FunctionCallbackInfo@VValue@v8@@@Nan@@@Z 000000018003b31c     webgl.obj
 0002:0000d31c       $stateUnwindMap$?Uniform1iv@webgl@@YAXAEBV?$FunctionCallbackInfo@VValue@v8@@@Nan@@@Z 000000018003b31c     webgl.obj
 0002:0000d31c       $stateUnwindMap$?StencilFuncSeparate@webgl@@YAXAEBV?$FunctionCallbackInfo@VValue@v8@@@Nan@@@Z 000000018003b31c     webgl.obj
 0002:0000d31c       $stateUnwindMap$?GetTexParameter@webgl@@YAXAEBV?$FunctionCallbackInfo@VValue@v8@@@Nan@@@Z 000000018003b31c     webgl.obj
 0002:0000d31c       $stateUnwindMap$?FramebufferRenderbuffer@webgl@@YAXAEBV?$FunctionCallbackInfo@VValue@v8@@@Nan@@@Z 000000018003b31c     webgl.obj
 0002:0000d31c       $stateUnwindMap$?Flush@webgl@@YAXAEBV?$FunctionCallbackInfo@VValue@v8@@@Nan@@@Z 000000018003b31c     webgl.obj
 0002:0000d31c       $stateUnwindMap$?DepthFunc@webgl@@YAXAEBV?$FunctionCallbackInfo@VValue@v8@@@Nan@@@Z 000000018003b31c     webgl.obj
 0002:0000d31c       $stateUnwindMap$?ClearColor@webgl@@YAXAEBV?$FunctionCallbackInfo@VValue@v8@@@Nan@@@Z 000000018003b31c     webgl.obj
 0002:0000d31c       $stateUnwindMap$?UniformMatrix3fv@webgl@@YAXAEBV?$FunctionCallbackInfo@VValue@v8@@@Nan@@@Z 000000018003b31c     webgl.obj
 0002:0000d31c       $stateUnwindMap$?Uniform2i@webgl@@YAXAEBV?$FunctionCallbackInfo@VValue@v8@@@Nan@@@Z 000000018003b31c     webgl.obj
 0002:0000d31c       $stateUnwindMap$?StencilMaskSeparate@webgl@@YAXAEBV?$FunctionCallbackInfo@VValue@v8@@@Nan@@@Z 000000018003b31c     webgl.obj
 0002:0000d31c       $stateUnwindMap$?DetachShader@webgl@@YAXAEBV?$FunctionCallbackInfo@VValue@v8@@@Nan@@@Z 000000018003b31c     webgl.obj
 0002:0000d31c       $stateUnwindMap$?DepthRange@webgl@@YAXAEBV?$FunctionCallbackInfo@VValue@v8@@@Nan@@@Z 000000018003b31c     webgl.obj
 0002:0000d31c       $stateUnwindMap$?DeleteTexture@webgl@@YAXAEBV?$FunctionCallbackInfo@VValue@v8@@@Nan@@@Z 000000018003b31c     webgl.obj
 0002:0000d31c       $stateUnwindMap$?UniformMatrix2fv@webgl@@YAXAEBV?$FunctionCallbackInfo@VValue@v8@@@Nan@@@Z 000000018003b31c     webgl.obj
 0002:0000d31c       $stateUnwindMap$?Uniform4fv@webgl@@YAXAEBV?$FunctionCallbackInfo@VValue@v8@@@Nan@@@Z 000000018003b31c     webgl.obj
 0002:0000d31c       $stateUnwindMap$?PixelStorei@webgl@@YAXAEBV?$FunctionCallbackInfo@VValue@v8@@@Nan@@@Z 000000018003b31c     webgl.obj
 0002:0000d31c       $stateUnwindMap$?GetRenderbufferParameter@webgl@@YAXAEBV?$FunctionCallbackInfo@VValue@v8@@@Nan@@@Z 000000018003b31c     webgl.obj
 0002:0000d31c       $stateUnwindMap$?IsEnabled@webgl@@YAXAEBV?$FunctionCallbackInfo@VValue@v8@@@Nan@@@Z 000000018003b31c     webgl.obj
 0002:0000d31c       $stateUnwindMap$?GetVertexAttribOffset@webgl@@YAXAEBV?$FunctionCallbackInfo@VValue@v8@@@Nan@@@Z 000000018003b31c     webgl.obj
 0002:0000d31c       $stateUnwindMap$?New@Image@@KAXAEBV?$FunctionCallbackInfo@VValue@v8@@@Nan@@@Z 000000018003b31c     image.obj
 0002:0000d31c       $stateUnwindMap$?Scissor@webgl@@YAXAEBV?$FunctionCallbackInfo@VValue@v8@@@Nan@@@Z 000000018003b31c     webgl.obj
 0002:0000d31c       $stateUnwindMap$?DisableVertexAttribArray@webgl@@YAXAEBV?$FunctionCallbackInfo@VValue@v8@@@Nan@@@Z 000000018003b31c     webgl.obj
 0002:0000d31c       $stateUnwindMap$?BlendFuncSeparate@webgl@@YAXAEBV?$FunctionCallbackInfo@VValue@v8@@@Nan@@@Z 000000018003b31c     webgl.obj
 0002:0000d31c       $stateUnwindMap$?BindTexture@webgl@@YAXAEBV?$FunctionCallbackInfo@VValue@v8@@@Nan@@@Z 000000018003b31c     webgl.obj
 0002:0000d31c       $stateUnwindMap$?UseProgram@webgl@@YAXAEBV?$FunctionCallbackInfo@VValue@v8@@@Nan@@@Z 000000018003b31c     webgl.obj
 0002:0000d31c       $stateUnwindMap$?VertexAttrib2f@webgl@@YAXAEBV?$FunctionCallbackInfo@VValue@v8@@@Nan@@@Z 000000018003b31c     webgl.obj
 0002:0000d31c       $stateUnwindMap$?CreateShader@webgl@@YAXAEBV?$FunctionCallbackInfo@VValue@v8@@@Nan@@@Z 000000018003b31c     webgl.obj
 0002:0000d31c       $stateUnwindMap$?DeleteFramebuffer@webgl@@YAXAEBV?$FunctionCallbackInfo@VValue@v8@@@Nan@@@Z 000000018003b31c     webgl.obj
 0002:0000d31c       $stateUnwindMap$?BindRenderbuffer@webgl@@YAXAEBV?$FunctionCallbackInfo@VValue@v8@@@Nan@@@Z 000000018003b31c     webgl.obj
 0002:0000d31c       $stateUnwindMap$?CullFace@webgl@@YAXAEBV?$FunctionCallbackInfo@VValue@v8@@@Nan@@@Z 000000018003b31c     webgl.obj
 0002:0000d31c       $stateUnwindMap$?DepthMask@webgl@@YAXAEBV?$FunctionCallbackInfo@VValue@v8@@@Nan@@@Z 000000018003b31c     webgl.obj
 0002:0000d31c       $stateUnwindMap$?StencilMask@webgl@@YAXAEBV?$FunctionCallbackInfo@VValue@v8@@@Nan@@@Z 000000018003b31c     webgl.obj
 0002:0000d31c       $stateUnwindMap$?IsBuffer@webgl@@YAXAEBV?$FunctionCallbackInfo@VValue@v8@@@Nan@@@Z 000000018003b31c     webgl.obj
 0002:0000d31c       $stateUnwindMap$?Uniform2f@webgl@@YAXAEBV?$FunctionCallbackInfo@VValue@v8@@@Nan@@@Z 000000018003b31c     webgl.obj
 0002:0000d31c       $stateUnwindMap$?Uniform1fv@webgl@@YAXAEBV?$FunctionCallbackInfo@VValue@v8@@@Nan@@@Z 000000018003b31c     webgl.obj
 0002:0000d31c       $stateUnwindMap$?TexParameterf@webgl@@YAXAEBV?$FunctionCallbackInfo@VValue@v8@@@Nan@@@Z 000000018003b31c     webgl.obj
 0002:0000d31c       $stateUnwindMap$?ValidateProgram@webgl@@YAXAEBV?$FunctionCallbackInfo@VValue@v8@@@Nan@@@Z 000000018003b31c     webgl.obj
 0002:0000d31c       $stateUnwindMap$?ClearDepth@webgl@@YAXAEBV?$FunctionCallbackInfo@VValue@v8@@@Nan@@@Z 000000018003b31c     webgl.obj
 0002:0000d31c       $stateUnwindMap$?DeleteShader@webgl@@YAXAEBV?$FunctionCallbackInfo@VValue@v8@@@Nan@@@Z 000000018003b31c     webgl.obj
 0002:0000d31c       $stateUnwindMap$?AttachShader@webgl@@YAXAEBV?$FunctionCallbackInfo@VValue@v8@@@Nan@@@Z 000000018003b31c     webgl.obj
 0002:0000d31c       $stateUnwindMap$?Uniform3fv@webgl@@YAXAEBV?$FunctionCallbackInfo@VValue@v8@@@Nan@@@Z 000000018003b31c     webgl.obj
 0002:0000d31c       $stateUnwindMap$?CreateRenderbuffer@webgl@@YAXAEBV?$FunctionCallbackInfo@VValue@v8@@@Nan@@@Z 000000018003b31c     webgl.obj
 0002:0000d31c       $stateUnwindMap$?Uniform2fv@webgl@@YAXAEBV?$FunctionCallbackInfo@VValue@v8@@@Nan@@@Z 000000018003b31c     webgl.obj
 0002:0000d31c       $stateUnwindMap$?LineWidth@webgl@@YAXAEBV?$FunctionCallbackInfo@VValue@v8@@@Nan@@@Z 000000018003b31c     webgl.obj
 0002:0000d31c       $stateUnwindMap$?BlendEquation@webgl@@YAXAEBV?$FunctionCallbackInfo@VValue@v8@@@Nan@@@Z 000000018003b31c     webgl.obj
 0002:0000d31c       $stateUnwindMap$?LinkProgram@webgl@@YAXAEBV?$FunctionCallbackInfo@VValue@v8@@@Nan@@@Z 000000018003b31c     webgl.obj
 0002:0000d31c       $stateUnwindMap$?Uniform3iv@webgl@@YAXAEBV?$FunctionCallbackInfo@VValue@v8@@@Nan@@@Z 000000018003b31c     webgl.obj
 0002:0000d31c       $stateUnwindMap$?PolygonOffset@webgl@@YAXAEBV?$FunctionCallbackInfo@VValue@v8@@@Nan@@@Z 000000018003b31c     webgl.obj
 0002:0000d31c       $stateUnwindMap$?Clear@webgl@@YAXAEBV?$FunctionCallbackInfo@VValue@v8@@@Nan@@@Z 000000018003b31c     webgl.obj
 0002:0000d31c       $stateUnwindMap$?FrontFace@webgl@@YAXAEBV?$FunctionCallbackInfo@VValue@v8@@@Nan@@@Z 000000018003b31c     webgl.obj
 0002:0000d31c       $stateUnwindMap$?Finish@webgl@@YAXAEBV?$FunctionCallbackInfo@VValue@v8@@@Nan@@@Z 000000018003b31c     webgl.obj
 0002:0000d31c       $stateUnwindMap$?IsProgram@webgl@@YAXAEBV?$FunctionCallbackInfo@VValue@v8@@@Nan@@@Z 000000018003b31c     webgl.obj
 0002:0000d31c       $stateUnwindMap$?VertexAttrib3f@webgl@@YAXAEBV?$FunctionCallbackInfo@VValue@v8@@@Nan@@@Z 000000018003b31c     webgl.obj
 0002:0000d31c       $stateUnwindMap$?DeleteRenderbuffer@webgl@@YAXAEBV?$FunctionCallbackInfo@VValue@v8@@@Nan@@@Z 000000018003b31c     webgl.obj
 0002:0000d31c       $stateUnwindMap$?DrawElements@webgl@@YAXAEBV?$FunctionCallbackInfo@VValue@v8@@@Nan@@@Z 000000018003b31c     webgl.obj
 0002:0000d31c       $stateUnwindMap$?CompileShader@webgl@@YAXAEBV?$FunctionCallbackInfo@VValue@v8@@@Nan@@@Z 000000018003b31c     webgl.obj
 0002:0000d31c       $stateUnwindMap$?BlendColor@webgl@@YAXAEBV?$FunctionCallbackInfo@VValue@v8@@@Nan@@@Z 000000018003b31c     webgl.obj
 0002:0000d31c       $stateUnwindMap$?GetShaderParameter@webgl@@YAXAEBV?$FunctionCallbackInfo@VValue@v8@@@Nan@@@Z 000000018003b31c     webgl.obj
 0002:0000d31c       $stateUnwindMap$?DeleteProgram@webgl@@YAXAEBV?$FunctionCallbackInfo@VValue@v8@@@Nan@@@Z 000000018003b31c     webgl.obj
 0002:0000d31c       $stateUnwindMap$?TexParameteri@webgl@@YAXAEBV?$FunctionCallbackInfo@VValue@v8@@@Nan@@@Z 000000018003b31c     webgl.obj
 0002:0000d31c       $stateUnwindMap$?Uniform1i@webgl@@YAXAEBV?$FunctionCallbackInfo@VValue@v8@@@Nan@@@Z 000000018003b31c     webgl.obj
 0002:0000d31c       $stateUnwindMap$?CreateTexture@webgl@@YAXAEBV?$FunctionCallbackInfo@VValue@v8@@@Nan@@@Z 000000018003b31c     webgl.obj
 0002:0000d31c       $stateUnwindMap$?StencilFunc@webgl@@YAXAEBV?$FunctionCallbackInfo@VValue@v8@@@Nan@@@Z 000000018003b31c     webgl.obj
 0002:0000d31c       $stateUnwindMap$?StencilOp@webgl@@YAXAEBV?$FunctionCallbackInfo@VValue@v8@@@Nan@@@Z 000000018003b31c     webgl.obj
 0002:0000d31c       $stateUnwindMap$?ColorMask@webgl@@YAXAEBV?$FunctionCallbackInfo@VValue@v8@@@Nan@@@Z 000000018003b31c     webgl.obj
 0002:0000d31c       $stateUnwindMap$?BindFramebuffer@webgl@@YAXAEBV?$FunctionCallbackInfo@VValue@v8@@@Nan@@@Z 000000018003b31c     webgl.obj
 0002:0000d31c       $stateUnwindMap$?DeleteBuffer@webgl@@YAXAEBV?$FunctionCallbackInfo@VValue@v8@@@Nan@@@Z 000000018003b31c     webgl.obj
 0002:0000d31c       $stateUnwindMap$?GetProgramParameter@webgl@@YAXAEBV?$FunctionCallbackInfo@VValue@v8@@@Nan@@@Z 000000018003b31c     webgl.obj
 0002:0000d31c       $stateUnwindMap$?GetBufferParameter@webgl@@YAXAEBV?$FunctionCallbackInfo@VValue@v8@@@Nan@@@Z 000000018003b31c     webgl.obj
 0002:0000d31c       $stateUnwindMap$?IsRenderbuffer@webgl@@YAXAEBV?$FunctionCallbackInfo@VValue@v8@@@Nan@@@Z 000000018003b31c     webgl.obj
 0002:0000d31c       $stateUnwindMap$?Hint@webgl@@YAXAEBV?$FunctionCallbackInfo@VValue@v8@@@Nan@@@Z 000000018003b31c     webgl.obj
 0002:0000d31c       $stateUnwindMap$?VertexAttrib1f@webgl@@YAXAEBV?$FunctionCallbackInfo@VValue@v8@@@Nan@@@Z 000000018003b31c     webgl.obj
 0002:0000d31c       $stateUnwindMap$?DrawArrays@webgl@@YAXAEBV?$FunctionCallbackInfo@VValue@v8@@@Nan@@@Z 000000018003b31c     webgl.obj
 0002:0000d31c       $stateUnwindMap$?IsShader@webgl@@YAXAEBV?$FunctionCallbackInfo@VValue@v8@@@Nan@@@Z 000000018003b31c     webgl.obj
 0002:0000d31c       $stateUnwindMap$?CreateProgram@webgl@@YAXAEBV?$FunctionCallbackInfo@VValue@v8@@@Nan@@@Z 000000018003b31c     webgl.obj
 0002:0000d328       $ip2state$?New@Image@@KAXAEBV?$FunctionCallbackInfo@VValue@v8@@@Nan@@@Z 000000018003b328     image.obj
 0002:0000d340       $unwind$?WidthGetter@Image@@KAXV?$Local@VString@v8@@@v8@@AEBV?$PropertyCallbackInfo@VValue@v8@@@Nan@@@Z 000000018003b340     image.obj
 0002:0000d358       $ip2state$?WidthGetter@Image@@KAXV?$Local@VString@v8@@@v8@@AEBV?$PropertyCallbackInfo@VValue@v8@@@Nan@@@Z 000000018003b358     image.obj
 0002:0000d370       $unwind$?HeightGetter@Image@@KAXV?$Local@VString@v8@@@v8@@AEBV?$PropertyCallbackInfo@VValue@v8@@@Nan@@@Z 000000018003b370     image.obj
 0002:0000d388       $ip2state$?HeightGetter@Image@@KAXV?$Local@VString@v8@@@v8@@AEBV?$PropertyCallbackInfo@VValue@v8@@@Nan@@@Z 000000018003b388     image.obj
 0002:0000d3a0       $unwind$?PitchGetter@Image@@KAXV?$Local@VString@v8@@@v8@@AEBV?$PropertyCallbackInfo@VValue@v8@@@Nan@@@Z 000000018003b3a0     image.obj
 0002:0000d3b8       $ip2state$?PitchGetter@Image@@KAXV?$Local@VString@v8@@@v8@@AEBV?$PropertyCallbackInfo@VValue@v8@@@Nan@@@Z 000000018003b3b8     image.obj
 0002:0000d3d0       $unwind$?SrcGetter@Image@@KAXV?$Local@VString@v8@@@v8@@AEBV?$PropertyCallbackInfo@VValue@v8@@@Nan@@@Z 000000018003b3d0     image.obj
 0002:0000d3e8       $ip2state$?SrcGetter@Image@@KAXV?$Local@VString@v8@@@v8@@AEBV?$PropertyCallbackInfo@VValue@v8@@@Nan@@@Z 000000018003b3e8     image.obj
 0002:0000d400       $unwind$?SrcSetter@Image@@KAXV?$Local@VString@v8@@@v8@@V?$Local@VValue@v8@@@3@AEBV?$PropertyCallbackInfo@X@Nan@@@Z 000000018003b400     image.obj
 0002:0000d41c       $stateUnwindMap$?SrcSetter@Image@@KAXV?$Local@VString@v8@@@v8@@V?$Local@VValue@v8@@@3@AEBV?$PropertyCallbackInfo@X@Nan@@@Z 000000018003b41c     image.obj
 0002:0000d438       $ip2state$?SrcSetter@Image@@KAXV?$Local@VString@v8@@@v8@@V?$Local@VValue@v8@@@3@AEBV?$PropertyCallbackInfo@X@Nan@@@Z 000000018003b438     image.obj
 0002:0000d470       $unwind$?save@Image@@KAXAEBV?$FunctionCallbackInfo@VValue@v8@@@Nan@@@Z 000000018003b470     image.obj
 0002:0000d490       $stateUnwindMap$?save@Image@@KAXAEBV?$FunctionCallbackInfo@VValue@v8@@@Nan@@@Z 000000018003b490     image.obj
 0002:0000d4a0       $ip2state$?save@Image@@KAXAEBV?$FunctionCallbackInfo@VValue@v8@@@Nan@@@Z 000000018003b4a0     image.obj
 0002:0000d4c8       $chain$1$?AtExit@Image@@SAXXZ 000000018003b4c8     image.obj
 0002:0000d4e0       $chain$2$?AtExit@Image@@SAXXZ 000000018003b4e0     image.obj
 0002:0000d4f0       $chain$0$?_Reallocate@?$vector@PEAVImage@@V?$allocator@PEAVImage@@@std@@@std@@IEAAX_K@Z 000000018003b4f0     image.obj
 0002:0000d504       $chain$1$?_Reallocate@?$vector@PEAVImage@@V?$allocator@PEAVImage@@@std@@@std@@IEAAX_K@Z 000000018003b504     image.obj
 0002:0000d514       $unwind$??$Unwrap@VImage@@@ObjectWrap@node@@SAPEAVImage@@V?$Local@VObject@v8@@@v8@@@Z 000000018003b514     image.obj
 0002:0000d51c       $unwind$fwprintf           000000018003b51c     libucrt:assert.obj
 0002:0000d51c       $unwind$fprintf            000000018003b51c     webgl.obj
 0002:0000d528       $unwind$?ThrowError@Nan@@YAXPEBD@Z 000000018003b528     webgl.obj
 0002:0000d538       $ip2state$?ThrowError@Nan@@YAXPEBD@Z 000000018003b538     webgl.obj
 0002:0000d550       $unwind$?ThrowTypeError@Nan@@YAXPEBD@Z 000000018003b550     webgl.obj
 0002:0000d560       $ip2state$?ThrowTypeError@Nan@@YAXPEBD@Z 000000018003b560     webgl.obj
 0002:0000d578       $unwind$?getImageData@webgl@@YAPEAXV?$Local@VValue@v8@@@v8@@@Z 000000018003b578     webgl.obj
 0002:0000d578       $unwind$??0length_error@std@@QEAA@PEBD@Z 000000018003b578     libcpmt:xthrow.obj
 0002:0000d578       $unwind$??$common_xtox_s@K_W@@YAHKQEA_W_KI_N@Z 000000018003b578     libucrt:xtoa.obj
 0002:0000d578       $unwind$wcstol             000000018003b578     libucrt:strtox.obj
 0002:0000d578       $unwind$strtol             000000018003b578     libucrt:strtox.obj
 0002:0000d580       $unwind$?Init@webgl@@YAXAEBV?$FunctionCallbackInfo@VValue@v8@@@Nan@@@Z 000000018003b580     webgl.obj
 0002:0000d598       $ip2state$?Init@webgl@@YAXAEBV?$FunctionCallbackInfo@VValue@v8@@@Nan@@@Z 000000018003b598     webgl.obj
 0002:0000d5b0       $unwind$?Uniform1f@webgl@@YAXAEBV?$FunctionCallbackInfo@VValue@v8@@@Nan@@@Z 000000018003b5b0     webgl.obj
 0002:0000d5c8       $ip2state$?Uniform1f@webgl@@YAXAEBV?$FunctionCallbackInfo@VValue@v8@@@Nan@@@Z 000000018003b5c8     webgl.obj
 0002:0000d5e0       $unwind$?Uniform2f@webgl@@YAXAEBV?$FunctionCallbackInfo@VValue@v8@@@Nan@@@Z 000000018003b5e0     webgl.obj
 0002:0000d5f8       $ip2state$?Uniform2f@webgl@@YAXAEBV?$FunctionCallbackInfo@VValue@v8@@@Nan@@@Z 000000018003b5f8     webgl.obj
 0002:0000d610       $unwind$?Uniform3f@webgl@@YAXAEBV?$FunctionCallbackInfo@VValue@v8@@@Nan@@@Z 000000018003b610     webgl.obj
 0002:0000d630       $ip2state$?Uniform3f@webgl@@YAXAEBV?$FunctionCallbackInfo@VValue@v8@@@Nan@@@Z 000000018003b630     webgl.obj
 0002:0000d648       $unwind$?Uniform4f@webgl@@YAXAEBV?$FunctionCallbackInfo@VValue@v8@@@Nan@@@Z 000000018003b648     webgl.obj
 0002:0000d668       $ip2state$?Uniform4f@webgl@@YAXAEBV?$FunctionCallbackInfo@VValue@v8@@@Nan@@@Z 000000018003b668     webgl.obj
 0002:0000d680       $unwind$?Uniform1i@webgl@@YAXAEBV?$FunctionCallbackInfo@VValue@v8@@@Nan@@@Z 000000018003b680     webgl.obj
 0002:0000d698       $ip2state$?Uniform1i@webgl@@YAXAEBV?$FunctionCallbackInfo@VValue@v8@@@Nan@@@Z 000000018003b698     webgl.obj
 0002:0000d6b0       $unwind$?Uniform2i@webgl@@YAXAEBV?$FunctionCallbackInfo@VValue@v8@@@Nan@@@Z 000000018003b6b0     webgl.obj
 0002:0000d6c8       $ip2state$?Uniform2i@webgl@@YAXAEBV?$FunctionCallbackInfo@VValue@v8@@@Nan@@@Z 000000018003b6c8     webgl.obj
 0002:0000d6e0       $unwind$?Uniform3i@webgl@@YAXAEBV?$FunctionCallbackInfo@VValue@v8@@@Nan@@@Z 000000018003b6e0     webgl.obj
 0002:0000d700       $ip2state$?Uniform3i@webgl@@YAXAEBV?$FunctionCallbackInfo@VValue@v8@@@Nan@@@Z 000000018003b700     webgl.obj
 0002:0000d718       $unwind$?Uniform4i@webgl@@YAXAEBV?$FunctionCallbackInfo@VValue@v8@@@Nan@@@Z 000000018003b718     webgl.obj
 0002:0000d738       $ip2state$?Uniform4i@webgl@@YAXAEBV?$FunctionCallbackInfo@VValue@v8@@@Nan@@@Z 000000018003b738     webgl.obj
 0002:0000d750       $unwind$?Uniform1fv@webgl@@YAXAEBV?$FunctionCallbackInfo@VValue@v8@@@Nan@@@Z 000000018003b750     webgl.obj
 0002:0000d768       $ip2state$?Uniform1fv@webgl@@YAXAEBV?$FunctionCallbackInfo@VValue@v8@@@Nan@@@Z 000000018003b768     webgl.obj
 0002:0000d780       $unwind$?Uniform2fv@webgl@@YAXAEBV?$FunctionCallbackInfo@VValue@v8@@@Nan@@@Z 000000018003b780     webgl.obj
 0002:0000d798       $ip2state$?Uniform2fv@webgl@@YAXAEBV?$FunctionCallbackInfo@VValue@v8@@@Nan@@@Z 000000018003b798     webgl.obj
 0002:0000d7b0       $unwind$?Uniform3fv@webgl@@YAXAEBV?$FunctionCallbackInfo@VValue@v8@@@Nan@@@Z 000000018003b7b0     webgl.obj
 0002:0000d7c8       $ip2state$?Uniform3fv@webgl@@YAXAEBV?$FunctionCallbackInfo@VValue@v8@@@Nan@@@Z 000000018003b7c8     webgl.obj
 0002:0000d7e0       $unwind$?Uniform4fv@webgl@@YAXAEBV?$FunctionCallbackInfo@VValue@v8@@@Nan@@@Z 000000018003b7e0     webgl.obj
 0002:0000d7f8       $ip2state$?Uniform4fv@webgl@@YAXAEBV?$FunctionCallbackInfo@VValue@v8@@@Nan@@@Z 000000018003b7f8     webgl.obj
 0002:0000d810       $unwind$?Uniform1iv@webgl@@YAXAEBV?$FunctionCallbackInfo@VValue@v8@@@Nan@@@Z 000000018003b810     webgl.obj
 0002:0000d828       $ip2state$?Uniform1iv@webgl@@YAXAEBV?$FunctionCallbackInfo@VValue@v8@@@Nan@@@Z 000000018003b828     webgl.obj
 0002:0000d840       $unwind$?Uniform2iv@webgl@@YAXAEBV?$FunctionCallbackInfo@VValue@v8@@@Nan@@@Z 000000018003b840     webgl.obj
 0002:0000d858       $ip2state$?Uniform2iv@webgl@@YAXAEBV?$FunctionCallbackInfo@VValue@v8@@@Nan@@@Z 000000018003b858     webgl.obj
 0002:0000d870       $unwind$?Uniform3iv@webgl@@YAXAEBV?$FunctionCallbackInfo@VValue@v8@@@Nan@@@Z 000000018003b870     webgl.obj
 0002:0000d888       $ip2state$?Uniform3iv@webgl@@YAXAEBV?$FunctionCallbackInfo@VValue@v8@@@Nan@@@Z 000000018003b888     webgl.obj
 0002:0000d8a0       $unwind$?Uniform4iv@webgl@@YAXAEBV?$FunctionCallbackInfo@VValue@v8@@@Nan@@@Z 000000018003b8a0     webgl.obj
 0002:0000d8b8       $ip2state$?Uniform4iv@webgl@@YAXAEBV?$FunctionCallbackInfo@VValue@v8@@@Nan@@@Z 000000018003b8b8     webgl.obj
 0002:0000d8d0       $unwind$?PixelStorei@webgl@@YAXAEBV?$FunctionCallbackInfo@VValue@v8@@@Nan@@@Z 000000018003b8d0     webgl.obj
 0002:0000d8e8       $ip2state$?PixelStorei@webgl@@YAXAEBV?$FunctionCallbackInfo@VValue@v8@@@Nan@@@Z 000000018003b8e8     webgl.obj
 0002:0000d900       $unwind$?BindAttribLocation@webgl@@YAXAEBV?$FunctionCallbackInfo@VValue@v8@@@Nan@@@Z 000000018003b900     webgl.obj
 0002:0000d918       $stateUnwindMap$?GetAttribLocation@webgl@@YAXAEBV?$FunctionCallbackInfo@VValue@v8@@@Nan@@@Z 000000018003b918     webgl.obj
 0002:0000d918       $stateUnwindMap$?GetUniformLocation@webgl@@YAXAEBV?$FunctionCallbackInfo@VValue@v8@@@Nan@@@Z 000000018003b918     webgl.obj
 0002:0000d918       $stateUnwindMap$?BindAttribLocation@webgl@@YAXAEBV?$FunctionCallbackInfo@VValue@v8@@@Nan@@@Z 000000018003b918     webgl.obj
 0002:0000d918       $stateUnwindMap$?ShaderSource@webgl@@YAXAEBV?$FunctionCallbackInfo@VValue@v8@@@Nan@@@Z 000000018003b918     webgl.obj
 0002:0000d928       $ip2state$?BindAttribLocation@webgl@@YAXAEBV?$FunctionCallbackInfo@VValue@v8@@@Nan@@@Z 000000018003b928     webgl.obj
 0002:0000d950       $unwind$?GetError@webgl@@YAXAEBV?$FunctionCallbackInfo@VValue@v8@@@Nan@@@Z 000000018003b950     webgl.obj
 0002:0000d968       $ip2state$?GetError@webgl@@YAXAEBV?$FunctionCallbackInfo@VValue@v8@@@Nan@@@Z 000000018003b968     webgl.obj
 0002:0000d980       $unwind$?DrawArrays@webgl@@YAXAEBV?$FunctionCallbackInfo@VValue@v8@@@Nan@@@Z 000000018003b980     webgl.obj
 0002:0000d998       $ip2state$?DrawArrays@webgl@@YAXAEBV?$FunctionCallbackInfo@VValue@v8@@@Nan@@@Z 000000018003b998     webgl.obj
 0002:0000d9b0       $unwind$?UniformMatrix2fv@webgl@@YAXAEBV?$FunctionCallbackInfo@VValue@v8@@@Nan@@@Z 000000018003b9b0     webgl.obj
 0002:0000d9c8       $ip2state$?UniformMatrix2fv@webgl@@YAXAEBV?$FunctionCallbackInfo@VValue@v8@@@Nan@@@Z 000000018003b9c8     webgl.obj
 0002:0000d9e0       $unwind$?UniformMatrix3fv@webgl@@YAXAEBV?$FunctionCallbackInfo@VValue@v8@@@Nan@@@Z 000000018003b9e0     webgl.obj
 0002:0000d9f8       $ip2state$?UniformMatrix3fv@webgl@@YAXAEBV?$FunctionCallbackInfo@VValue@v8@@@Nan@@@Z 000000018003b9f8     webgl.obj
 0002:0000da10       $unwind$?UniformMatrix4fv@webgl@@YAXAEBV?$FunctionCallbackInfo@VValue@v8@@@Nan@@@Z 000000018003ba10     webgl.obj
 0002:0000da28       $ip2state$?UniformMatrix4fv@webgl@@YAXAEBV?$FunctionCallbackInfo@VValue@v8@@@Nan@@@Z 000000018003ba28     webgl.obj
 0002:0000da40       $unwind$?GenerateMipmap@webgl@@YAXAEBV?$FunctionCallbackInfo@VValue@v8@@@Nan@@@Z 000000018003ba40     webgl.obj
 0002:0000da50       $ip2state$?GenerateMipmap@webgl@@YAXAEBV?$FunctionCallbackInfo@VValue@v8@@@Nan@@@Z 000000018003ba50     webgl.obj
 0002:0000da68       $unwind$?GetAttribLocation@webgl@@YAXAEBV?$FunctionCallbackInfo@VValue@v8@@@Nan@@@Z 000000018003ba68     webgl.obj
 0002:0000da80       $ip2state$?GetAttribLocation@webgl@@YAXAEBV?$FunctionCallbackInfo@VValue@v8@@@Nan@@@Z 000000018003ba80     webgl.obj
 0002:0000daa8       $unwind$?DepthFunc@webgl@@YAXAEBV?$FunctionCallbackInfo@VValue@v8@@@Nan@@@Z 000000018003baa8     webgl.obj
 0002:0000dab8       $ip2state$?DepthFunc@webgl@@YAXAEBV?$FunctionCallbackInfo@VValue@v8@@@Nan@@@Z 000000018003bab8     webgl.obj
 0002:0000dad0       $unwind$?Viewport@webgl@@YAXAEBV?$FunctionCallbackInfo@VValue@v8@@@Nan@@@Z 000000018003bad0     webgl.obj
 0002:0000daf0       $ip2state$?Viewport@webgl@@YAXAEBV?$FunctionCallbackInfo@VValue@v8@@@Nan@@@Z 000000018003baf0     webgl.obj
 0002:0000db08       $unwind$?CreateShader@webgl@@YAXAEBV?$FunctionCallbackInfo@VValue@v8@@@Nan@@@Z 000000018003bb08     webgl.obj
 0002:0000db20       $ip2state$?CreateShader@webgl@@YAXAEBV?$FunctionCallbackInfo@VValue@v8@@@Nan@@@Z 000000018003bb20     webgl.obj
 0002:0000db38       $unwind$?ShaderSource@webgl@@YAXAEBV?$FunctionCallbackInfo@VValue@v8@@@Nan@@@Z 000000018003bb38     webgl.obj
 0002:0000db50       $ip2state$?ShaderSource@webgl@@YAXAEBV?$FunctionCallbackInfo@VValue@v8@@@Nan@@@Z 000000018003bb50     webgl.obj
 0002:0000db78       $unwind$?CompileShader@webgl@@YAXAEBV?$FunctionCallbackInfo@VValue@v8@@@Nan@@@Z 000000018003bb78     webgl.obj
 0002:0000db88       $ip2state$?CompileShader@webgl@@YAXAEBV?$FunctionCallbackInfo@VValue@v8@@@Nan@@@Z 000000018003bb88     webgl.obj
 0002:0000dba0       $unwind$?FrontFace@webgl@@YAXAEBV?$FunctionCallbackInfo@VValue@v8@@@Nan@@@Z 000000018003bba0     webgl.obj
 0002:0000dbb0       $ip2state$?FrontFace@webgl@@YAXAEBV?$FunctionCallbackInfo@VValue@v8@@@Nan@@@Z 000000018003bbb0     webgl.obj
 0002:0000dbc8       $unwind$?GetShaderParameter@webgl@@YAXAEBV?$FunctionCallbackInfo@VValue@v8@@@Nan@@@Z 000000018003bbc8     webgl.obj
 0002:0000dbe0       $ip2state$?GetShaderParameter@webgl@@YAXAEBV?$FunctionCallbackInfo@VValue@v8@@@Nan@@@Z 000000018003bbe0     webgl.obj
 0002:0000dbf8       $unwind$?GetShaderInfoLog@webgl@@YAXAEBV?$FunctionCallbackInfo@VValue@v8@@@Nan@@@Z 000000018003bbf8     webgl.obj
 0002:0000dc10       $stateUnwindMap$?CopyTexSubImage2D@webgl@@YAXAEBV?$FunctionCallbackInfo@VValue@v8@@@Nan@@@Z 000000018003bc10     webgl.obj
 0002:0000dc10       $stateUnwindMap$?GetAttachedShaders@webgl@@YAXAEBV?$FunctionCallbackInfo@VValue@v8@@@Nan@@@Z 000000018003bc10     webgl.obj
 0002:0000dc10       $stateUnwindMap$?ReadPixels@webgl@@YAXAEBV?$FunctionCallbackInfo@VValue@v8@@@Nan@@@Z 000000018003bc10     webgl.obj
 0002:0000dc10       $stateUnwindMap$?CopyTexImage2D@webgl@@YAXAEBV?$FunctionCallbackInfo@VValue@v8@@@Nan@@@Z 000000018003bc10     webgl.obj
 0002:0000dc10       $stateUnwindMap$?GetProgramInfoLog@webgl@@YAXAEBV?$FunctionCallbackInfo@VValue@v8@@@Nan@@@Z 000000018003bc10     webgl.obj
 0002:0000dc10       $stateUnwindMap$?GetShaderInfoLog@webgl@@YAXAEBV?$FunctionCallbackInfo@VValue@v8@@@Nan@@@Z 000000018003bc10     webgl.obj
 0002:0000dc18       $ip2state$?GetShaderInfoLog@webgl@@YAXAEBV?$FunctionCallbackInfo@VValue@v8@@@Nan@@@Z 000000018003bc18     webgl.obj
 0002:0000dc30       $unwind$?CreateProgram@webgl@@YAXAEBV?$FunctionCallbackInfo@VValue@v8@@@Nan@@@Z 000000018003bc30     webgl.obj
 0002:0000dc48       $ip2state$?CreateProgram@webgl@@YAXAEBV?$FunctionCallbackInfo@VValue@v8@@@Nan@@@Z 000000018003bc48     webgl.obj
 0002:0000dc60       $unwind$?AttachShader@webgl@@YAXAEBV?$FunctionCallbackInfo@VValue@v8@@@Nan@@@Z 000000018003bc60     webgl.obj
 0002:0000dc78       $ip2state$?AttachShader@webgl@@YAXAEBV?$FunctionCallbackInfo@VValue@v8@@@Nan@@@Z 000000018003bc78     webgl.obj
 0002:0000dc90       $unwind$?LinkProgram@webgl@@YAXAEBV?$FunctionCallbackInfo@VValue@v8@@@Nan@@@Z 000000018003bc90     webgl.obj
 0002:0000dca0       $ip2state$?LinkProgram@webgl@@YAXAEBV?$FunctionCallbackInfo@VValue@v8@@@Nan@@@Z 000000018003bca0     webgl.obj
 0002:0000dcb8       $unwind$?GetProgramParameter@webgl@@YAXAEBV?$FunctionCallbackInfo@VValue@v8@@@Nan@@@Z 000000018003bcb8     webgl.obj
 0002:0000dcd0       $ip2state$?GetProgramParameter@webgl@@YAXAEBV?$FunctionCallbackInfo@VValue@v8@@@Nan@@@Z 000000018003bcd0     webgl.obj
 0002:0000dcf0       $unwind$?GetUniformLocation@webgl@@YAXAEBV?$FunctionCallbackInfo@VValue@v8@@@Nan@@@Z 000000018003bcf0     webgl.obj
 0002:0000dd08       $ip2state$?GetUniformLocation@webgl@@YAXAEBV?$FunctionCallbackInfo@VValue@v8@@@Nan@@@Z 000000018003bd08     webgl.obj
 0002:0000dd30       $unwind$?ClearColor@webgl@@YAXAEBV?$FunctionCallbackInfo@VValue@v8@@@Nan@@@Z 000000018003bd30     webgl.obj
 0002:0000dd50       $ip2state$?ClearColor@webgl@@YAXAEBV?$FunctionCallbackInfo@VValue@v8@@@Nan@@@Z 000000018003bd50     webgl.obj
 0002:0000dd68       $unwind$?ClearDepth@webgl@@YAXAEBV?$FunctionCallbackInfo@VValue@v8@@@Nan@@@Z 000000018003bd68     webgl.obj
 0002:0000dd78       $ip2state$?ClearDepth@webgl@@YAXAEBV?$FunctionCallbackInfo@VValue@v8@@@Nan@@@Z 000000018003bd78     webgl.obj
 0002:0000dd90       $unwind$?Disable@webgl@@YAXAEBV?$FunctionCallbackInfo@VValue@v8@@@Nan@@@Z 000000018003bd90     webgl.obj
 0002:0000dda0       $ip2state$?Disable@webgl@@YAXAEBV?$FunctionCallbackInfo@VValue@v8@@@Nan@@@Z 000000018003bda0     webgl.obj
 0002:0000ddb8       $unwind$?Enable@webgl@@YAXAEBV?$FunctionCallbackInfo@VValue@v8@@@Nan@@@Z 000000018003bdb8     webgl.obj
 0002:0000ddc8       $ip2state$?Enable@webgl@@YAXAEBV?$FunctionCallbackInfo@VValue@v8@@@Nan@@@Z 000000018003bdc8     webgl.obj
 0002:0000dde0       $unwind$?CreateTexture@webgl@@YAXAEBV?$FunctionCallbackInfo@VValue@v8@@@Nan@@@Z 000000018003bde0     webgl.obj
 0002:0000ddf8       $ip2state$?CreateTexture@webgl@@YAXAEBV?$FunctionCallbackInfo@VValue@v8@@@Nan@@@Z 000000018003bdf8     webgl.obj
 0002:0000de10       $unwind$?BindTexture@webgl@@YAXAEBV?$FunctionCallbackInfo@VValue@v8@@@Nan@@@Z 000000018003be10     webgl.obj
 0002:0000de28       $ip2state$?BindTexture@webgl@@YAXAEBV?$FunctionCallbackInfo@VValue@v8@@@Nan@@@Z 000000018003be28     webgl.obj
 0002:0000de40       $unwind$?TexImage2D@webgl@@YAXAEBV?$FunctionCallbackInfo@VValue@v8@@@Nan@@@Z 000000018003be40     webgl.obj
 0002:0000de68       $ip2state$?TexImage2D@webgl@@YAXAEBV?$FunctionCallbackInfo@VValue@v8@@@Nan@@@Z 000000018003be68     webgl.obj
 0002:0000de80       $unwind$?TexParameteri@webgl@@YAXAEBV?$FunctionCallbackInfo@VValue@v8@@@Nan@@@Z 000000018003be80     webgl.obj
 0002:0000de98       $ip2state$?TexParameteri@webgl@@YAXAEBV?$FunctionCallbackInfo@VValue@v8@@@Nan@@@Z 000000018003be98     webgl.obj
 0002:0000deb0       $unwind$?TexParameterf@webgl@@YAXAEBV?$FunctionCallbackInfo@VValue@v8@@@Nan@@@Z 000000018003beb0     webgl.obj
 0002:0000dec8       $ip2state$?TexParameterf@webgl@@YAXAEBV?$FunctionCallbackInfo@VValue@v8@@@Nan@@@Z 000000018003bec8     webgl.obj
 0002:0000dee0       $unwind$?Clear@webgl@@YAXAEBV?$FunctionCallbackInfo@VValue@v8@@@Nan@@@Z 000000018003bee0     webgl.obj
 0002:0000def0       $ip2state$?Clear@webgl@@YAXAEBV?$FunctionCallbackInfo@VValue@v8@@@Nan@@@Z 000000018003bef0     webgl.obj
 0002:0000df08       $unwind$?UseProgram@webgl@@YAXAEBV?$FunctionCallbackInfo@VValue@v8@@@Nan@@@Z 000000018003bf08     webgl.obj
 0002:0000df18       $ip2state$?UseProgram@webgl@@YAXAEBV?$FunctionCallbackInfo@VValue@v8@@@Nan@@@Z 000000018003bf18     webgl.obj
 0002:0000df30       $unwind$?CreateBuffer@webgl@@YAXAEBV?$FunctionCallbackInfo@VValue@v8@@@Nan@@@Z 000000018003bf30     webgl.obj
 0002:0000df48       $ip2state$?CreateBuffer@webgl@@YAXAEBV?$FunctionCallbackInfo@VValue@v8@@@Nan@@@Z 000000018003bf48     webgl.obj
 0002:0000df60       $unwind$?BindBuffer@webgl@@YAXAEBV?$FunctionCallbackInfo@VValue@v8@@@Nan@@@Z 000000018003bf60     webgl.obj
 0002:0000df78       $ip2state$?BindBuffer@webgl@@YAXAEBV?$FunctionCallbackInfo@VValue@v8@@@Nan@@@Z 000000018003bf78     webgl.obj
 0002:0000df90       $unwind$?CreateFramebuffer@webgl@@YAXAEBV?$FunctionCallbackInfo@VValue@v8@@@Nan@@@Z 000000018003bf90     webgl.obj
 0002:0000dfa8       $ip2state$?CreateFramebuffer@webgl@@YAXAEBV?$FunctionCallbackInfo@VValue@v8@@@Nan@@@Z 000000018003bfa8     webgl.obj
 0002:0000dfc0       $unwind$?BindFramebuffer@webgl@@YAXAEBV?$FunctionCallbackInfo@VValue@v8@@@Nan@@@Z 000000018003bfc0     webgl.obj
 0002:0000dfd8       $ip2state$?BindFramebuffer@webgl@@YAXAEBV?$FunctionCallbackInfo@VValue@v8@@@Nan@@@Z 000000018003bfd8     webgl.obj
 0002:0000dff0       $unwind$?FramebufferTexture2D@webgl@@YAXAEBV?$FunctionCallbackInfo@VValue@v8@@@Nan@@@Z 000000018003bff0     webgl.obj
 0002:0000e010       $ip2state$?FramebufferTexture2D@webgl@@YAXAEBV?$FunctionCallbackInfo@VValue@v8@@@Nan@@@Z 000000018003c010     webgl.obj
 0002:0000e028       $unwind$?BufferData@webgl@@YAXAEBV?$FunctionCallbackInfo@VValue@v8@@@Nan@@@Z 000000018003c028     webgl.obj
 0002:0000e048       $ip2state$?BufferData@webgl@@YAXAEBV?$FunctionCallbackInfo@VValue@v8@@@Nan@@@Z 000000018003c048     webgl.obj
 0002:0000e060       $unwind$?BufferSubData@webgl@@YAXAEBV?$FunctionCallbackInfo@VValue@v8@@@Nan@@@Z 000000018003c060     webgl.obj
 0002:0000e080       $ip2state$?BufferSubData@webgl@@YAXAEBV?$FunctionCallbackInfo@VValue@v8@@@Nan@@@Z 000000018003c080     webgl.obj
 0002:0000e098       $unwind$?BlendEquation@webgl@@YAXAEBV?$FunctionCallbackInfo@VValue@v8@@@Nan@@@Z 000000018003c098     webgl.obj
 0002:0000e0a8       $ip2state$?BlendEquation@webgl@@YAXAEBV?$FunctionCallbackInfo@VValue@v8@@@Nan@@@Z 000000018003c0a8     webgl.obj
 0002:0000e0c0       $unwind$?BlendFunc@webgl@@YAXAEBV?$FunctionCallbackInfo@VValue@v8@@@Nan@@@Z 000000018003c0c0     webgl.obj
 0002:0000e0d8       $ip2state$?BlendFunc@webgl@@YAXAEBV?$FunctionCallbackInfo@VValue@v8@@@Nan@@@Z 000000018003c0d8     webgl.obj
 0002:0000e0f0       $unwind$?EnableVertexAttribArray@webgl@@YAXAEBV?$FunctionCallbackInfo@VValue@v8@@@Nan@@@Z 000000018003c0f0     webgl.obj
 0002:0000e100       $ip2state$?EnableVertexAttribArray@webgl@@YAXAEBV?$FunctionCallbackInfo@VValue@v8@@@Nan@@@Z 000000018003c100     webgl.obj
 0002:0000e118       $unwind$?VertexAttribPointer@webgl@@YAXAEBV?$FunctionCallbackInfo@VValue@v8@@@Nan@@@Z 000000018003c118     webgl.obj
 0002:0000e138       $ip2state$?VertexAttribPointer@webgl@@YAXAEBV?$FunctionCallbackInfo@VValue@v8@@@Nan@@@Z 000000018003c138     webgl.obj
 0002:0000e150       $unwind$?ActiveTexture@webgl@@YAXAEBV?$FunctionCallbackInfo@VValue@v8@@@Nan@@@Z 000000018003c150     webgl.obj
 0002:0000e160       $ip2state$?ActiveTexture@webgl@@YAXAEBV?$FunctionCallbackInfo@VValue@v8@@@Nan@@@Z 000000018003c160     webgl.obj
 0002:0000e178       $unwind$?DrawElements@webgl@@YAXAEBV?$FunctionCallbackInfo@VValue@v8@@@Nan@@@Z 000000018003c178     webgl.obj
 0002:0000e198       $ip2state$?DrawElements@webgl@@YAXAEBV?$FunctionCallbackInfo@VValue@v8@@@Nan@@@Z 000000018003c198     webgl.obj
 0002:0000e1b0       $unwind$?Flush@webgl@@YAXAEBV?$FunctionCallbackInfo@VValue@v8@@@Nan@@@Z 000000018003c1b0     webgl.obj
 0002:0000e1c0       $ip2state$?Flush@webgl@@YAXAEBV?$FunctionCallbackInfo@VValue@v8@@@Nan@@@Z 000000018003c1c0     webgl.obj
 0002:0000e1d8       $unwind$?Finish@webgl@@YAXAEBV?$FunctionCallbackInfo@VValue@v8@@@Nan@@@Z 000000018003c1d8     webgl.obj
 0002:0000e1e8       $ip2state$?Finish@webgl@@YAXAEBV?$FunctionCallbackInfo@VValue@v8@@@Nan@@@Z 000000018003c1e8     webgl.obj
 0002:0000e200       $unwind$?VertexAttrib1f@webgl@@YAXAEBV?$FunctionCallbackInfo@VValue@v8@@@Nan@@@Z 000000018003c200     webgl.obj
 0002:0000e218       $ip2state$?VertexAttrib1f@webgl@@YAXAEBV?$FunctionCallbackInfo@VValue@v8@@@Nan@@@Z 000000018003c218     webgl.obj
 0002:0000e230       $unwind$?VertexAttrib2f@webgl@@YAXAEBV?$FunctionCallbackInfo@VValue@v8@@@Nan@@@Z 000000018003c230     webgl.obj
 0002:0000e248       $ip2state$?VertexAttrib2f@webgl@@YAXAEBV?$FunctionCallbackInfo@VValue@v8@@@Nan@@@Z 000000018003c248     webgl.obj
 0002:0000e260       $unwind$?VertexAttrib3f@webgl@@YAXAEBV?$FunctionCallbackInfo@VValue@v8@@@Nan@@@Z 000000018003c260     webgl.obj
 0002:0000e280       $ip2state$?VertexAttrib3f@webgl@@YAXAEBV?$FunctionCallbackInfo@VValue@v8@@@Nan@@@Z 000000018003c280     webgl.obj
 0002:0000e298       $unwind$?VertexAttrib4f@webgl@@YAXAEBV?$FunctionCallbackInfo@VValue@v8@@@Nan@@@Z 000000018003c298     webgl.obj
 0002:0000e2b8       $ip2state$?VertexAttrib4f@webgl@@YAXAEBV?$FunctionCallbackInfo@VValue@v8@@@Nan@@@Z 000000018003c2b8     webgl.obj
 0002:0000e2d0       $unwind$?VertexAttrib1fv@webgl@@YAXAEBV?$FunctionCallbackInfo@VValue@v8@@@Nan@@@Z 000000018003c2d0     webgl.obj
 0002:0000e2f0       $ip2state$?VertexAttrib1fv@webgl@@YAXAEBV?$FunctionCallbackInfo@VValue@v8@@@Nan@@@Z 000000018003c2f0     webgl.obj
 0002:0000e308       $unwind$?VertexAttrib2fv@webgl@@YAXAEBV?$FunctionCallbackInfo@VValue@v8@@@Nan@@@Z 000000018003c308     webgl.obj
 0002:0000e328       $ip2state$?VertexAttrib2fv@webgl@@YAXAEBV?$FunctionCallbackInfo@VValue@v8@@@Nan@@@Z 000000018003c328     webgl.obj
 0002:0000e340       $unwind$?VertexAttrib3fv@webgl@@YAXAEBV?$FunctionCallbackInfo@VValue@v8@@@Nan@@@Z 000000018003c340     webgl.obj
 0002:0000e360       $ip2state$?VertexAttrib3fv@webgl@@YAXAEBV?$FunctionCallbackInfo@VValue@v8@@@Nan@@@Z 000000018003c360     webgl.obj
 0002:0000e378       $unwind$?VertexAttrib4fv@webgl@@YAXAEBV?$FunctionCallbackInfo@VValue@v8@@@Nan@@@Z 000000018003c378     webgl.obj
 0002:0000e398       $ip2state$?VertexAttrib4fv@webgl@@YAXAEBV?$FunctionCallbackInfo@VValue@v8@@@Nan@@@Z 000000018003c398     webgl.obj
 0002:0000e3b0       $unwind$?BlendColor@webgl@@YAXAEBV?$FunctionCallbackInfo@VValue@v8@@@Nan@@@Z 000000018003c3b0     webgl.obj
 0002:0000e3d0       $ip2state$?BlendColor@webgl@@YAXAEBV?$FunctionCallbackInfo@VValue@v8@@@Nan@@@Z 000000018003c3d0     webgl.obj
 0002:0000e3e8       $unwind$?BlendEquationSeparate@webgl@@YAXAEBV?$FunctionCallbackInfo@VValue@v8@@@Nan@@@Z 000000018003c3e8     webgl.obj
 0002:0000e400       $ip2state$?BlendEquationSeparate@webgl@@YAXAEBV?$FunctionCallbackInfo@VValue@v8@@@Nan@@@Z 000000018003c400     webgl.obj
 0002:0000e418       $unwind$?BlendFuncSeparate@webgl@@YAXAEBV?$FunctionCallbackInfo@VValue@v8@@@Nan@@@Z 000000018003c418     webgl.obj
 0002:0000e438       $ip2state$?BlendFuncSeparate@webgl@@YAXAEBV?$FunctionCallbackInfo@VValue@v8@@@Nan@@@Z 000000018003c438     webgl.obj
 0002:0000e450       $unwind$?ClearStencil@webgl@@YAXAEBV?$FunctionCallbackInfo@VValue@v8@@@Nan@@@Z 000000018003c450     webgl.obj
 0002:0000e460       $ip2state$?ClearStencil@webgl@@YAXAEBV?$FunctionCallbackInfo@VValue@v8@@@Nan@@@Z 000000018003c460     webgl.obj
 0002:0000e478       $unwind$?ColorMask@webgl@@YAXAEBV?$FunctionCallbackInfo@VValue@v8@@@Nan@@@Z 000000018003c478     webgl.obj
 0002:0000e498       $ip2state$?ColorMask@webgl@@YAXAEBV?$FunctionCallbackInfo@VValue@v8@@@Nan@@@Z 000000018003c498     webgl.obj
 0002:0000e4b0       $unwind$?CopyTexImage2D@webgl@@YAXAEBV?$FunctionCallbackInfo@VValue@v8@@@Nan@@@Z 000000018003c4b0     webgl.obj
 0002:0000e4d8       $ip2state$?CopyTexImage2D@webgl@@YAXAEBV?$FunctionCallbackInfo@VValue@v8@@@Nan@@@Z 000000018003c4d8     webgl.obj
 0002:0000e4f0       $unwind$?CopyTexSubImage2D@webgl@@YAXAEBV?$FunctionCallbackInfo@VValue@v8@@@Nan@@@Z 000000018003c4f0     webgl.obj
 0002:0000e518       $ip2state$?CopyTexSubImage2D@webgl@@YAXAEBV?$FunctionCallbackInfo@VValue@v8@@@Nan@@@Z 000000018003c518     webgl.obj
 0002:0000e530       $unwind$?CullFace@webgl@@YAXAEBV?$FunctionCallbackInfo@VValue@v8@@@Nan@@@Z 000000018003c530     webgl.obj
 0002:0000e540       $ip2state$?CullFace@webgl@@YAXAEBV?$FunctionCallbackInfo@VValue@v8@@@Nan@@@Z 000000018003c540     webgl.obj
 0002:0000e558       $unwind$?DepthMask@webgl@@YAXAEBV?$FunctionCallbackInfo@VValue@v8@@@Nan@@@Z 000000018003c558     webgl.obj
 0002:0000e568       $ip2state$?DepthMask@webgl@@YAXAEBV?$FunctionCallbackInfo@VValue@v8@@@Nan@@@Z 000000018003c568     webgl.obj
 0002:0000e580       $unwind$?DepthRange@webgl@@YAXAEBV?$FunctionCallbackInfo@VValue@v8@@@Nan@@@Z 000000018003c580     webgl.obj
 0002:0000e598       $ip2state$?DepthRange@webgl@@YAXAEBV?$FunctionCallbackInfo@VValue@v8@@@Nan@@@Z 000000018003c598     webgl.obj
 0002:0000e5b0       $unwind$?DisableVertexAttribArray@webgl@@YAXAEBV?$FunctionCallbackInfo@VValue@v8@@@Nan@@@Z 000000018003c5b0     webgl.obj
 0002:0000e5c0       $ip2state$?DisableVertexAttribArray@webgl@@YAXAEBV?$FunctionCallbackInfo@VValue@v8@@@Nan@@@Z 000000018003c5c0     webgl.obj
 0002:0000e5d8       $unwind$?Hint@webgl@@YAXAEBV?$FunctionCallbackInfo@VValue@v8@@@Nan@@@Z 000000018003c5d8     webgl.obj
 0002:0000e5f0       $ip2state$?Hint@webgl@@YAXAEBV?$FunctionCallbackInfo@VValue@v8@@@Nan@@@Z 000000018003c5f0     webgl.obj
 0002:0000e608       $unwind$?IsEnabled@webgl@@YAXAEBV?$FunctionCallbackInfo@VValue@v8@@@Nan@@@Z 000000018003c608     webgl.obj
 0002:0000e620       $ip2state$?IsEnabled@webgl@@YAXAEBV?$FunctionCallbackInfo@VValue@v8@@@Nan@@@Z 000000018003c620     webgl.obj
 0002:0000e638       $unwind$?LineWidth@webgl@@YAXAEBV?$FunctionCallbackInfo@VValue@v8@@@Nan@@@Z 000000018003c638     webgl.obj
 0002:0000e648       $ip2state$?LineWidth@webgl@@YAXAEBV?$FunctionCallbackInfo@VValue@v8@@@Nan@@@Z 000000018003c648     webgl.obj
 0002:0000e660       $unwind$?PolygonOffset@webgl@@YAXAEBV?$FunctionCallbackInfo@VValue@v8@@@Nan@@@Z 000000018003c660     webgl.obj
 0002:0000e678       $ip2state$?PolygonOffset@webgl@@YAXAEBV?$FunctionCallbackInfo@VValue@v8@@@Nan@@@Z 000000018003c678     webgl.obj
 0002:0000e690       $unwind$?Scissor@webgl@@YAXAEBV?$FunctionCallbackInfo@VValue@v8@@@Nan@@@Z 000000018003c690     webgl.obj
 0002:0000e6b0       $ip2state$?Scissor@webgl@@YAXAEBV?$FunctionCallbackInfo@VValue@v8@@@Nan@@@Z 000000018003c6b0     webgl.obj
 0002:0000e6c8       $unwind$?StencilFunc@webgl@@YAXAEBV?$FunctionCallbackInfo@VValue@v8@@@Nan@@@Z 000000018003c6c8     webgl.obj
 0002:0000e6e0       $ip2state$?StencilFunc@webgl@@YAXAEBV?$FunctionCallbackInfo@VValue@v8@@@Nan@@@Z 000000018003c6e0     webgl.obj
 0002:0000e6f8       $unwind$?StencilFuncSeparate@webgl@@YAXAEBV?$FunctionCallbackInfo@VValue@v8@@@Nan@@@Z 000000018003c6f8     webgl.obj
 0002:0000e718       $ip2state$?StencilFuncSeparate@webgl@@YAXAEBV?$FunctionCallbackInfo@VValue@v8@@@Nan@@@Z 000000018003c718     webgl.obj
 0002:0000e730       $unwind$?StencilMask@webgl@@YAXAEBV?$FunctionCallbackInfo@VValue@v8@@@Nan@@@Z 000000018003c730     webgl.obj
 0002:0000e740       $ip2state$?StencilMask@webgl@@YAXAEBV?$FunctionCallbackInfo@VValue@v8@@@Nan@@@Z 000000018003c740     webgl.obj
 0002:0000e758       $unwind$?StencilMaskSeparate@webgl@@YAXAEBV?$FunctionCallbackInfo@VValue@v8@@@Nan@@@Z 000000018003c758     webgl.obj
 0002:0000e770       $ip2state$?StencilMaskSeparate@webgl@@YAXAEBV?$FunctionCallbackInfo@VValue@v8@@@Nan@@@Z 000000018003c770     webgl.obj
 0002:0000e788       $unwind$?StencilOp@webgl@@YAXAEBV?$FunctionCallbackInfo@VValue@v8@@@Nan@@@Z 000000018003c788     webgl.obj
 0002:0000e7a0       $ip2state$?StencilOp@webgl@@YAXAEBV?$FunctionCallbackInfo@VValue@v8@@@Nan@@@Z 000000018003c7a0     webgl.obj
 0002:0000e7b8       $unwind$?StencilOpSeparate@webgl@@YAXAEBV?$FunctionCallbackInfo@VValue@v8@@@Nan@@@Z 000000018003c7b8     webgl.obj
 0002:0000e7d8       $ip2state$?StencilOpSeparate@webgl@@YAXAEBV?$FunctionCallbackInfo@VValue@v8@@@Nan@@@Z 000000018003c7d8     webgl.obj
 0002:0000e7f0       $unwind$?BindRenderbuffer@webgl@@YAXAEBV?$FunctionCallbackInfo@VValue@v8@@@Nan@@@Z 000000018003c7f0     webgl.obj
 0002:0000e808       $ip2state$?BindRenderbuffer@webgl@@YAXAEBV?$FunctionCallbackInfo@VValue@v8@@@Nan@@@Z 000000018003c808     webgl.obj
 0002:0000e820       $unwind$?CreateRenderbuffer@webgl@@YAXAEBV?$FunctionCallbackInfo@VValue@v8@@@Nan@@@Z 000000018003c820     webgl.obj
 0002:0000e838       $ip2state$?CreateRenderbuffer@webgl@@YAXAEBV?$FunctionCallbackInfo@VValue@v8@@@Nan@@@Z 000000018003c838     webgl.obj
 0002:0000e850       $unwind$?DeleteBuffer@webgl@@YAXAEBV?$FunctionCallbackInfo@VValue@v8@@@Nan@@@Z 000000018003c850     webgl.obj
 0002:0000e860       $ip2state$?DeleteBuffer@webgl@@YAXAEBV?$FunctionCallbackInfo@VValue@v8@@@Nan@@@Z 000000018003c860     webgl.obj
 0002:0000e878       $unwind$?DeleteFramebuffer@webgl@@YAXAEBV?$FunctionCallbackInfo@VValue@v8@@@Nan@@@Z 000000018003c878     webgl.obj
 0002:0000e888       $ip2state$?DeleteFramebuffer@webgl@@YAXAEBV?$FunctionCallbackInfo@VValue@v8@@@Nan@@@Z 000000018003c888     webgl.obj
 0002:0000e8a0       $unwind$?DeleteProgram@webgl@@YAXAEBV?$FunctionCallbackInfo@VValue@v8@@@Nan@@@Z 000000018003c8a0     webgl.obj
 0002:0000e8b0       $ip2state$?DeleteProgram@webgl@@YAXAEBV?$FunctionCallbackInfo@VValue@v8@@@Nan@@@Z 000000018003c8b0     webgl.obj
 0002:0000e8c8       $unwind$?DeleteRenderbuffer@webgl@@YAXAEBV?$FunctionCallbackInfo@VValue@v8@@@Nan@@@Z 000000018003c8c8     webgl.obj
 0002:0000e8d8       $ip2state$?DeleteRenderbuffer@webgl@@YAXAEBV?$FunctionCallbackInfo@VValue@v8@@@Nan@@@Z 000000018003c8d8     webgl.obj
 0002:0000e8f0       $unwind$?DeleteShader@webgl@@YAXAEBV?$FunctionCallbackInfo@VValue@v8@@@Nan@@@Z 000000018003c8f0     webgl.obj
 0002:0000e900       $ip2state$?DeleteShader@webgl@@YAXAEBV?$FunctionCallbackInfo@VValue@v8@@@Nan@@@Z 000000018003c900     webgl.obj
 0002:0000e918       $unwind$?DeleteTexture@webgl@@YAXAEBV?$FunctionCallbackInfo@VValue@v8@@@Nan@@@Z 000000018003c918     webgl.obj
 0002:0000e928       $ip2state$?DeleteTexture@webgl@@YAXAEBV?$FunctionCallbackInfo@VValue@v8@@@Nan@@@Z 000000018003c928     webgl.obj
 0002:0000e940       $unwind$?DetachShader@webgl@@YAXAEBV?$FunctionCallbackInfo@VValue@v8@@@Nan@@@Z 000000018003c940     webgl.obj
 0002:0000e958       $ip2state$?DetachShader@webgl@@YAXAEBV?$FunctionCallbackInfo@VValue@v8@@@Nan@@@Z 000000018003c958     webgl.obj
 0002:0000e970       $unwind$?FramebufferRenderbuffer@webgl@@YAXAEBV?$FunctionCallbackInfo@VValue@v8@@@Nan@@@Z 000000018003c970     webgl.obj
 0002:0000e990       $ip2state$?FramebufferRenderbuffer@webgl@@YAXAEBV?$FunctionCallbackInfo@VValue@v8@@@Nan@@@Z 000000018003c990     webgl.obj
 0002:0000e9a8       $unwind$?GetVertexAttribOffset@webgl@@YAXAEBV?$FunctionCallbackInfo@VValue@v8@@@Nan@@@Z 000000018003c9a8     webgl.obj
 0002:0000e9c0       $ip2state$?GetVertexAttribOffset@webgl@@YAXAEBV?$FunctionCallbackInfo@VValue@v8@@@Nan@@@Z 000000018003c9c0     webgl.obj
 0002:0000e9d8       $unwind$?IsBuffer@webgl@@YAXAEBV?$FunctionCallbackInfo@VValue@v8@@@Nan@@@Z 000000018003c9d8     webgl.obj
 0002:0000e9f0       $ip2state$?IsBuffer@webgl@@YAXAEBV?$FunctionCallbackInfo@VValue@v8@@@Nan@@@Z 000000018003c9f0     webgl.obj
 0002:0000ea08       $unwind$?IsFramebuffer@webgl@@YAXAEBV?$FunctionCallbackInfo@VValue@v8@@@Nan@@@Z 000000018003ca08     webgl.obj
 0002:0000ea20       $ip2state$?IsFramebuffer@webgl@@YAXAEBV?$FunctionCallbackInfo@VValue@v8@@@Nan@@@Z 000000018003ca20     webgl.obj
 0002:0000ea38       $unwind$?IsProgram@webgl@@YAXAEBV?$FunctionCallbackInfo@VValue@v8@@@Nan@@@Z 000000018003ca38     webgl.obj
 0002:0000ea50       $ip2state$?IsProgram@webgl@@YAXAEBV?$FunctionCallbackInfo@VValue@v8@@@Nan@@@Z 000000018003ca50     webgl.obj
 0002:0000ea68       $unwind$?IsRenderbuffer@webgl@@YAXAEBV?$FunctionCallbackInfo@VValue@v8@@@Nan@@@Z 000000018003ca68     webgl.obj
 0002:0000ea80       $ip2state$?IsRenderbuffer@webgl@@YAXAEBV?$FunctionCallbackInfo@VValue@v8@@@Nan@@@Z 000000018003ca80     webgl.obj
 0002:0000ea98       $unwind$?IsShader@webgl@@YAXAEBV?$FunctionCallbackInfo@VValue@v8@@@Nan@@@Z 000000018003ca98     webgl.obj
 0002:0000eab0       $ip2state$?IsShader@webgl@@YAXAEBV?$FunctionCallbackInfo@VValue@v8@@@Nan@@@Z 000000018003cab0     webgl.obj
 0002:0000eac8       $unwind$?IsTexture@webgl@@YAXAEBV?$FunctionCallbackInfo@VValue@v8@@@Nan@@@Z 000000018003cac8     webgl.obj
 0002:0000eae0       $ip2state$?IsTexture@webgl@@YAXAEBV?$FunctionCallbackInfo@VValue@v8@@@Nan@@@Z 000000018003cae0     webgl.obj
 0002:0000eaf8       $unwind$?RenderbufferStorage@webgl@@YAXAEBV?$FunctionCallbackInfo@VValue@v8@@@Nan@@@Z 000000018003caf8     webgl.obj
 0002:0000eb18       $ip2state$?RenderbufferStorage@webgl@@YAXAEBV?$FunctionCallbackInfo@VValue@v8@@@Nan@@@Z 000000018003cb18     webgl.obj
 0002:0000eb30       $unwind$?GetShaderSource@webgl@@YAXAEBV?$FunctionCallbackInfo@VValue@v8@@@Nan@@@Z 000000018003cb30     webgl.obj
 0002:0000eb48       $ip2state$?GetShaderSource@webgl@@YAXAEBV?$FunctionCallbackInfo@VValue@v8@@@Nan@@@Z 000000018003cb48     webgl.obj
 0002:0000eb60       $unwind$?ValidateProgram@webgl@@YAXAEBV?$FunctionCallbackInfo@VValue@v8@@@Nan@@@Z 000000018003cb60     webgl.obj
 0002:0000eb70       $ip2state$?ValidateProgram@webgl@@YAXAEBV?$FunctionCallbackInfo@VValue@v8@@@Nan@@@Z 000000018003cb70     webgl.obj
 0002:0000eb88       $unwind$?TexSubImage2D@webgl@@YAXAEBV?$FunctionCallbackInfo@VValue@v8@@@Nan@@@Z 000000018003cb88     webgl.obj
 0002:0000ebb0       $ip2state$?TexSubImage2D@webgl@@YAXAEBV?$FunctionCallbackInfo@VValue@v8@@@Nan@@@Z 000000018003cbb0     webgl.obj
 0002:0000ebc8       $unwind$?ReadPixels@webgl@@YAXAEBV?$FunctionCallbackInfo@VValue@v8@@@Nan@@@Z 000000018003cbc8     webgl.obj
 0002:0000ebf0       $ip2state$?ReadPixels@webgl@@YAXAEBV?$FunctionCallbackInfo@VValue@v8@@@Nan@@@Z 000000018003cbf0     webgl.obj
 0002:0000ec08       $unwind$?GetTexParameter@webgl@@YAXAEBV?$FunctionCallbackInfo@VValue@v8@@@Nan@@@Z 000000018003cc08     webgl.obj
 0002:0000ec20       $ip2state$?GetTexParameter@webgl@@YAXAEBV?$FunctionCallbackInfo@VValue@v8@@@Nan@@@Z 000000018003cc20     webgl.obj
 0002:0000ec38       $unwind$?GetActiveAttrib@webgl@@YAXAEBV?$FunctionCallbackInfo@VValue@v8@@@Nan@@@Z 000000018003cc38     webgl.obj
 0002:0000ec58       $stateUnwindMap$?GetActiveUniform@webgl@@YAXAEBV?$FunctionCallbackInfo@VValue@v8@@@Nan@@@Z 000000018003cc58     webgl.obj
 0002:0000ec58       $stateUnwindMap$?GetActiveAttrib@webgl@@YAXAEBV?$FunctionCallbackInfo@VValue@v8@@@Nan@@@Z 000000018003cc58     webgl.obj
 0002:0000ec60       $ip2state$?GetActiveAttrib@webgl@@YAXAEBV?$FunctionCallbackInfo@VValue@v8@@@Nan@@@Z 000000018003cc60     webgl.obj
 0002:0000ec78       $unwind$?GetActiveUniform@webgl@@YAXAEBV?$FunctionCallbackInfo@VValue@v8@@@Nan@@@Z 000000018003cc78     webgl.obj
 0002:0000ec98       $ip2state$?GetActiveUniform@webgl@@YAXAEBV?$FunctionCallbackInfo@VValue@v8@@@Nan@@@Z 000000018003cc98     webgl.obj
 0002:0000ecb0       $unwind$?GetAttachedShaders@webgl@@YAXAEBV?$FunctionCallbackInfo@VValue@v8@@@Nan@@@Z 000000018003ccb0     webgl.obj
 0002:0000ecd8       $ip2state$?GetAttachedShaders@webgl@@YAXAEBV?$FunctionCallbackInfo@VValue@v8@@@Nan@@@Z 000000018003ccd8     webgl.obj
 0002:0000ecf0       $unwind$?GetParameter@webgl@@YAXAEBV?$FunctionCallbackInfo@VValue@v8@@@Nan@@@Z 000000018003ccf0     webgl.obj
 0002:0000ed18       $ip2state$?GetParameter@webgl@@YAXAEBV?$FunctionCallbackInfo@VValue@v8@@@Nan@@@Z 000000018003cd18     webgl.obj
 0002:0000ed38       $unwind$?GetBufferParameter@webgl@@YAXAEBV?$FunctionCallbackInfo@VValue@v8@@@Nan@@@Z 000000018003cd38     webgl.obj
 0002:0000ed50       $ip2state$?GetBufferParameter@webgl@@YAXAEBV?$FunctionCallbackInfo@VValue@v8@@@Nan@@@Z 000000018003cd50     webgl.obj
 0002:0000ed68       $unwind$?GetFramebufferAttachmentParameter@webgl@@YAXAEBV?$FunctionCallbackInfo@VValue@v8@@@Nan@@@Z 000000018003cd68     webgl.obj
 0002:0000ed80       $ip2state$?GetFramebufferAttachmentParameter@webgl@@YAXAEBV?$FunctionCallbackInfo@VValue@v8@@@Nan@@@Z 000000018003cd80     webgl.obj
 0002:0000ed98       $unwind$?GetProgramInfoLog@webgl@@YAXAEBV?$FunctionCallbackInfo@VValue@v8@@@Nan@@@Z 000000018003cd98     webgl.obj
 0002:0000edb0       $ip2state$?GetProgramInfoLog@webgl@@YAXAEBV?$FunctionCallbackInfo@VValue@v8@@@Nan@@@Z 000000018003cdb0     webgl.obj
 0002:0000edc8       $unwind$?GetRenderbufferParameter@webgl@@YAXAEBV?$FunctionCallbackInfo@VValue@v8@@@Nan@@@Z 000000018003cdc8     webgl.obj
 0002:0000ede0       $ip2state$?GetRenderbufferParameter@webgl@@YAXAEBV?$FunctionCallbackInfo@VValue@v8@@@Nan@@@Z 000000018003cde0     webgl.obj
 0002:0000edf8       $unwind$?GetVertexAttrib@webgl@@YAXAEBV?$FunctionCallbackInfo@VValue@v8@@@Nan@@@Z 000000018003cdf8     webgl.obj
 0002:0000ee18       $ip2state$?GetVertexAttrib@webgl@@YAXAEBV?$FunctionCallbackInfo@VValue@v8@@@Nan@@@Z 000000018003ce18     webgl.obj
 0002:0000ee30       $unwind$?GetSupportedExtensions@webgl@@YAXAEBV?$FunctionCallbackInfo@VValue@v8@@@Nan@@@Z 000000018003ce30     webgl.obj
 0002:0000ee48       $ip2state$?GetSupportedExtensions@webgl@@YAXAEBV?$FunctionCallbackInfo@VValue@v8@@@Nan@@@Z 000000018003ce48     webgl.obj
 0002:0000ee60       $unwind$?GetExtension@webgl@@YAXAEBV?$FunctionCallbackInfo@VValue@v8@@@Nan@@@Z 000000018003ce60     webgl.obj
 0002:0000ee7c       $stateUnwindMap$?GetExtension@webgl@@YAXAEBV?$FunctionCallbackInfo@VValue@v8@@@Nan@@@Z 000000018003ce7c     webgl.obj
 0002:0000ee90       $ip2state$?GetExtension@webgl@@YAXAEBV?$FunctionCallbackInfo@VValue@v8@@@Nan@@@Z 000000018003ce90     webgl.obj
 0002:0000eeb8       $unwind$?CheckFramebufferStatus@webgl@@YAXAEBV?$FunctionCallbackInfo@VValue@v8@@@Nan@@@Z 000000018003ceb8     webgl.obj
 0002:0000eed0       $ip2state$?CheckFramebufferStatus@webgl@@YAXAEBV?$FunctionCallbackInfo@VValue@v8@@@Nan@@@Z 000000018003ced0     webgl.obj
 0002:0000eee8       $unwind$__acrt_LocaleNameToLCID 000000018003cee8     libucrt:winapi_thunks.obj
 0002:0000eee8       $unwind$??R<lambda_ad1ced32f4ac17aa236e5ef05d6b3b7c>@@QEBAXXZ 000000018003cee8     libucrt:mbctype.obj
 0002:0000eee8       $unwind$?type_case_Z@?$output_processor@_WV?$string_output_adapter@_W@__crt_stdio_output@@V?$standard_base@_WV?$string_output_adapter@_W@__crt_stdio_output@@@2@@__crt_stdio_output@@AEAA_NXZ 000000018003cee8     libucrt:output.obj
 0002:0000eee8       $unwind$_initterm_e        000000018003cee8     libucrt:initterm.obj
 0002:0000eee8       $unwind$?type_case_n@?$output_processor@DV?$stream_output_adapter@D@__crt_stdio_output@@V?$standard_base@DV?$stream_output_adapter@D@__crt_stdio_output@@@2@@__crt_stdio_output@@AEAA_NXZ 000000018003cee8     libucrt:output.obj
 0002:0000eee8       $unwind$?type_case_Z@?$output_processor@DV?$stream_output_adapter@D@__crt_stdio_output@@V?$standard_base@DV?$stream_output_adapter@D@__crt_stdio_output@@@2@@__crt_stdio_output@@AEAA_NXZ 000000018003cee8     libucrt:output.obj
 0002:0000eee8       $unwind$?type_case_s@?$output_processor@_WV?$stream_output_adapter@_W@__crt_stdio_output@@V?$standard_base@_WV?$stream_output_adapter@_W@__crt_stdio_output@@@2@@__crt_stdio_output@@AEAA_NXZ 000000018003cee8     libucrt:output.obj
 0002:0000eee8       $unwind$__acrt_stdio_flush_and_write_narrow_nolock 000000018003cee8     libucrt:_flsbuf.obj
 0002:0000eee8       $unwind$_RTC_Terminate     000000018003cee8     LIBCMT:_initsect_.obj
 0002:0000eee8       $unwind$_DllMainCRTStartup 000000018003cee8     LIBCMT:dll_dllmain.obj
 0002:0000eee8       $unwind$__acrt_execute_uninitializers 000000018003cee8     libucrt:shared_initialization.obj
 0002:0000eee8       $unwind$??$common_lseek_nolock@_J@@YA_JH_JH@Z 000000018003cee8     libucrt:lseek.obj
 0002:0000eee8       $unwind$__vcrt_getptd_noexit 000000018003cee8     libvcruntime:per_thread_data.obj
 0002:0000eee8       $unwind$?registerGLObj@webgl@@YAXW4GLObjectType@1@I@Z 000000018003cee8     webgl.obj
 0002:0000eee8       $unwind$__acrt_FlsSetValue 000000018003cee8     libucrt:winapi_thunks.obj
 0002:0000eee8       $unwind$_RTC_Initialize    000000018003cee8     LIBCMT:_initsect_.obj
 0002:0000eee8       $unwind$?type_case_n@?$output_processor@_WV?$string_output_adapter@_W@__crt_stdio_output@@V?$standard_base@_WV?$string_output_adapter@_W@__crt_stdio_output@@@2@@__crt_stdio_output@@AEAA_NXZ 000000018003cee8     libucrt:output.obj
 0002:0000eee8       $unwind$_exception_enabled 000000018003cee8     libucrt:libm_error.obj
 0002:0000eee8       $unwind$__acrt_stdio_flush_and_write_wide_nolock 000000018003cee8     libucrt:_flsbuf.obj
 0002:0000eee8       $unwind$?type_case_Z@?$output_processor@_WV?$stream_output_adapter@_W@__crt_stdio_output@@V?$standard_base@_WV?$stream_output_adapter@_W@__crt_stdio_output@@@2@@__crt_stdio_output@@AEAA_NXZ 000000018003cee8     libucrt:output.obj
 0002:0000eee8       $unwind$__acrt_stdio_flush_nolock 000000018003cee8     libucrt:fflush.obj
 0002:0000eee8       $unwind$?type_case_s@?$output_processor@DV?$stream_output_adapter@D@__crt_stdio_output@@V?$standard_base@DV?$stream_output_adapter@D@__crt_stdio_output@@@2@@__crt_stdio_output@@AEAA_NXZ 000000018003cee8     libucrt:output.obj
 0002:0000eee8       $unwind$__acrt_getptd_noexit 000000018003cee8     libucrt:per_thread_data.obj
 0002:0000eee8       $unwind$?type_case_n@?$output_processor@_WV?$stream_output_adapter@_W@__crt_stdio_output@@V?$standard_base@_WV?$stream_output_adapter@_W@__crt_stdio_output@@@2@@__crt_stdio_output@@AEAA_NXZ 000000018003cee8     libucrt:output.obj
 0002:0000eee8       $unwind$__vcrt_FlsSetValue 000000018003cee8     libvcruntime:winapi_downlevel.obj
 0002:0000eee8       $unwind$?free_crt_array_internal@@YAXQEAPEBX_K@Z 000000018003cee8     libucrt:inittime.obj
 0002:0000eee8       $unwind$memcpy_s           000000018003cee8     libucrt:cfout.obj
 0002:0000eee8       $unwind$?type_case_s@?$output_processor@_WV?$string_output_adapter@_W@__crt_stdio_output@@V?$standard_base@_WV?$string_output_adapter@_W@__crt_stdio_output@@@2@@__crt_stdio_output@@AEAA_NXZ 000000018003cee8     libucrt:output.obj
 0002:0000eef8       $chain$1$?AtExit@webgl@@YAXXZ 000000018003cef8     webgl.obj
 0002:0000ef10       $chain$2$?AtExit@webgl@@YAXXZ 000000018003cf10     webgl.obj
 0002:0000ef20       $chain$0$?_Reallocate@?$vector@PEAUGLObj@webgl@@V?$allocator@PEAUGLObj@webgl@@@std@@@std@@IEAAX_K@Z 000000018003cf20     webgl.obj
 0002:0000ef34       $chain$1$?_Reallocate@?$vector@PEAUGLObj@webgl@@V?$allocator@PEAUGLObj@webgl@@@std@@@std@@IEAAX_K@Z 000000018003cf34     webgl.obj
 0002:0000ef44       $unwind$??$getArrayData@E@webgl@@YAPEAEV?$Local@VValue@v8@@@v8@@PEAH@Z 000000018003cf44     webgl.obj
 0002:0000ef44       $unwind$??$getArrayData@M@webgl@@YAPEAMV?$Local@VValue@v8@@@v8@@PEAH@Z 000000018003cf44     webgl.obj
 0002:0000ef44       $unwind$??$getArrayData@H@webgl@@YAPEAHV?$Local@VValue@v8@@@v8@@PEAH@Z 000000018003cf44     webgl.obj
 0002:0000ef4c       $chain$0$??$getArrayData@E@webgl@@YAPEAEV?$Local@VValue@v8@@@v8@@PEAH@Z 000000018003cf4c     webgl.obj
 0002:0000ef60       $chain$1$??$getArrayData@E@webgl@@YAPEAEV?$Local@VValue@v8@@@v8@@PEAH@Z 000000018003cf60     webgl.obj
 0002:0000ef70       $chain$0$??$getArrayData@M@webgl@@YAPEAMV?$Local@VValue@v8@@@v8@@PEAH@Z 000000018003cf70     webgl.obj
 0002:0000ef70       $chain$0$??$getArrayData@H@webgl@@YAPEAHV?$Local@VValue@v8@@@v8@@PEAH@Z 000000018003cf70     webgl.obj
 0002:0000ef84       $chain$1$??$getArrayData@M@webgl@@YAPEAMV?$Local@VValue@v8@@@v8@@PEAH@Z 000000018003cf84     webgl.obj
 0002:0000ef84       $chain$1$??$getArrayData@H@webgl@@YAPEAHV?$Local@VValue@v8@@@v8@@PEAH@Z 000000018003cf84     webgl.obj
 0002:0000ef94       xdata                      000000018003cf94     node:node.exe
 0002:0000ef9c       $unwind$?__scrt_throw_std_bad_array_new_length@@YAXXZ 000000018003cf9c     LIBCMT:throw_bad_alloc.obj
 0002:0000ef9c       $unwind$__dcrt_lowio_initialize_console_output 000000018003cf9c     libucrt:initcon.obj
 0002:0000ef9c       $unwind$?__scrt_throw_std_bad_alloc@@YAXXZ 000000018003cf9c     LIBCMT:throw_bad_alloc.obj
 0002:0000ef9c       $unwind$_raise_exc         000000018003cf9c     libucrt:fpexcept.obj
 0002:0000ef9c       $unwind$?_Xlength_error@std@@YAXPEBD@Z 000000018003cf9c     libcpmt:xthrow.obj
 0002:0000ef9c       $unwind$?_Xbad_alloc@std@@YAXXZ 000000018003cf9c     libcpmt:xthrow.obj
 0002:0000efa8       $xdatasym                  000000018003cfa8     LIBCMT:_amdsecgs_.obj
 0002:0000efac       $unwind$__scrt_is_nonwritable_in_current_image 000000018003cfac     LIBCMT:utility.obj
 0002:0000efcc       $unwind$__scrt_is_nonwritable_in_current_image$filt$0 000000018003cfcc     LIBCMT:utility.obj
 0002:0000efd4       $unwind$__scrt_initialize_onexit_tables 000000018003cfd4     LIBCMT:utility.obj
 0002:0000efe0       $unwind$?dllmain_crt_process_attach@@YAHQEAUHINSTANCE__@@QEAX@Z 000000018003cfe0     LIBCMT:dll_dllmain.obj
 0002:0000f00c       $unwind$?dllmain_crt_process_detach@@YAH_N@Z 000000018003d00c     LIBCMT:dll_dllmain.obj
 0002:0000f034       $unwind$?dllmain_dispatch@@YAHQEAUHINSTANCE__@@KQEAX@Z 000000018003d034     LIBCMT:dll_dllmain.obj
 0002:0000f05c       $unwind$?filt$0@?0??dllmain_dispatch@@YAHQEAUHINSTANCE__@@KQEAX@Z@4HA 000000018003d05c     LIBCMT:dll_dllmain.obj
 0002:0000f064       $unwind$__report_securityfailure 000000018003d064     LIBCMT:gs_report.obj
 0002:0000f06c       $unwind$__report_gsfailure 000000018003d06c     LIBCMT:gs_report.obj
 0002:0000f06c       $unwind$_putwch_nolock     000000018003d06c     libucrt:putwch.obj
 0002:0000f074       $unwind$capture_current_context 000000018003d074     LIBCMT:gs_report.obj
 0002:0000f080       $unwind$capture_previous_context 000000018003d080     LIBCMT:gs_report.obj
 0002:0000f08c       $unwind$__isa_available_init 000000018003d08c     LIBCMT:_cpu_disp_.obj
 0002:0000f09c       $unwind$__scrt_fastfail    000000018003d09c     LIBCMT:utility_desktop.obj
 0002:0000f0ac       $unwind$__security_init_cookie 000000018003d0ac     LIBCMT:gs_support.obj
 0002:0000f0b8       $xdatasym                  000000018003d0b8     LIBCMT:_guard_dispatch_.obj
 0002:0000f0bc       $unwind$__CxxCallCatchBlock 000000018003d0bc     libvcruntime:frame.obj
 0002:0000f0f8       $unwind$__CxxCallCatchBlock$fin$1 000000018003d0f8     libvcruntime:frame.obj
 0002:0000f104       $unwind$__FrameUnwindToState 000000018003d104     libvcruntime:frame.obj
 0002:0000f140       $unwind$?FindHandler@@YAXPEAUEHExceptionRecord@@PEA_KPEAU_CONTEXT@@PEAU_xDISPATCHER_CONTEXT@@PEBU_s_FuncInfo@@EH1@Z 000000018003d140     libvcruntime:frame.obj
 0002:0000f160       $unwind$?CatchIt@@YAXPEAUEHExceptionRecord@@PEA_KPEAU_CONTEXT@@PEAU_xDISPATCHER_CONTEXT@@PEBU_s_FuncInfo@@PEBU_s_HandlerType@@PEBU_s_CatchableType@@PEBU_s_TryBlockMapEntry@@H1EE@Z 000000018003d160     libvcruntime:frame.obj
 0002:0000f178       $unwind$__BuildCatchObject 000000018003d178     libvcruntime:frame.obj
 0002:0000f1a4       $unwind$?FindHandlerForForeignException@@YAXPEAUEHExceptionRecord@@PEA_KPEAU_CONTEXT@@PEAU_xDISPATCHER_CONTEXT@@PEBU_s_FuncInfo@@HH1@Z 000000018003d1a4     libvcruntime:frame.obj
 0002:0000f1bc       $unwind$__DestructExceptionObject 000000018003d1bc     libvcruntime:frame.obj
 0002:0000f1e0       $unwind$__BuildCatchObjectHelper 000000018003d1e0     libvcruntime:frame.obj
 0002:0000f220       $xdatasym                  000000018003d220     libvcruntime:memcpy.obj
 0002:0000f224       $unwind$strstr             000000018003d224     libvcruntime:strstr.obj
 0002:0000f234       $unwind$_CxxThrowException 000000018003d234     libvcruntime:throw.obj
 0002:0000f248       $unwind$__InternalCxxFrameHandler 000000018003d248     libvcruntime:frame.obj
 0002:0000f248       $unwind$__C_specific_handler 000000018003d248     libvcruntime:_chandler_.obj
 0002:0000f268       $xdatasym                  000000018003d268     libvcruntime:memset.obj
 0002:0000f270       $xdatasym                  000000018003d270     libvcruntime:handlers.obj
 0002:0000f278       $unwind$?_GetEstablisherFrame@@YAPEA_KPEA_KPEAU_xDISPATCHER_CONTEXT@@PEBU_s_FuncInfo@@0@Z 000000018003d278     libvcruntime:trnsctrl.obj
 0002:0000f290       $unwind$?__FrameUnwindToEmptyState@@YAXPEA_KPEAU_xDISPATCHER_CONTEXT@@PEBU_s_FuncInfo@@@Z 000000018003d290     libvcruntime:trnsctrl.obj
 0002:0000f2a4       $unwind$_CallSETranslator  000000018003d2a4     libvcruntime:trnsctrl.obj
 0002:0000f2c8       $unwind$_CallSETranslator$filt$0 000000018003d2c8     libvcruntime:trnsctrl.obj
 0002:0000f2d0       $unwind$_UnwindNestedFrames 000000018003d2d0     libvcruntime:trnsctrl.obj
 0002:0000f2e4       $unwind$__CxxFrameHandler3 000000018003d2e4     libvcruntime:trnsctrl.obj
 0002:0000f2f4       $unwind$?__SehTransFilter@@YAHPEAU_EXCEPTION_POINTERS@@PEAUEHExceptionRecord@@PEA_KPEAU_CONTEXT@@PEAU_xDISPATCHER_CONTEXT@@PEBU_s_FuncInfo@@PEAH@Z 000000018003d2f4     libvcruntime:trnsctrl.obj
 0002:0000f308       $xdatasym                  000000018003d308     libvcruntime:_jmpuwind_.obj
 0002:0000f31c       $unwind$__vcrt_uninitialize_winapi_thunks 000000018003d31c     libvcruntime:winapi_downlevel.obj
 0002:0000f31c       $unwind$__acrt_stdio_end_temporary_buffering_nolock 000000018003d31c     libucrt:_sftbuf.obj
 0002:0000f324       $unwind$?try_get_function@@YAPEAXW4function_id@?A0x679b24ab@@QEBDQEBW4module_id@2@2@Z 000000018003d324     libvcruntime:winapi_downlevel.obj
 0002:0000f324       $unwind$?write_string@?$string_output_adapter@_W@__crt_stdio_output@@QEBAXQEB_WHQEAH1@Z 000000018003d324     libucrt:output.obj
 0002:0000f324       $unwind$?IsInExceptionSpec@@YAEPEAUEHExceptionRecord@@PEBU_s_ESTypeList@@@Z 000000018003d324     libvcruntime:frame.obj
 0002:0000f324       $unwind$?try_get_function@@YAPEAXW4function_id@?A0x63058377@@QEBDQEBW4module_id@2@2@Z 000000018003d324     libucrt:winapi_thunks.obj
 0002:0000f340       $unwind$swprintf           000000018003d340     libucrt:assert.obj
 0002:0000f350       $unwind$??$common_assert_to_stderr@_W@@YAXQEB_W0I@Z 000000018003d350     libucrt:assert.obj
 0002:0000f36c       $unwind$??$common_assert_to_message_box@_W@@YAXQEB_W0IQEAX@Z 000000018003d36c     libucrt:assert.obj
 0002:0000f388       $unwind$??$common_assert_to_message_box_build_string@_W@@YAXQEA_W_KQEB_W2IQEAX@Z 000000018003d388     libucrt:assert.obj
 0002:0000f3a8       $unwind$__acrt_call_reportfault 000000018003d3a8     libucrt:invalid_parameter.obj
 0002:0000f3c8       $unwind$_invalid_parameter 000000018003d3c8     libucrt:invalid_parameter.obj
 0002:0000f3e0       $unwind$__stdio_common_vfwprintf 000000018003d3e0     libucrt:output.obj
 0002:0000f3e0       $unwind$__stdio_common_vfprintf 000000018003d3e0     libucrt:output.obj
 0002:0000f3e8       $unwind$__stdio_common_vswprintf 000000018003d3e8     libucrt:output.obj
 0002:0000f40c       $unwind$?write_string@?$stream_output_adapter@D@__crt_stdio_output@@QEBAXQEBDHQEAH1@Z 000000018003d40c     libucrt:output.obj
 0002:0000f424       $unwind$?process@?$output_processor@DV?$stream_output_adapter@D@__crt_stdio_output@@V?$standard_base@DV?$stream_output_adapter@D@__crt_stdio_output@@@2@@__crt_stdio_output@@QEAAHXZ 000000018003d424     libucrt:output.obj
 0002:0000f434       $unwind$?parse_int_from_format_string@?$output_processor@DV?$stream_output_adapter@D@__crt_stdio_output@@V?$standard_base@DV?$stream_output_adapter@D@__crt_stdio_output@@@2@@__crt_stdio_output@@AEAA_NQEAH@Z 000000018003d434     libucrt:output.obj
 0002:0000f448       $unwind$?state_case_type@?$output_processor@DV?$stream_output_adapter@D@__crt_stdio_output@@V?$standard_base@DV?$stream_output_adapter@D@__crt_stdio_output@@@2@@__crt_stdio_output@@AEAA_NXZ 000000018003d448     libucrt:output.obj
 0002:0000f460       $unwind$?type_case_a@?$output_processor@DV?$stream_output_adapter@D@__crt_stdio_output@@V?$standard_base@DV?$stream_output_adapter@D@__crt_stdio_output@@@2@@__crt_stdio_output@@AEAA_NXZ 000000018003d460     libucrt:output.obj
 0002:0000f46c       $unwind$?write_stored_string_tchar@?$output_processor@DV?$stream_output_adapter@D@__crt_stdio_output@@V?$standard_base@DV?$stream_output_adapter@D@__crt_stdio_output@@@2@@__crt_stdio_output@@AEAA_ND@Z 000000018003d46c     libucrt:output.obj
 0002:0000f484       $unwind$?write_string@?$stream_output_adapter@_W@__crt_stdio_output@@QEBAXQEB_WHQEAH1@Z 000000018003d484     libucrt:output.obj
 0002:0000f49c       $unwind$?process@?$output_processor@_WV?$stream_output_adapter@_W@__crt_stdio_output@@V?$standard_base@_WV?$stream_output_adapter@_W@__crt_stdio_output@@@2@@__crt_stdio_output@@QEAAHXZ 000000018003d49c     libucrt:output.obj
 0002:0000f4b4       $unwind$?parse_int_from_format_string@?$output_processor@_WV?$string_output_adapter@_W@__crt_stdio_output@@V?$standard_base@_WV?$string_output_adapter@_W@__crt_stdio_output@@@2@@__crt_stdio_output@@AEAA_NQEAH@Z 000000018003d4b4     libucrt:output.obj
 0002:0000f4b4       $unwind$?parse_int_from_format_string@?$output_processor@_WV?$stream_output_adapter@_W@__crt_stdio_output@@V?$standard_base@_WV?$stream_output_adapter@_W@__crt_stdio_output@@@2@@__crt_stdio_output@@AEAA_NQEAH@Z 000000018003d4b4     libucrt:output.obj
 0002:0000f4c8       $unwind$?write_stored_string_tchar@?$output_processor@_WV?$stream_output_adapter@_W@__crt_stdio_output@@V?$standard_base@_WV?$stream_output_adapter@_W@__crt_stdio_output@@@2@@__crt_stdio_output@@AEAA_N_W@Z 000000018003d4c8     libucrt:output.obj
 0002:0000f4dc       $unwind$??R<lambda_dd75445284c072d0bd3768540cc698fa>@@QEBAHXZ 000000018003d4dc     libucrt:output.obj
 0002:0000f4dc       $unwind$??R<lambda_0a64b6a4deda75c01876f29c44fc5eb3>@@QEBAHXZ 000000018003d4dc     libucrt:output.obj
 0002:0000f4f8       $unwind$?state_case_type@?$output_processor@_WV?$stream_output_adapter@_W@__crt_stdio_output@@V?$standard_base@_WV?$stream_output_adapter@_W@__crt_stdio_output@@@2@@__crt_stdio_output@@AEAA_NXZ 000000018003d4f8     libucrt:output.obj
 0002:0000f4f8       $unwind$?state_case_type@?$output_processor@_WV?$string_output_adapter@_W@__crt_stdio_output@@V?$standard_base@_WV?$string_output_adapter@_W@__crt_stdio_output@@@2@@__crt_stdio_output@@AEAA_NXZ 000000018003d4f8     libucrt:output.obj
 0002:0000f51c       $unwind$??R<lambda_b721fa326cdb32351d23dfa67958c160>@@QEBAHXZ 000000018003d51c     libucrt:setvbuf.obj
 0002:0000f51c       $unwind$?type_case_c_tchar@?$output_processor@_WV?$string_output_adapter@_W@__crt_stdio_output@@V?$standard_base@_WV?$string_output_adapter@_W@__crt_stdio_output@@@2@@__crt_stdio_output@@AEAA_N_W@Z 000000018003d51c     libucrt:output.obj
 0002:0000f51c       $unwind$?type_case_c_tchar@?$output_processor@_WV?$stream_output_adapter@_W@__crt_stdio_output@@V?$standard_base@_WV?$stream_output_adapter@_W@__crt_stdio_output@@@2@@__crt_stdio_output@@AEAA_N_W@Z 000000018003d51c     libucrt:output.obj
 0002:0000f52c       $unwind$?type_case_a@?$output_processor@_WV?$stream_output_adapter@_W@__crt_stdio_output@@V?$standard_base@_WV?$stream_output_adapter@_W@__crt_stdio_output@@@2@@__crt_stdio_output@@AEAA_NXZ 000000018003d52c     libucrt:output.obj
 0002:0000f52c       $unwind$?type_case_a@?$output_processor@_WV?$string_output_adapter@_W@__crt_stdio_output@@V?$standard_base@_WV?$string_output_adapter@_W@__crt_stdio_output@@@2@@__crt_stdio_output@@AEAA_NXZ 000000018003d52c     libucrt:output.obj
 0002:0000f53c       $unwind$?write_stored_string_tchar@?$output_processor@_WV?$string_output_adapter@_W@__crt_stdio_output@@V?$standard_base@_WV?$string_output_adapter@_W@__crt_stdio_output@@@2@@__crt_stdio_output@@AEAA_N_W@Z 000000018003d53c     libucrt:output.obj
 0002:0000f550       $unwind$??$write_multiple_characters@V?$stream_output_adapter@D@__crt_stdio_output@@D@__crt_stdio_output@@YAXAEBV?$stream_output_adapter@D@0@DHQEAH@Z 000000018003d550     libucrt:output.obj
 0002:0000f568       $unwind$??$write_multiple_characters@V?$stream_output_adapter@_W@__crt_stdio_output@@D@__crt_stdio_output@@YAXAEBV?$stream_output_adapter@_W@0@DHQEAH@Z 000000018003d568     libucrt:output.obj
 0002:0000f580       $unwind$??$write_multiple_characters@V?$string_output_adapter@_W@__crt_stdio_output@@D@__crt_stdio_output@@YAXAEBV?$string_output_adapter@_W@0@DHQEAH@Z 000000018003d580     libucrt:output.obj
 0002:0000f58c       $unwind$??$type_case_integer_parse_into_buffer@_K@?$output_processor@_WV?$stream_output_adapter@_W@__crt_stdio_output@@V?$standard_base@_WV?$stream_output_adapter@_W@__crt_stdio_output@@@2@@__crt_stdio_output@@AEAAX_KI_N@Z 000000018003d58c     libucrt:output.obj
 0002:0000f58c       $unwind$??$type_case_integer_parse_into_buffer@_K@?$output_processor@_WV?$string_output_adapter@_W@__crt_stdio_output@@V?$standard_base@_WV?$string_output_adapter@_W@__crt_stdio_output@@@2@@__crt_stdio_output@@AEAAX_KI_N@Z 000000018003d58c     libucrt:output.obj
 0002:0000f58c       $unwind$??$type_case_integer_parse_into_buffer@I@?$output_processor@DV?$stream_output_adapter@D@__crt_stdio_output@@V?$standard_base@DV?$stream_output_adapter@D@__crt_stdio_output@@@2@@__crt_stdio_output@@AEAAXII_N@Z 000000018003d58c     libucrt:output.obj
 0002:0000f58c       $unwind$??$type_case_integer_parse_into_buffer@I@?$output_processor@_WV?$stream_output_adapter@_W@__crt_stdio_output@@V?$standard_base@_WV?$stream_output_adapter@_W@__crt_stdio_output@@@2@@__crt_stdio_output@@AEAAXII_N@Z 000000018003d58c     libucrt:output.obj
 0002:0000f58c       $unwind$??$type_case_integer_parse_into_buffer@_K@?$output_processor@DV?$stream_output_adapter@D@__crt_stdio_output@@V?$standard_base@DV?$stream_output_adapter@D@__crt_stdio_output@@@2@@__crt_stdio_output@@AEAAX_KI_N@Z 000000018003d58c     libucrt:output.obj
 0002:0000f58c       $unwind$??$type_case_integer_parse_into_buffer@I@?$output_processor@_WV?$string_output_adapter@_W@__crt_stdio_output@@V?$standard_base@_WV?$string_output_adapter@_W@__crt_stdio_output@@@2@@__crt_stdio_output@@AEAAXII_N@Z 000000018003d58c     libucrt:output.obj
 0002:0000f594       $unwind$??$?RV<lambda_aa279a7bcb127014629d5b1d62c7325d>@@AEAV<lambda_0a64b6a4deda75c01876f29c44fc5eb3>@@V<lambda_3323e69fbefe9d1a11713e670d47cdfa>@@@?$__crt_seh_guarded_call@H@@QEAAH$$QEAV<lambda_aa279a7bcb127014629d5b1d62c7325d>@@AEAV<lambda_0a64b6a4deda75c01876f29c44fc5eb3>@@$$QEAV<lambda_3323e69fbefe9d1a11713e670d47cdfa>@@@Z 000000018003d594     libucrt:output.obj
 0002:0000f5b8       $unwind$??$?RV<lambda_7b91131dde12e1c3dfc74ff76b3f2eac>@@AEAV<lambda_dd75445284c072d0bd3768540cc698fa>@@V<lambda_16bc4ecb55b4718497c16bceaea2ceaf>@@@?$__crt_seh_guarded_call@H@@QEAAH$$QEAV<lambda_7b91131dde12e1c3dfc74ff76b3f2eac>@@AEAV<lambda_dd75445284c072d0bd3768540cc698fa>@@$$QEAV<lambda_16bc4ecb55b4718497c16bceaea2ceaf>@@@Z 000000018003d5b8     libucrt:output.obj
 0002:0000f5dc       $unwind$?x_ismbbtype_l@@YAHPEAU__crt_locale_pointers@@IHH@Z 000000018003d5dc     libucrt:ismbbyte.obj
 0002:0000f5dc       $unwind$_stricmp_l         000000018003d5dc     libucrt:stricmp.obj
 0002:0000f5ec       $unwind$__acrt_execute_initializers 000000018003d5ec     libucrt:shared_initialization.obj
 0002:0000f5ec       $unwind$?_ExecutionInCatch@@YAHPEAU_xDISPATCHER_CONTEXT@@PEBU_s_FuncInfo@@@Z 000000018003d5ec     libvcruntime:trnsctrl.obj
 0002:0000f5ec       $unwind$__acrt_free_locale 000000018003d5ec     libucrt:locale_refcounting.obj
 0002:0000f5ec       $unwind$__acrt_InitializeCriticalSectionEx 000000018003d5ec     libucrt:winapi_thunks.obj
 0002:0000f5ec       $unwind$?dllmain_raw@@YAHQEAUHINSTANCE__@@KQEAX@Z 000000018003d5ec     LIBCMT:dll_dllmain.obj
 0002:0000f5ec       $unwind$??$ensure_buffer_is_big_enough@D@formatting_buffer@__crt_stdio_output@@QEAA_N_K@Z 000000018003d5ec     libucrt:output.obj
 0002:0000f5ec       $unwind$?expand_if_necessary@?$argument_list@D@?A0xca0879c4@@AEAAHXZ 000000018003d5ec     libucrt:argv_wildcards.obj
 0002:0000f5ec       $unwind$__vcrt_InitializeCriticalSectionEx 000000018003d5ec     libvcruntime:winapi_downlevel.obj
 0002:0000f5ec       $unwind$__scrt_dllmain_exception_filter 000000018003d5ec     LIBCMT:utility.obj
 0002:0000f5ec       $unwind$_seh_filter_exe    000000018003d5ec     libucrt:exception_filter.obj
 0002:0000f5ec       $unwind$_recalloc_base     000000018003d5ec     libucrt:recalloc.obj
 0002:0000f5ec       $unwind$__acrt_lowio_create_handle_array 000000018003d5ec     libucrt:osfinfo.obj
 0002:0000f5ec       $unwind$_wassert           000000018003d5ec     libucrt:assert.obj
 0002:0000f5ec       $unwind$?setSBCS@@YAXPEAU__crt_multibyte_data@@@Z 000000018003d5ec     libucrt:mbctype.obj
 0002:0000f600       $unwind$?common_exit@@YAXHW4_crt_exit_cleanup_mode@@W4_crt_exit_return_mode@@@Z 000000018003d600     libucrt:exit.obj
 0002:0000f640       $unwind$_configure_narrow_argv 000000018003d640     libucrt:argv_parsing.obj
 0002:0000f654       $unwind$??$create_environment@D@@YAQEAPEADQEAD@Z 000000018003d654     libucrt:environment_initialization.obj
 0002:0000f66c       $unwind$_register_onexit_function 000000018003d66c     libucrt:onexit.obj
 0002:0000f674       $unwind$_execute_onexit_table 000000018003d674     libucrt:onexit.obj
 0002:0000f67c       $unwind$??$parse_command_line@D@@YAXPEADPEAPEAD0PEA_K2@Z 000000018003d67c     libucrt:argv_parsing.obj
 0002:0000f67c       $unwind$??R<lambda_4e60a939b0d047cfe11ddc22648dfba9>@@QEBAHXZ 000000018003d67c     libucrt:onexit.obj
 0002:0000f67c       $unwind$?_GetRangeOfTrysToCheck@@YAPEBU_s_TryBlockMapEntry@@PEA_KPEBU_s_FuncInfo@@HHPEAI2PEAU_xDISPATCHER_CONTEXT@@@Z 000000018003d67c     libvcruntime:trnsctrl.obj
 0002:0000f698       $unwind$??$?RV<lambda_b8c45f8f788dd370798f47cfe8ac3a86>@@AEAV<lambda_4e60a939b0d047cfe11ddc22648dfba9>@@V<lambda_332c3edc96d0294ec56c57d38c1cdfd5>@@@?$__crt_seh_guarded_call@H@@QEAAH$$QEAV<lambda_b8c45f8f788dd370798f47cfe8ac3a86>@@AEAV<lambda_4e60a939b0d047cfe11ddc22648dfba9>@@$$QEAV<lambda_332c3edc96d0294ec56c57d38c1cdfd5>@@@Z 000000018003d698     libucrt:onexit.obj
 0002:0000f6bc       $unwind$??$?RV<lambda_e24bbb7b643b32fcea6fa61b31d4c984>@@AEAV<lambda_275893d493268fdec8709772e3fcec0e>@@V<lambda_9d71df4d7cf3f480f8d633942495c3b0>@@@?$__crt_seh_guarded_call@H@@QEAAH$$QEAV<lambda_e24bbb7b643b32fcea6fa61b31d4c984>@@AEAV<lambda_275893d493268fdec8709772e3fcec0e>@@$$QEAV<lambda_9d71df4d7cf3f480f8d633942495c3b0>@@@Z 000000018003d6bc     libucrt:onexit.obj
 0002:0000f6ec       $unwind$?fin$0@?0???$?RV<lambda_c36588078e9f5dfd39652860aa6b3aaf>@@AEAV<lambda_ec61778202f4f5fc7e7711acc23c3bca>@@V<lambda_dc9d2797ccde5d239b4a0efae8ebd7db>@@@?$__crt_seh_guarded_call@P6AXH@Z@@QEAAP6AXH@Z$$QEAV<lambda_c36588078e9f5dfd39652860aa6b3aaf>@@AEAV<lambda_ec61778202f4f5fc7e7711acc23c3bca>@@$$QEAV<lambda_dc9d2797ccde5d239b4a0efae8ebd7db>@@@Z@4HA 000000018003d6ec     libucrt:signal.obj
 0002:0000f6ec       $unwind$__CxxCallCatchBlock$filt$0 000000018003d6ec     libvcruntime:frame.obj
 0002:0000f6ec       $unwind$?fin$0@?0???$?RV<lambda_b521505b218e5242e90febf6bfebc422>@@AEAV<lambda_6978c1fb23f02e42e1d9e99668cc68aa>@@V<lambda_314360699dd331753a4119843814e9a7>@@@?$__crt_seh_guarded_call@H@@QEAAH$$QEAV<lambda_b521505b218e5242e90febf6bfebc422>@@AEAV<lambda_6978c1fb23f02e42e1d9e99668cc68aa>@@$$QEAV<lambda_314360699dd331753a4119843814e9a7>@@@Z@4HA 000000018003d6ec     libucrt:commit.obj
 0002:0000f6ec       $unwind$raise$fin$0        000000018003d6ec     libucrt:signal.obj
 0002:0000f6ec       $unwind$_IsNonwritableInCurrentImage$filt$0 000000018003d6ec     LIBCMT:pesect.obj
 0002:0000f6ec       $unwind$?fin$0@?0???$?RV<lambda_b8c45f8f788dd370798f47cfe8ac3a86>@@AEAV<lambda_4e60a939b0d047cfe11ddc22648dfba9>@@V<lambda_332c3edc96d0294ec56c57d38c1cdfd5>@@@?$__crt_seh_guarded_call@H@@QEAAH$$QEAV<lambda_b8c45f8f788dd370798f47cfe8ac3a86>@@AEAV<lambda_4e60a939b0d047cfe11ddc22648dfba9>@@$$QEAV<lambda_332c3edc96d0294ec56c57d38c1cdfd5>@@@Z@4HA 000000018003d6ec     libucrt:onexit.obj
 0002:0000f6ec       $unwind$?fin$0@?0???$?RV<lambda_5e887d1dcbef67a5eb4283622ba103bf>@@AEAV<lambda_4466841279450cc726390878d4a41900>@@V<lambda_341c25c0346d94847f1f3c463c57e077>@@@?$__crt_seh_guarded_call@X@@QEAAX$$QEAV<lambda_5e887d1dcbef67a5eb4283622ba103bf>@@AEAV<lambda_4466841279450cc726390878d4a41900>@@$$QEAV<lambda_341c25c0346d94847f1f3c463c57e077>@@@Z@4HA 000000018003d6ec     libucrt:per_thread_data.obj
 0002:0000f6ec       $unwind$_query_new_handler$fin$0 000000018003d6ec     libucrt:new_handler.obj
 0002:0000f6ec       $unwind$?fin$1@?0??common_exit@@YAXHW4_crt_exit_cleanup_mode@@W4_crt_exit_return_mode@@@Z@4HA 000000018003d6ec     libucrt:exit.obj
 0002:0000f6ec       $unwind$?fin$0@?0???$?RV<lambda_e24bbb7b643b32fcea6fa61b31d4c984>@@AEAV<lambda_275893d493268fdec8709772e3fcec0e>@@V<lambda_9d71df4d7cf3f480f8d633942495c3b0>@@@?$__crt_seh_guarded_call@H@@QEAAH$$QEAV<lambda_e24bbb7b643b32fcea6fa61b31d4c984>@@AEAV<lambda_275893d493268fdec8709772e3fcec0e>@@$$QEAV<lambda_9d71df4d7cf3f480f8d633942495c3b0>@@@Z@4HA 000000018003d6ec     libucrt:onexit.obj
 0002:0000f6ec       $unwind$__acrt_initialize_lowio$fin$0 000000018003d6ec     libucrt:ioinit.obj
 0002:0000f6ec       $unwind$?fin$0@?0???$common_lseek@_J@@YA_JH_JH@Z@4HA 000000018003d6ec     libucrt:lseek.obj
 0002:0000f6ec       $unwind$__acrt_lowio_ensure_fh_exists$fin$0 000000018003d6ec     libucrt:osfinfo.obj
 0002:0000f6ec       $unwind$?fin$0@?0??dllmain_crt_process_attach@@YAHQEAUHINSTANCE__@@QEAX@Z@4HA 000000018003d6ec     LIBCMT:dll_dllmain.obj
 0002:0000f6ec       $unwind$__FrameUnwindToState$filt$0 000000018003d6ec     libvcruntime:frame.obj
 0002:0000f6ec       $unwind$__FrameUnwindToState$fin$1 000000018003d6ec     libvcruntime:frame.obj
 0002:0000f6ec       $unwind$?fin$0@?0???$?RV<lambda_46352004c1216016012b18bd6f87e700>@@AEAV<lambda_3bd07e1a1191394380780325891bf33f>@@V<lambda_334532d3f185bcaa59b5be82d7d22bff>@@@?$__crt_seh_guarded_call@X@@QEAAX$$QEAV<lambda_46352004c1216016012b18bd6f87e700>@@AEAV<lambda_3bd07e1a1191394380780325891bf33f>@@$$QEAV<lambda_334532d3f185bcaa59b5be82d7d22bff>@@@Z@4HA 000000018003d6ec     libucrt:per_thread_data.obj
 0002:0000f6ec       $unwind$_fcloseall$fin$0   000000018003d6ec     libucrt:closeall.obj
 0002:0000f6ec       $unwind$_ctrlfp$filt$0     000000018003d6ec     libucrt:fpctrl.obj
 0002:0000f6ec       $unwind$?fin$0@?0??dllmain_crt_process_detach@@YAH_N@Z@4HA 000000018003d6ec     LIBCMT:dll_dllmain.obj
 0002:0000f6ec       $unwind$fclose$fin$0       000000018003d6ec     libucrt:fclose.obj
 0002:0000f6ec       $unwind$_write$fin$0       000000018003d6ec     libucrt:write.obj
 0002:0000f6ec       $unwind$?fin$0@?0???$?RV<lambda_7a5ef57ff966f610505f1d28a3d40618>@@AEAV<lambda_b721fa326cdb32351d23dfa67958c160>@@V<lambda_5e0fb27672408a07956fe59e48ccb2aa>@@@?$__crt_seh_guarded_call@H@@QEAAH$$QEAV<lambda_7a5ef57ff966f610505f1d28a3d40618>@@AEAV<lambda_b721fa326cdb32351d23dfa67958c160>@@$$QEAV<lambda_5e0fb27672408a07956fe59e48ccb2aa>@@@Z@4HA 000000018003d6ec     libucrt:setvbuf.obj
 0002:0000f6ec       $unwind$?fin$0@?0???$?RV<lambda_bfedae4ebbf01fab1bb6dcc6a9e276e0>@@AEAV<lambda_2fe9b910cf3cbf4a0ab98a02ba45b3ec>@@V<lambda_237c231691f317818eb88cc1d5d642d6>@@@?$__crt_seh_guarded_call@H@@QEAAH$$QEAV<lambda_bfedae4ebbf01fab1bb6dcc6a9e276e0>@@AEAV<lambda_2fe9b910cf3cbf4a0ab98a02ba45b3ec>@@$$QEAV<lambda_237c231691f317818eb88cc1d5d642d6>@@@Z@4HA 000000018003d6ec     libucrt:close.obj
 0002:0000f6ec       $unwind$__acrt_uninitialize_locale$fin$0 000000018003d6ec     libucrt:wsetlocale.obj
 0002:0000f6ec       $unwind$__acrt_update_thread_locale_data$fin$0 000000018003d6ec     libucrt:locale_refcounting.obj
 0002:0000f6ec       $unwind$common_flush_all$fin$1 000000018003d6ec     libucrt:fflush.obj
 0002:0000f6ec       $unwind$common_flush_all$fin$0 000000018003d6ec     libucrt:fflush.obj
 0002:0000f6ec       $unwind$?fin$0@?0???$?RV<lambda_fb3a7dec4e47f37f22dae91bb15c9095>@@AEAV<lambda_698284760c8add0bfb0756c19673e34b>@@V<lambda_dfb8eca1e75fef3034a8fb18dd509707>@@@?$__crt_seh_guarded_call@X@@QEAAX$$QEAV<lambda_fb3a7dec4e47f37f22dae91bb15c9095>@@AEAV<lambda_698284760c8add0bfb0756c19673e34b>@@$$QEAV<lambda_dfb8eca1e75fef3034a8fb18dd509707>@@@Z@4HA 000000018003d6ec     libucrt:per_thread_data.obj
 0002:0000f6ec       $unwind$?fin$0@?0???$?RV<lambda_72d1df2b273a38828b1ce30cbf4cdab5>@@AEAV<lambda_876a65b173b8412d3a47c70a915b0cf4>@@V<lambda_41932305e351933ebe8f8be3ed8bb5dc>@@@?$__crt_seh_guarded_call@X@@QEAAX$$QEAV<lambda_72d1df2b273a38828b1ce30cbf4cdab5>@@AEAV<lambda_876a65b173b8412d3a47c70a915b0cf4>@@$$QEAV<lambda_41932305e351933ebe8f8be3ed8bb5dc>@@@Z@4HA 000000018003d6ec     libucrt:per_thread_data.obj
 0002:0000f6ec       $unwind$?fin$0@?0???$?RV<lambda_99476a1ad63dd22509b5d3e65b0ffc95>@@AEAV<lambda_ad1ced32f4ac17aa236e5ef05d6b3b7c>@@V<lambda_f7424dd8d45958661754dc4f2697e9c3>@@@?$__crt_seh_guarded_call@X@@QEAAX$$QEAV<lambda_99476a1ad63dd22509b5d3e65b0ffc95>@@AEAV<lambda_ad1ced32f4ac17aa236e5ef05d6b3b7c>@@$$QEAV<lambda_f7424dd8d45958661754dc4f2697e9c3>@@@Z@4HA 000000018003d6ec     libucrt:mbctype.obj
 0002:0000f6ec       $unwind$?fin$0@?0???$?RV<lambda_aa279a7bcb127014629d5b1d62c7325d>@@AEAV<lambda_0a64b6a4deda75c01876f29c44fc5eb3>@@V<lambda_3323e69fbefe9d1a11713e670d47cdfa>@@@?$__crt_seh_guarded_call@H@@QEAAH$$QEAV<lambda_aa279a7bcb127014629d5b1d62c7325d>@@AEAV<lambda_0a64b6a4deda75c01876f29c44fc5eb3>@@$$QEAV<lambda_3323e69fbefe9d1a11713e670d47cdfa>@@@Z@4HA 000000018003d6ec     libucrt:output.obj
 0002:0000f6ec       $unwind$common_control87$filt$0 000000018003d6ec     libucrt:ieee.obj
 0002:0000f6ec       $unwind$?fin$0@?0???$?RV<lambda_7b91131dde12e1c3dfc74ff76b3f2eac>@@AEAV<lambda_dd75445284c072d0bd3768540cc698fa>@@V<lambda_16bc4ecb55b4718497c16bceaea2ceaf>@@@?$__crt_seh_guarded_call@H@@QEAAH$$QEAV<lambda_7b91131dde12e1c3dfc74ff76b3f2eac>@@AEAV<lambda_dd75445284c072d0bd3768540cc698fa>@@$$QEAV<lambda_16bc4ecb55b4718497c16bceaea2ceaf>@@@Z@4HA 000000018003d6ec     libucrt:output.obj
 0002:0000f6ec       $unwind$__DestructExceptionObject$filt$0 000000018003d6ec     libvcruntime:frame.obj
 0002:0000f6ec       $unwind$fflush$fin$0       000000018003d6ec     libucrt:fflush.obj
 0002:0000f6ec       $unwind$__acrt_update_thread_multibyte_data$fin$0 000000018003d6ec     libucrt:mbctype.obj
 0002:0000f6ec       $unwind$?filt$0@?0??common_exit@@YAXHW4_crt_exit_cleanup_mode@@W4_crt_exit_return_mode@@@Z@4HA 000000018003d6ec     libucrt:exit.obj
 0002:0000f6f4       $unwind$_query_new_handler 000000018003d6f4     libucrt:new_handler.obj
 0002:0000f714       $unwind$terminate          000000018003d714     libucrt:terminate.obj
 0002:0000f734       $unwind$_mbsdec_l          000000018003d734     libucrt:mbsdec.obj
 0002:0000f734       $unwind$_strupr_s_l        000000018003d734     libucrt:strupr.obj
 0002:0000f740       $unwind$?_strupr_s_l_stat@@YAHQEAD_KQEAU__crt_locale_pointers@@@Z 000000018003d740     libucrt:strupr.obj
 0002:0000f764       $unwind$??$parse_integer@KV?$c_string_character_source@D@__crt_strtox@@@__crt_strtox@@YAKQEAU__crt_locale_pointers@@V?$c_string_character_source@D@0@H_N@Z 000000018003d764     libucrt:atox.obj
 0002:0000f780       $unwind$??$parse_integer@KV?$c_string_character_source@_W@__crt_strtox@@@__crt_strtox@@YAKQEAU__crt_locale_pointers@@V?$c_string_character_source@_W@0@H_N@Z 000000018003d780     libucrt:atox.obj
 0002:0000f79c       $unwind$fflush             000000018003d79c     libucrt:fflush.obj
 0002:0000f7c0       $unwind$common_flush_all   000000018003d7c0     libucrt:fflush.obj
 0002:0000f7fc       $unwind$setvbuf            000000018003d7fc     libucrt:setvbuf.obj
 0002:0000f804       $unwind$??$?RV<lambda_7a5ef57ff966f610505f1d28a3d40618>@@AEAV<lambda_b721fa326cdb32351d23dfa67958c160>@@V<lambda_5e0fb27672408a07956fe59e48ccb2aa>@@@?$__crt_seh_guarded_call@H@@QEAAH$$QEAV<lambda_7a5ef57ff966f610505f1d28a3d40618>@@AEAV<lambda_b721fa326cdb32351d23dfa67958c160>@@$$QEAV<lambda_5e0fb27672408a07956fe59e48ccb2aa>@@@Z 000000018003d804     libucrt:setvbuf.obj
 0002:0000f828       $unwind$__acrt_get_sigabrt_handler 000000018003d828     libucrt:signal.obj
 0002:0000f830       $unwind$raise              000000018003d830     libucrt:signal.obj
 0002:0000f85c       $unwind$??$?RV<lambda_c36588078e9f5dfd39652860aa6b3aaf>@@AEAV<lambda_ec61778202f4f5fc7e7711acc23c3bca>@@V<lambda_dc9d2797ccde5d239b4a0efae8ebd7db>@@@?$__crt_seh_guarded_call@P6AXH@Z@@QEAAP6AXH@Z$$QEAV<lambda_c36588078e9f5dfd39652860aa6b3aaf>@@AEAV<lambda_ec61778202f4f5fc7e7711acc23c3bca>@@$$QEAV<lambda_dc9d2797ccde5d239b4a0efae8ebd7db>@@@Z 000000018003d85c     libucrt:signal.obj
 0002:0000f880       $unwind$?construct_ptd_array@@YAXQEAU__acrt_ptd@@@Z 000000018003d880     libucrt:per_thread_data.obj
 0002:0000f888       $unwind$?destroy_ptd_array@@YAXQEAU__acrt_ptd@@@Z 000000018003d888     libucrt:per_thread_data.obj
 0002:0000f890       $unwind$??$?RV<lambda_72d1df2b273a38828b1ce30cbf4cdab5>@@AEAV<lambda_876a65b173b8412d3a47c70a915b0cf4>@@V<lambda_41932305e351933ebe8f8be3ed8bb5dc>@@@?$__crt_seh_guarded_call@X@@QEAAX$$QEAV<lambda_72d1df2b273a38828b1ce30cbf4cdab5>@@AEAV<lambda_876a65b173b8412d3a47c70a915b0cf4>@@$$QEAV<lambda_41932305e351933ebe8f8be3ed8bb5dc>@@@Z 000000018003d890     libucrt:per_thread_data.obj
 0002:0000f8b4       $unwind$??$?RV<lambda_5e887d1dcbef67a5eb4283622ba103bf>@@AEAV<lambda_4466841279450cc726390878d4a41900>@@V<lambda_341c25c0346d94847f1f3c463c57e077>@@@?$__crt_seh_guarded_call@X@@QEAAX$$QEAV<lambda_5e887d1dcbef67a5eb4283622ba103bf>@@AEAV<lambda_4466841279450cc726390878d4a41900>@@$$QEAV<lambda_341c25c0346d94847f1f3c463c57e077>@@@Z 000000018003d8b4     libucrt:per_thread_data.obj
 0002:0000f8d8       $unwind$??$?RV<lambda_46352004c1216016012b18bd6f87e700>@@AEAV<lambda_3bd07e1a1191394380780325891bf33f>@@V<lambda_334532d3f185bcaa59b5be82d7d22bff>@@@?$__crt_seh_guarded_call@X@@QEAAX$$QEAV<lambda_46352004c1216016012b18bd6f87e700>@@AEAV<lambda_3bd07e1a1191394380780325891bf33f>@@$$QEAV<lambda_334532d3f185bcaa59b5be82d7d22bff>@@@Z 000000018003d8d8     libucrt:per_thread_data.obj
 0002:0000f8fc       $unwind$??$?RV<lambda_fb3a7dec4e47f37f22dae91bb15c9095>@@AEAV<lambda_698284760c8add0bfb0756c19673e34b>@@V<lambda_dfb8eca1e75fef3034a8fb18dd509707>@@@?$__crt_seh_guarded_call@X@@QEAAX$$QEAV<lambda_fb3a7dec4e47f37f22dae91bb15c9095>@@AEAV<lambda_698284760c8add0bfb0756c19673e34b>@@$$QEAV<lambda_dfb8eca1e75fef3034a8fb18dd509707>@@@Z 000000018003d8fc     libucrt:per_thread_data.obj
 0002:0000f920       $unwind$__acrt_initialize_winapi_thunks 000000018003d920     libucrt:winapi_thunks.obj
 0002:0000f928       $unwind$_mbtowc_l          000000018003d928     libucrt:mbtowc.obj
 0002:0000f928       $unwind$__acrt_LCMapStringEx 000000018003d928     libucrt:winapi_thunks.obj
 0002:0000f928       $unwind$__acrt_show_wide_message_box 000000018003d928     libucrt:crtmbox.obj
 0002:0000f940       $unwind$__acrt_is_interactive 000000018003d940     libucrt:winapi_thunks.obj
 0002:0000f954       $unwind$_fcloseall         000000018003d954     libucrt:closeall.obj
 0002:0000f978       $unwind$__acrt_initialize_lowio 000000018003d978     libucrt:ioinit.obj
 0002:0000f998       $unwind$?initialize_inherited_file_handles_nolock@@YAXXZ 000000018003d998     libucrt:ioinit.obj
 0002:0000f9b4       $unwind$_tolower_l         000000018003d9b4     libucrt:tolower_toupper.obj
 0002:0000f9c4       $unwind$wctomb_s           000000018003d9c4     libucrt:wctomb.obj
 0002:0000f9c4       $unwind$_log10_special     000000018003d9c4     libucrt:log_special.obj
 0002:0000f9c4       $unwind$_invalid_parameter_noinfo_noreturn 000000018003d9c4     libucrt:invalid_parameter.obj
 0002:0000f9c4       $unwind$_invalid_parameter_noinfo 000000018003d9c4     libucrt:invalid_parameter.obj
 0002:0000f9c4       $unwind$_itow_s            000000018003d9c4     libucrt:xtoa.obj
 0002:0000f9cc       $unwind$_wctomb_s_l        000000018003d9cc     libucrt:wctomb.obj
 0002:0000f9dc       $unwind$wcsnlen            000000018003d9dc     libucrt:strnlen.obj
 0002:0000f9dc       $unwind$strnlen            000000018003d9dc     libucrt:strnlen.obj
 0002:0000f9e4       $unwind$__acrt_fp_format   000000018003d9e4     libucrt:cvt.obj
 0002:0000fa00       $unwind$?fp_format_nan_or_infinity@@YAHW4__acrt_fp_class@@_NPEAD_K1@Z 000000018003da00     libucrt:cvt.obj
 0002:0000fa14       $unwind$?fp_format_e_internal@@YAHQEAD_KH_NIQEAU_strflt@@2QEAU__crt_locale_pointers@@@Z 000000018003da14     libucrt:cvt.obj
 0002:0000fa2c       $unwind$?fp_format_e@@YAHQEBNQEAD_K12H_NIQEAU__crt_locale_pointers@@@Z 000000018003da2c     libucrt:cvt.obj
 0002:0000fa40       $unwind$?fp_format_a@@YAHQEBNPEAD_KQEAD2H_NIQEAU__crt_locale_pointers@@@Z 000000018003da40     libucrt:cvt.obj
 0002:0000fa5c       $unwind$?fp_format_g@@YAHQEBNQEAD_K12H_NIQEAU__crt_locale_pointers@@@Z 000000018003da5c     libucrt:cvt.obj
 0002:0000fa70       $unwind$_fputwc_nolock     000000018003da70     libucrt:fputwc.obj
 0002:0000fa8c       $unwind$__acrt_uninitialize_locale 000000018003da8c     libucrt:wsetlocale.obj
 0002:0000faac       $unwind$??$common_expand_argv_wildcards@D@@YAHQEAPEADQEAPEAPEAD@Z 000000018003daac     libucrt:argv_wildcards.obj
 0002:0000fac4       $unwind$??$copy_and_add_argument_to_buffer@D@@YAHQEBD0_KAEAV?$argument_list@D@?A0xca0879c4@@@Z 000000018003dac4     libucrt:argv_wildcards.obj
 0002:0000fae0       $unwind$??$expand_argument_wildcards@D@@YAHQEAD0AEAV?$argument_list@D@?A0xca0879c4@@@Z 000000018003dae0     libucrt:argv_wildcards.obj
 0002:0000fb00       $unwind$__acrt_update_thread_multibyte_data 000000018003db00     libucrt:mbctype.obj
 0002:0000fb24       $unwind$_setmbcp_nolock    000000018003db24     libucrt:mbctype.obj
 0002:0000fb44       $unwind$?setSBUpLow@@YAXPEAU__crt_multibyte_data@@@Z 000000018003db44     libucrt:mbctype.obj
 0002:0000fb60       $unwind$?setmbcp_internal@@YAHH_N@Z 000000018003db60     libucrt:mbctype.obj
 0002:0000fb70       $unwind$??$?RV<lambda_99476a1ad63dd22509b5d3e65b0ffc95>@@AEAV<lambda_ad1ced32f4ac17aa236e5ef05d6b3b7c>@@V<lambda_f7424dd8d45958661754dc4f2697e9c3>@@@?$__crt_seh_guarded_call@X@@QEAAX$$QEAV<lambda_99476a1ad63dd22509b5d3e65b0ffc95>@@AEAV<lambda_ad1ced32f4ac17aa236e5ef05d6b3b7c>@@$$QEAV<lambda_f7424dd8d45958661754dc4f2697e9c3>@@@Z 000000018003db70     libucrt:mbctype.obj
 0002:0000fb94       $unwind$?fp_format_f_internal@@YAHQEAD_KHQEAU_strflt@@_NQEAU__crt_locale_pointers@@@Z 000000018003db94     libucrt:cvt.obj
 0002:0000fb94       $unwind$__dcrt_get_narrow_environment_from_os 000000018003db94     libucrt:get_environment_from_os.obj
 0002:0000fbac       $unwind$__acrt_LCMapStringA 000000018003dbac     libucrt:lcmapstringa.obj
 0002:0000fbbc       $unwind$?__acrt_LCMapStringA_stat@@YAHPEAU__crt_locale_pointers@@PEB_WKPEBDHPEADHHH@Z 000000018003dbbc     libucrt:lcmapstringa.obj
 0002:0000fbe4       $unwind$_isctype_l         000000018003dbe4     libucrt:isctype.obj
 0002:0000fc00       $unwind$??$?RV<lambda_b521505b218e5242e90febf6bfebc422>@@AEAV<lambda_6978c1fb23f02e42e1d9e99668cc68aa>@@V<lambda_314360699dd331753a4119843814e9a7>@@@?$__crt_seh_guarded_call@H@@QEAAH$$QEAV<lambda_b521505b218e5242e90febf6bfebc422>@@AEAV<lambda_6978c1fb23f02e42e1d9e99668cc68aa>@@$$QEAV<lambda_314360699dd331753a4119843814e9a7>@@@Z 000000018003dc00     libucrt:commit.obj
 0002:0000fc24       $unwind$_write             000000018003dc24     libucrt:write.obj
 0002:0000fc54       $unwind$_write_nolock      000000018003dc54     libucrt:write.obj
 0002:0000fc6c       $unwind$?write_double_translated_ansi_nolock@@YA?AUwrite_result@?A0x9c548279@@HQEBDI@Z 000000018003dc6c     libucrt:write.obj
